 OptRokova

 Timestamp is 38059607 (Thu Oct 14 10:36:23 1999)

 Preferred load address is 00400000

 Start         Length     Name                   Class
 0001:00000000 0002cefeH .text                   CODE
 0001:0002cefe 00000eb4H .text$AFX_AUX           CODE
 0001:0002ddb2 000009bfH .text$AFX_CMNCTL        CODE
 0001:0002e771 0000043fH .text$AFX_COL1          CODE
 0001:0002ebb0 000004c7H .text$AFX_COL2          CODE
 0001:0002f077 00007b9aH .text$AFX_CORE1         CODE
 0001:00036c11 000040e6H .text$AFX_CORE2         CODE
 0001:0003acf7 000060e4H .text$AFX_CORE3         CODE
 0001:00040ddb 00003efaH .text$AFX_CORE4         CODE
 0001:00044cd5 00003b19H .text$AFX_INIT          CODE
 0001:000487ee 00000290H .text$AFX_OLE1          CODE
 0001:00048a7e 0000018cH .text$AFX_OLE2          CODE
 0001:00048c0a 0000035dH .text$AFX_OLE3          CODE
 0001:00048f67 0000035aH .text$AFX_OLE4          CODE
 0001:000492c1 00000e7eH .text$AFX_OLE5          CODE
 0001:0004a13f 000032faH .text$AFX_PRNT          CODE
 0001:0004d439 00000266H .text$AFX_TERM          CODE
 0001:0004d6a0 00002ad1H .text$x                 CODE
 0002:00000000 00006f30H .rdata                  DATA
 0002:00006f30 00002704H .rdata$r                DATA
 0002:00009638 00004cb0H .xdata$x                DATA
 0002:0000e2e8 00000000H .edata                  DATA
 0003:00000000 00000004H .CRT$XCA                DATA
 0003:00000004 0000002cH .CRT$XCC                DATA
 0003:00000030 00000014H .CRT$XCL                DATA
 0003:00000044 00000100H .CRT$XCU                DATA
 0003:00000144 00000004H .CRT$XCZ                DATA
 0003:00000148 00000004H .CRT$XIA                DATA
 0003:0000014c 0000000cH .CRT$XIC                DATA
 0003:00000158 00000004H .CRT$XIY                DATA
 0003:0000015c 00000004H .CRT$XIZ                DATA
 0003:00000160 00000004H .CRT$XPA                DATA
 0003:00000164 00000008H .CRT$XPX                DATA
 0003:0000016c 00000004H .CRT$XPZ                DATA
 0003:00000170 00000004H .CRT$XTA                DATA
 0003:00000174 00000004H .CRT$XTB                DATA
 0003:00000178 00000004H .CRT$XTZ                DATA
 0003:00000180 000053b4H .data                   DATA
 0003:00005538 000048d0H .bss                    DATA
 0004:00000000 000000f0H .idata$2                DATA
 0004:000000f0 00000014H .idata$3                DATA
 0004:00000104 00000704H .idata$4                DATA
 0004:00000808 00000704H .idata$5                DATA
 0004:00000f0c 00001cbaH .idata$6                DATA
 0005:00000000 00000ca0H .rsrc$01                DATA
 0005:00000ca0 000064f0H .rsrc$02                DATA

  Address         Publics by Value              Rva+Base     Lib:Object

 0001:00000000       ?UcitajPredmete@OptProblem@@QAEHPAD@Z 00401000 f   Data.obj
 0001:00000380       ?UcitajNastavniProgram@OptProblem@@QAEHPAD@Z 00401380 f   Data.obj
 0001:000005d0       ?UcitajPresjek@OptProblem@@QAEHPAD@Z 004015d0 f   Data.obj
 0001:00000bc0       ?UbaciPresjek@OptProblem@@QAEHHHH@Z 00401bc0 f   Data.obj
 0001:00000d40       ?UcitajPredmeteIstiDan@OptProblem@@QAEXPAD@Z 00401d40 f   Data.obj
 0001:00000fe0       ??1?$basic_string@DU?$char_traits@D@std@@V?$allocator@D@2@@std@@QAE@XZ 00401fe0 f i Data.obj
 0001:00001020       ??1?$vector@PAVGen@@V?$allocator@PAVGen@@@std@@@std@@QAE@XZ 00402020 f i Data.obj
 0001:00001020       ??1?$vector@JV?$allocator@J@std@@@std@@QAE@XZ 00402020 f i Data.obj
 0001:00001020       ??1?$vector@VZapis@@V?$allocator@VZapis@@@std@@@std@@QAE@XZ 00402020 f i Data.obj
 0001:00001020       ??1?$vector@VParBrStudBrIsp@@V?$allocator@VParBrStudBrIsp@@@std@@@std@@QAE@XZ 00402020 f i Data.obj
 0001:00001020       ??1?$vector@HV?$allocator@H@std@@@std@@QAE@XZ 00402020 f i Data.obj
 0001:00001020       ??1?$vector@VIspit@@V?$allocator@VIspit@@@std@@@std@@QAE@XZ 00402020 f i Data.obj
 0001:00001020       ??1?$vector@VParSifraPresjek@@V?$allocator@VParSifraPresjek@@@std@@@std@@QAE@XZ 00402020 f i Data.obj
 0001:00001050       ?size@?$vector@VIspit@@V?$allocator@VIspit@@@std@@@std@@QBEIXZ 00402050 f i Data.obj
 0001:00001080       ?_Tidy@?$basic_string@DU?$char_traits@D@std@@V?$allocator@D@2@@std@@AAEX_N@Z 00402080 f i Data.obj
 0001:000010d0       ?insert@?$vector@JV?$allocator@J@std@@@std@@QAEXPAJIABJ@Z 004020d0 f i Data.obj
 0001:000010d0       ?insert@?$vector@HV?$allocator@H@std@@@std@@QAEXPAHIABH@Z 004020d0 f i Data.obj
 0001:000010d0       ?insert@?$vector@PAVGen@@V?$allocator@PAVGen@@@std@@@std@@QAEXPAPAVGen@@IABQAV3@@Z 004020d0 f i Data.obj
 0001:000012e0       ?erase@?$vector@JV?$allocator@J@std@@@std@@QAEPAJPAJ0@Z 004022e0 f i Data.obj
 0001:000012e0       ?erase@?$vector@PAVGen@@V?$allocator@PAVGen@@@std@@@std@@QAEPAPAVGen@@PAPAV3@0@Z 004022e0 f i Data.obj
 0001:000012e0       ?erase@?$vector@HV?$allocator@H@std@@@std@@QAEPAHPAH0@Z 004022e0 f i Data.obj
 0001:00001320       ?_Destroy@?$vector@JV?$allocator@J@std@@@std@@IAEXPAJ0@Z 00402320 f i Data.obj
 0001:00001320       ?_Destroy@?$vector@VParBrStudBrIsp@@V?$allocator@VParBrStudBrIsp@@@std@@@std@@IAEXPAVParBrStudBrIsp@@0@Z 00402320 f i Data.obj
 0001:00001320       ?_Destroy@?$vector@VParSifraPresjek@@V?$allocator@VParSifraPresjek@@@std@@@std@@IAEXPAVParSifraPresjek@@0@Z 00402320 f i Data.obj
 0001:00001320       ?_Destroy@?$vector@HV?$allocator@H@std@@@std@@IAEXPAH0@Z 00402320 f i Data.obj
 0001:00001330       ?insert@?$vector@V?$vector@HV?$allocator@H@std@@@std@@V?$allocator@V?$vector@HV?$allocator@H@std@@@std@@@2@@std@@QAEXPAV?$vector@HV?$allocator@H@std@@@2@IABV32@@Z 00402330 f i Data.obj
 0001:000015c0       ?erase@?$vector@V?$vector@HV?$allocator@H@std@@@std@@V?$allocator@V?$vector@HV?$allocator@H@std@@@std@@@2@@std@@QAEPAV?$vector@HV?$allocator@H@std@@@2@PAV32@0@Z 004025c0 f i Data.obj
 0001:00001630       ?insert@?$vector@VIspit@@V?$allocator@VIspit@@@std@@@std@@QAEXPAVIspit@@IABV3@@Z 00402630 f i Data.obj
 0001:00001930       ?erase@?$vector@VIspit@@V?$allocator@VIspit@@@std@@@std@@QAEPAVIspit@@PAV3@0@Z 00402930 f i Data.obj
 0001:00001970       ?insert@?$vector@V?$basic_string@DU?$char_traits@D@std@@V?$allocator@D@2@@std@@V?$allocator@V?$basic_string@DU?$char_traits@D@std@@V?$allocator@D@2@@std@@@2@@std@@QAEXPAV?$basic_string@DU?$char_traits@D@std@@V?$allocator@D@2@@2@IABV32@@Z 00402970 f i Data.obj
 0001:00001c30       ?assign@?$basic_string@DU?$char_traits@D@std@@V?$allocator@D@2@@std@@QAEAAV12@ABV12@II@Z 00402c30 f i Data.obj
 0001:00001e30       ?erase@?$vector@V?$basic_string@DU?$char_traits@D@std@@V?$allocator@D@2@@std@@V?$allocator@V?$basic_string@DU?$char_traits@D@std@@V?$allocator@D@2@@std@@@2@@std@@QAEPAV?$basic_string@DU?$char_traits@D@std@@V?$allocator@D@2@@2@PAV32@0@Z 00402e30 f i Data.obj
 0001:00001fa0       ?erase@?$basic_string@DU?$char_traits@D@std@@V?$allocator@D@2@@std@@QAEAAV12@II@Z 00402fa0 f i Data.obj
 0001:000020c0       ?_Eos@?$basic_string@DU?$char_traits@D@std@@V?$allocator@D@2@@std@@AAEXI@Z 004030c0 f i Data.obj
 0001:000020e0       ?_Grow@?$basic_string@DU?$char_traits@D@std@@V?$allocator@D@2@@std@@AAE_NI_N@Z 004030e0 f i Data.obj
 0001:00002200       ?max_size@?$basic_string@DU?$char_traits@D@std@@V?$allocator@D@2@@std@@QBEIXZ 00403200 f i Data.obj
 0001:00002210       ?_Copy@?$basic_string@DU?$char_traits@D@std@@V?$allocator@D@2@@std@@AAEXI@Z 00403210 f i Data.obj
 0001:00002320       ?_Split@?$basic_string@DU?$char_traits@D@std@@V?$allocator@D@2@@std@@AAEXXZ 00403320 f i Data.obj
 0001:000023f0       ?_Construct@std@@YAXPAV?$vector@HV?$allocator@H@std@@@1@ABV21@@Z 004033f0 f i Data.obj
 0001:00002490       ?_Construct@std@@YAXPAV?$basic_string@DU?$char_traits@D@std@@V?$allocator@D@2@@1@ABV21@@Z 00403490 f i Data.obj
 0001:00002600       ??4?$vector@JV?$allocator@J@std@@@std@@QAEAAV01@ABV01@@Z 00403600 f i Data.obj
 0001:00002600       ??4?$vector@HV?$allocator@H@std@@@std@@QAEAAV01@ABV01@@Z 00403600 f i Data.obj
 0001:00002810       ?id@?$ctype@G@std@@$E      00403810 f i Data.obj
 0001:00002810       ??3@YAXPAX0@Z              00403810 f i Data.obj
 0001:00002810       ??1CObject@@UAE@XZ         00403810 f i Data.obj
 0001:00002810       ?id@?$numpunct@D@std@@$E   00403810 f i Data.obj
 0001:00002810       ?_Destroy@std@@YAXPAH@Z    00403810 f i Data.obj
 0001:00002810       ?id@?$num_put@DV?$ostreambuf_iterator@DU?$char_traits@D@std@@@$E 00403810 f i Data.obj
 0001:00002820       ?_Decref@facet@locale@std@@QAEPAV123@XZ 00403820 f i Data.obj
 0001:00002860       ??1facet@locale@std@@UAE@XZ 00403860 f i Data.obj
 0001:00002870       ??1locale@std@@QAE@XZ      00403870 f i Data.obj
 0001:00002890       ??_Efacet@locale@std@@UAEPAXI@Z 00403890 f i Data.obj
 0001:00002890       ??_Gfacet@locale@std@@UAEPAXI@Z 00403890 f i Data.obj
 0001:000028b0       ??0CDlgIspitiIstiDan@@QAE@PAVCWnd@@@Z 004038b0 f   DlgIspitiIstiDan.obj
 0001:00002930       ??_GCDlgIspitiIstiDan@@UAEPAXI@Z 00403930 f i DlgIspitiIstiDan.obj
 0001:00002930       ??_ECDlgIspitiIstiDan@@UAEPAXI@Z 00403930 f i DlgIspitiIstiDan.obj
 0001:00002950       ??1CDlgIspitiIstiDan@@UAE@XZ 00403950 f i DlgIspitiIstiDan.obj
 0001:000029a0       ?DoDataExchange@CDlgIspitiIstiDan@@MAEXPAVCDataExchange@@@Z 004039a0 f   DlgIspitiIstiDan.obj
 0001:000029c0       ?GetMessageMap@CDlgIspitiIstiDan@@MBEPBUAFX_MSGMAP@@XZ 004039c0 f   DlgIspitiIstiDan.obj
 0001:000029d0       ?OnCancel@CDlgIspitiIstiDan@@MAEXXZ 004039d0 f   DlgIspitiIstiDan.obj
 0001:000029d0       ?OnCancel@CDlgPopisIspita@@MAEXXZ 004039d0 f   DlgIspitiIstiDan.obj
 0001:000029e0       ?DoDataExchange@CWnd@@MAEXPAVCDataExchange@@@Z 004039e0 f i DlgIspitiIstiDan.obj
 0001:000029e0       ?Serialize@CObject@@UAEXAAVCArchive@@@Z 004039e0 f i DlgIspitiIstiDan.obj
 0001:00002a20       ?BeginModalState@CWnd@@UAEXXZ 00403a20 f i DlgIspitiIstiDan.obj
 0001:00002a30       ?EndModalState@CWnd@@UAEXXZ 00403a30 f i DlgIspitiIstiDan.obj
 0001:00002a40       ??_ECListBox@@UAEPAXI@Z    00403a40 f i DlgIspitiIstiDan.obj
 0001:00002a40       ??_GCListBox@@UAEPAXI@Z    00403a40 f i DlgIspitiIstiDan.obj
 0001:00002a60       ??0CDlgOptim@@QAE@PAVCWnd@@@Z 00403a60 f   DlgOptim.obj
 0001:00002b50       ?Create@CScrollbar@@UAEHPBD0KABUtagRECT@@PAVCWnd@@IPAUCCreateContext@@@Z 00403b50 f i DlgOptim.obj
 0001:00002b80       ??_ECDlgOptim@@UAEPAXI@Z   00403b80 f i DlgOptim.obj
 0001:00002b80       ??_GCDlgOptim@@UAEPAXI@Z   00403b80 f i DlgOptim.obj
 0001:00002ba0       ??1CMSFlexGrid@@UAE@XZ     00403ba0 f i DlgOptim.obj
 0001:00002ba0       ??1CScrollbar@@UAE@XZ      00403ba0 f i DlgOptim.obj
 0001:00002bb0       ??1CDlgOptim@@UAE@XZ       00403bb0 f i DlgOptim.obj
 0001:00002c20       ??_ECMSFlexGrid@@UAEPAXI@Z 00403c20 f i DlgOptim.obj
 0001:00002c20       ??_ECScrollbar@@UAEPAXI@Z  00403c20 f i DlgOptim.obj
 0001:00002c20       ??_GCScrollbar@@UAEPAXI@Z  00403c20 f i DlgOptim.obj
 0001:00002c20       ??_GCMSFlexGrid@@UAEPAXI@Z 00403c20 f i DlgOptim.obj
 0001:00002c40       ?DoDataExchange@CDlgOptim@@MAEXPAVCDataExchange@@@Z 00403c40 f   DlgOptim.obj
 0001:00002c80       ?GetMessageMap@CDlgOptim@@MBEPBUAFX_MSGMAP@@XZ 00403c80 f   DlgOptim.obj
 0001:00002c90       ?OnLButtonDown@CDlgOptim@@IAEXIVCPoint@@@Z 00403c90 f   DlgOptim.obj
 0001:00002fa0       ?PrintConfig@CDlgOptim@@QAEXXZ 00403fa0 f   DlgOptim.obj
 0001:00004180       ?DoSomething@@YAIPAX@Z     00405180 f   DlgOptim.obj
 0001:00004af0       ??1Gen@@QAE@XZ             00405af0 f i DlgOptim.obj
 0001:00004bb0       ??0Gen@@QAE@ABV0@@Z        00405bb0 f i DlgOptim.obj
 0001:00004d50       ?GetEventSinkMap@CDlgOptim@@MBEPBUAFX_EVENTSINKMAP@@XZ 00405d50 f   DlgOptim.obj
 0001:00004d60       ?OnCancel@CDlgOptim@@MAEXXZ 00405d60 f   DlgOptim.obj
 0001:00004de0       ?OnChangeVscroll@CDlgOptim@@IAEXXZ 00405de0 f   DlgOptim.obj
 0001:00004e20       ?OnScrollVscroll@CDlgOptim@@IAEXXZ 00405e20 f   DlgOptim.obj
 0001:00004e20       ?OnWriteAscii@CMainFrame@@IAEXXZ 00405e20 f   DlgOptim.obj
 0001:00004e30       ?OnStop@CDlgOptim@@IAEXXZ  00405e30 f   DlgOptim.obj
 0001:00004e40       ?OnNastaviOptimizaciju@CDlgOptim@@IAEXXZ 00405e40 f   DlgOptim.obj
 0001:00004e60       ?OnOptPromijeniPar@CDlgOptim@@IAEXXZ 00405e60 f   DlgOptim.obj
 0001:00005130       ??1CDlgParamOptimizacije@@UAE@XZ 00406130 f i DlgOptim.obj
 0001:00005130       ??1CAboutDlg@@UAE@XZ       00406130 f i DlgOptim.obj
 0001:00005140       ??A?$vector@PAVGen@@V?$allocator@PAVGen@@@std@@@std@@QAEAAPAVGen@@I@Z 00406140 f i DlgOptim.obj
 0001:00005140       ??A?$vector@HV?$allocator@H@std@@@std@@QAEAAHI@Z 00406140 f i DlgOptim.obj
 0001:00005150       ??0?$vector@V?$vector@HV?$allocator@H@std@@@std@@V?$allocator@V?$vector@HV?$allocator@H@std@@@std@@@2@@std@@QAE@ABV01@@Z 00406150 f i DlgOptim.obj
 0001:000051c0       ??1?$vector@V?$vector@VParBrStudBrIsp@@V?$allocator@VParBrStudBrIsp@@@std@@@std@@V?$allocator@V?$vector@VParBrStudBrIsp@@V?$allocator@VParBrStudBrIsp@@@std@@@std@@@2@@std@@QAE@XZ 004061c0 f i DlgOptim.obj
 0001:000051c0       ??1?$vector@V?$vector@HV?$allocator@H@std@@@std@@V?$allocator@V?$vector@HV?$allocator@H@std@@@std@@@2@@std@@QAE@XZ 004061c0 f i DlgOptim.obj
 0001:000051c0       ??1?$vector@V?$vector@VParSifraPresjek@@V?$allocator@VParSifraPresjek@@@std@@@std@@V?$allocator@V?$vector@VParSifraPresjek@@V?$allocator@VParSifraPresjek@@@std@@@std@@@2@@std@@QAE@XZ 004061c0 f i DlgOptim.obj
 0001:00005210       ??4?$vector@V?$vector@HV?$allocator@H@std@@@std@@V?$allocator@V?$vector@HV?$allocator@H@std@@@std@@@2@@std@@QAEAAV01@ABV01@@Z 00406210 f i DlgOptim.obj
 0001:000053f0       ??_ECGdiObject@@UAEPAXI@Z  004063f0 f i DlgOptim.obj
 0001:000053f0       ??_GCGdiObject@@UAEPAXI@Z  004063f0 f i DlgOptim.obj
 0001:00005410       ??1CGdiObject@@UAE@XZ      00406410 f i DlgOptim.obj
 0001:00005450       ?_Ufill@?$vector@HV?$allocator@H@std@@@std@@IAEXPAHIABH@Z 00406450 f i DlgOptim.obj
 0001:00005480       ??_GCFont@@UAEPAXI@Z       00406480 f i DlgOptim.obj
 0001:00005480       ??_ECFont@@UAEPAXI@Z       00406480 f i DlgOptim.obj
 0001:000054a0       ?size@?$vector@HV?$allocator@H@std@@@std@@QBEIXZ 004064a0 f i DlgOptim.obj
 0001:000054a0       ?size@?$vector@PAVGen@@V?$allocator@PAVGen@@@std@@@std@@QBEIXZ 004064a0 f i DlgOptim.obj
 0001:000054c0       ??1CFont@@UAE@XZ           004064c0 f i DlgOptim.obj
 0001:00005500       ??_G?$vector@VParSifraPresjek@@V?$allocator@VParSifraPresjek@@@std@@@std@@QAEPAXI@Z 00406500 f i DlgOptim.obj
 0001:00005500       ??_G?$vector@HV?$allocator@H@std@@@std@@QAEPAXI@Z 00406500 f i DlgOptim.obj
 0001:00005570       ??_GCButton@@UAEPAXI@Z     00406570 f i DlgOptim.obj
 0001:00005570       ??_ECButton@@UAEPAXI@Z     00406570 f i DlgOptim.obj
 0001:00005590       ??_ECProgressCtrl@@UAEPAXI@Z 00406590 f i DlgOptim.obj
 0001:00005590       ??_GCProgressCtrl@@UAEPAXI@Z 00406590 f i DlgOptim.obj
 0001:000055b0       ??2@YAPAXIPAX@Z            004065b0 f i DlgOptim.obj
 0001:000055c0       ??0CDlgParametriRoka@@QAE@PAVCWnd@@@Z 004065c0 f   DlgParametriRoka.obj
 0001:000056e0       ??_GCDlgParametriRoka@@UAEPAXI@Z 004066e0 f i DlgParametriRoka.obj
 0001:000056e0       ??_ECDlgParametriRoka@@UAEPAXI@Z 004066e0 f i DlgParametriRoka.obj
 0001:00005700       ??1CDlgParametriRoka@@UAE@XZ 00406700 f i DlgParametriRoka.obj
 0001:000057b0       ?DoDataExchange@CDlgParametriRoka@@MAEXPAVCDataExchange@@@Z 004067b0 f   DlgParametriRoka.obj
 0001:00005860       ?GetMessageMap@CDlgParametriRoka@@MBEPBUAFX_MSGMAP@@XZ 00406860 f   DlgParametriRoka.obj
 0001:00005870       ?OnSelectDatumPocetka@CDlgParametriRoka@@IAEXPAUtagNMHDR@@PAJ@Z 00406870 f   DlgParametriRoka.obj
 0001:000058d0       ?OnOk@CDlgVizualniPrikaz@@IAEXXZ 004068d0 f   DlgParametriRoka.obj
 0001:000058d0       ?OnOK@CDlgIspitiIstiDan@@MAEXXZ 004068d0 f   DlgParametriRoka.obj
 0001:000058d0       ?OnOK@CDlgParametriRoka@@MAEXXZ 004068d0 f   DlgParametriRoka.obj
 0001:000058d0       ?OnOK@CDlgPopisIspita@@MAEXXZ 004068d0 f   DlgParametriRoka.obj
 0001:000058e0       ?OnSelectDatumZavrsetka@CDlgParametriRoka@@IAEXPAUtagNMHDR@@PAJ@Z 004068e0 f   DlgParametriRoka.obj
 0001:00005940       ?OnRokJesenski@CDlgParametriRoka@@IAEXXZ 00406940 f   DlgParametriRoka.obj
 0001:000059c0       ?OnRokJesenskiIzv@CDlgParametriRoka@@IAEXXZ 004069c0 f   DlgParametriRoka.obj
 0001:00005a40       ?OnRokLjetni@CDlgParametriRoka@@IAEXXZ 00406a40 f   DlgParametriRoka.obj
 0001:00005ac0       ?OnRokProljetni@CDlgParametriRoka@@IAEXXZ 00406ac0 f   DlgParametriRoka.obj
 0001:00005b40       ?OnRokZimski@CDlgParametriRoka@@IAEXXZ 00406b40 f   DlgParametriRoka.obj
 0001:00005bf0       ??_ECMonthCalCtrl@@UAEPAXI@Z 00406bf0 f i DlgParametriRoka.obj
 0001:00005bf0       ??_GCMonthCalCtrl@@UAEPAXI@Z 00406bf0 f i DlgParametriRoka.obj
 0001:00005c10       ??0CDlgParamOptimizacije@@QAE@PAVCWnd@@@Z 00406c10 f   DlgParamOptimizacije.obj
 0001:00005ca0       ?DoDataExchange@CDlgParamOptimizacije@@MAEXPAVCDataExchange@@@Z 00406ca0 f   DlgParamOptimizacije.obj
 0001:00005e20       ?GetMessageMap@CDlgParamOptimizacije@@MBEPBUAFX_MSGMAP@@XZ 00406e20 f   DlgParamOptimizacije.obj
 0001:00005e60       ??0CDlgPopisIspita@@QAE@PAVCWnd@@@Z 00406e60 f   DlgPopisIspita.obj
 0001:00005f30       ?Create@CMSFlexGrid@@UAEHPBD0KABUtagRECT@@PAVCWnd@@IPAUCCreateContext@@@Z 00406f30 f i DlgPopisIspita.obj
 0001:00005f60       ??_ECDlgPopisIspita@@UAEPAXI@Z 00406f60 f i DlgPopisIspita.obj
 0001:00005f60       ??_GCDlgPopisIspita@@UAEPAXI@Z 00406f60 f i DlgPopisIspita.obj
 0001:00005f80       ??1CDlgPopisIspita@@UAE@XZ 00406f80 f i DlgPopisIspita.obj
 0001:00005ff0       ?DoDataExchange@CDlgPopisIspita@@MAEXPAVCDataExchange@@@Z 00406ff0 f   DlgPopisIspita.obj
 0001:00006030       ?GetMessageMap@CDlgPopisIspita@@MBEPBUAFX_MSGMAP@@XZ 00407030 f   DlgPopisIspita.obj
 0001:00006040       ?OnCheckDani@CDlgPopisIspita@@IAEXXZ 00407040 f   DlgPopisIspita.obj
 0001:00006090       ?OnCheckDatumi@CDlgPopisIspita@@IAEXXZ 00407090 f   DlgPopisIspita.obj
 0001:00006110       ??0CDlgPregledZelja@@QAE@PAVCWnd@@@Z 00407110 f   DlgPregledZelja.obj
 0001:00006190       ??_GCDlgPregledZelja@@UAEPAXI@Z 00407190 f i DlgPregledZelja.obj
 0001:00006190       ??_ECDlgPregledZelja@@UAEPAXI@Z 00407190 f i DlgPregledZelja.obj
 0001:000061b0       ??1CDlgPregledZelja@@UAE@XZ 004071b0 f i DlgPregledZelja.obj
 0001:00006200       ?DoDataExchange@CDlgPregledZelja@@MAEXPAVCDataExchange@@@Z 00407200 f   DlgPregledZelja.obj
 0001:00006220       ?GetMessageMap@CDlgPregledZelja@@MBEPBUAFX_MSGMAP@@XZ 00407220 f   DlgPregledZelja.obj
 0001:00006260       ??0CDlgVizualniPrikaz@@QAE@PAVCWnd@@@Z 00407260 f   DlgVizualniPrikaz.obj
 0001:000063b0       ??_ECDlgVizualniPrikaz@@UAEPAXI@Z 004073b0 f i DlgVizualniPrikaz.obj
 0001:000063b0       ??_GCDlgVizualniPrikaz@@UAEPAXI@Z 004073b0 f i DlgVizualniPrikaz.obj
 0001:000063d0       ??1CDlgVizualniPrikaz@@UAE@XZ 004073d0 f i DlgVizualniPrikaz.obj
 0001:00006470       ?DoDataExchange@CDlgVizualniPrikaz@@MAEXPAVCDataExchange@@@Z 00407470 f   DlgVizualniPrikaz.obj
 0001:000064f0       ?GetMessageMap@CDlgVizualniPrikaz@@MBEPBUAFX_MSGMAP@@XZ 004074f0 f   DlgVizualniPrikaz.obj
 0001:00006500       ?GetEventSinkMap@CDlgVizualniPrikaz@@MBEPBUAFX_EVENTSINKMAP@@XZ 00407500 f   DlgVizualniPrikaz.obj
 0001:00006510       ?OnChangeVizualniPrikazVscroll@CDlgVizualniPrikaz@@IAEXXZ 00407510 f   DlgVizualniPrikaz.obj
 0001:00006550       ?OnLButtonDown@CDlgVizualniPrikaz@@IAEXIVCPoint@@@Z 00407550 f   DlgVizualniPrikaz.obj
 0001:000069f0       ?PrintConfig@CDlgVizualniPrikaz@@QAEXXZ 004079f0 f   DlgVizualniPrikaz.obj
 0001:000079d0       ?DanIspita@CDlgVizualniPrikaz@@QAEHPAVCOptRokDoc@@HH@Z 004089d0 f   DlgVizualniPrikaz.obj
 0001:00007aa0       ?OnCheckJesizv@CDlgVizualniPrikaz@@IAEXXZ 00408aa0 f   DlgVizualniPrikaz.obj
 0001:00007b20       ?OnCheckZim@CDlgVizualniPrikaz@@IAEXXZ 00408b20 f   DlgVizualniPrikaz.obj
 0001:00007ba0       ?OnCheckProlj@CDlgVizualniPrikaz@@IAEXXZ 00408ba0 f   DlgVizualniPrikaz.obj
 0001:00007c20       ?OnCheckLjet@CDlgVizualniPrikaz@@IAEXXZ 00408c20 f   DlgVizualniPrikaz.obj
 0001:00007ca0       ?OnCheckJes@CDlgVizualniPrikaz@@IAEXXZ 00408ca0 f   DlgVizualniPrikaz.obj
 0001:00007d80       ?CreateObject@CMainFrame@@SGPAVCObject@@XZ 00408d80 f   MainFrm.obj
 0001:00007de0       ?GetRuntimeClass@CMainFrame@@UBEPAUCRuntimeClass@@XZ 00408de0 f   MainFrm.obj
 0001:00007df0       ?GetMessageMap@CMainFrame@@MBEPBUAFX_MSGMAP@@XZ 00408df0 f   MainFrm.obj
 0001:00007e00       ??0CMainFrame@@IAE@XZ      00408e00 f   MainFrm.obj
 0001:00007e60       ??_ECMainFrame@@UAEPAXI@Z  00408e60 f i MainFrm.obj
 0001:00007e60       ??_GCMainFrame@@UAEPAXI@Z  00408e60 f i MainFrm.obj
 0001:00007e80       ??1CMainFrame@@UAE@XZ      00408e80 f   MainFrm.obj
 0001:00007ef0       ?OnCreate@CMainFrame@@IAEHPAUtagCREATESTRUCTA@@@Z 00408ef0 f   MainFrm.obj
 0001:00007fc0       ?PreCreateWindow@CMainFrame@@UAEHAAUtagCREATESTRUCTA@@@Z 00408fc0 f   MainFrm.obj
 0001:00007ff0       ??3CObject@@SGXPAX@Z       00408ff0 f i MainFrm.obj
 0001:00008030       ?Prestupna@@YA_NAAVDate@@@Z 00409030 f   ModelPar.obj
 0001:00008060       ?TransformDate@@YAJAAVDate@@@Z 00409060 f   ModelPar.obj
 0001:000080d0       ?RazlikaDana@@YAHAAVDate@@0@Z 004090d0 f   ModelPar.obj
 0001:00008100       ??HDate@@QAE?AV0@H@Z       00409100 f   ModelPar.obj
 0001:00008150       ??0ModelParam@@QAE@XZ      00409150 f   ModelPar.obj
 0001:000083b0       ?PostaviDatume@ModelParam@@QAE_NVDate@@0@Z 004093b0 f   ModelPar.obj
 0001:00008650       ?PostaviIspite@ModelParam@@QAE_NV?$vector@HV?$allocator@H@std@@@std@@HV?$vector@V?$vector@HV?$allocator@H@std@@@std@@V?$allocator@V?$vector@HV?$allocator@H@std@@@std@@@2@@3@@Z 00409650 f   ModelPar.obj
 0001:00008a80       ?PostaviPresjek@ModelParam@@QAE_NAAV?$vector@V?$vector@VParSifraPresjek@@V?$allocator@VParSifraPresjek@@@std@@@std@@V?$allocator@V?$vector@VParSifraPresjek@@V?$allocator@VParSifraPresjek@@@std@@@std@@@2@@std@@HAAV?$vector@HV?$allocator@H@std@@@3@H@Z 00409a80 f   ModelPar.obj
 0001:00008d50       ?GetPresjek@ModelParam@@QAEHHH@Z 00409d50 f   ModelPar.obj
 0001:00008db0       ?PostaviParametre@ModelParam@@QAE_NHW4TerminRoka@@@Z 00409db0 f   ModelPar.obj
 0001:00008dd0       ?IzracunajBrojTermina@ModelParam@@QAEHXZ 00409dd0 f   ModelPar.obj
 0001:00008e10       ?IzracunajBrojDana@ModelParam@@QAEHXZ 00409e10 f   ModelPar.obj
 0001:00008e20       ?IsPartOfOptProblem@ModelParam@@QAE_NH@Z 00409e20 f   ModelPar.obj
 0001:00008e50       ?size@?$vector@V?$vector@VParBrStudBrIsp@@V?$allocator@VParBrStudBrIsp@@@std@@@std@@V?$allocator@V?$vector@VParBrStudBrIsp@@V?$allocator@VParBrStudBrIsp@@@std@@@std@@@2@@std@@QBEIXZ 00409e50 f i ModelPar.obj
 0001:00008e50       ?size@?$vector@V?$basic_string@DU?$char_traits@D@std@@V?$allocator@D@2@@std@@V?$allocator@V?$basic_string@DU?$char_traits@D@std@@V?$allocator@D@2@@std@@@2@@std@@QBEIXZ 00409e50 f i ModelPar.obj
 0001:00008e50       ?size@?$vector@V?$vector@HV?$allocator@H@std@@@std@@V?$allocator@V?$vector@HV?$allocator@H@std@@@std@@@2@@std@@QBEIXZ 00409e50 f i ModelPar.obj
 0001:00008e50       ?size@?$vector@V?$vector@VParSifraPresjek@@V?$allocator@VParSifraPresjek@@@std@@@std@@V?$allocator@V?$vector@VParSifraPresjek@@V?$allocator@VParSifraPresjek@@@std@@@std@@@2@@std@@QBEIXZ 00409e50 f i ModelPar.obj
 0001:00008e70       ?insert@?$vector@V?$vector@VParSifraPresjek@@V?$allocator@VParSifraPresjek@@@std@@@std@@V?$allocator@V?$vector@VParSifraPresjek@@V?$allocator@VParSifraPresjek@@@std@@@std@@@2@@std@@QAEXPAV?$vector@VParSifraPresjek@@V?$allocator@VParSifraPresjek@@@std@@@2@IABV32@@Z 00409e70 f i ModelPar.obj
 0001:00009100       ?insert@?$vector@V?$vector@VParBrStudBrIsp@@V?$allocator@VParBrStudBrIsp@@@std@@@std@@V?$allocator@V?$vector@VParBrStudBrIsp@@V?$allocator@VParBrStudBrIsp@@@std@@@std@@@2@@std@@QAEXPAV?$vector@VParBrStudBrIsp@@V?$allocator@VParBrStudBrIsp@@@std@@@2@IABV32@@Z 0040a100 f i ModelPar.obj
 0001:00009390       ?erase@?$vector@V?$vector@VParSifraPresjek@@V?$allocator@VParSifraPresjek@@@std@@@std@@V?$allocator@V?$vector@VParSifraPresjek@@V?$allocator@VParSifraPresjek@@@std@@@std@@@2@@std@@QAEPAV?$vector@VParSifraPresjek@@V?$allocator@VParSifraPresjek@@@std@@@2@PAV32@0@Z 0040a390 f i ModelPar.obj
 0001:00009390       ?erase@?$vector@V?$vector@VParBrStudBrIsp@@V?$allocator@VParBrStudBrIsp@@@std@@@std@@V?$allocator@V?$vector@VParBrStudBrIsp@@V?$allocator@VParBrStudBrIsp@@@std@@@std@@@2@@std@@QAEPAV?$vector@VParBrStudBrIsp@@V?$allocator@VParBrStudBrIsp@@@std@@@2@PAV32@0@Z 0040a390 f i ModelPar.obj
 0001:00009400       ?size@?$vector@VParBrStudBrIsp@@V?$allocator@VParBrStudBrIsp@@@std@@@std@@QBEIXZ 0040a400 f i ModelPar.obj
 0001:00009400       ?size@?$vector@VParSifraPresjek@@V?$allocator@VParSifraPresjek@@@std@@@std@@QBEIXZ 0040a400 f i ModelPar.obj
 0001:00009420       ?erase@?$vector@VParSifraPresjek@@V?$allocator@VParSifraPresjek@@@std@@@std@@QAEPAVParSifraPresjek@@PAV3@0@Z 0040a420 f i ModelPar.obj
 0001:00009420       ?erase@?$vector@VParBrStudBrIsp@@V?$allocator@VParBrStudBrIsp@@@std@@@std@@QAEPAVParBrStudBrIsp@@PAV3@0@Z 0040a420 f i ModelPar.obj
 0001:00009460       ?_Ucopy@?$vector@VParBrStudBrIsp@@V?$allocator@VParBrStudBrIsp@@@std@@@std@@IAEPAVParBrStudBrIsp@@PBV3@0PAV3@@Z 0040a460 f i ModelPar.obj
 0001:00009460       ?_Ucopy@?$vector@VParSifraPresjek@@V?$allocator@VParSifraPresjek@@@std@@@std@@IAEPAVParSifraPresjek@@PBV3@0PAV3@@Z 0040a460 f i ModelPar.obj
 0001:000094a0       ?_Construct@std@@YAXPAV?$vector@VParSifraPresjek@@V?$allocator@VParSifraPresjek@@@std@@@1@ABV21@@Z 0040a4a0 f i ModelPar.obj
 0001:00009540       ?_Construct@std@@YAXPAV?$vector@VParBrStudBrIsp@@V?$allocator@VParBrStudBrIsp@@@std@@@1@ABV21@@Z 0040a540 f i ModelPar.obj
 0001:000095e0       ??4?$vector@VParSifraPresjek@@V?$allocator@VParSifraPresjek@@@std@@@std@@QAEAAV01@ABV01@@Z 0040a5e0 f i ModelPar.obj
 0001:000095e0       ??4?$vector@VParBrStudBrIsp@@V?$allocator@VParBrStudBrIsp@@@std@@@std@@QAEAAV01@ABV01@@Z 0040a5e0 f i ModelPar.obj
 0001:000097b0       ?CreateObject@CMSFlexGrid@@SGPAVCObject@@XZ 0040a7b0 f   msflexgrid.obj
 0001:00009800       ?GetRuntimeClass@CMSFlexGrid@@UBEPAUCRuntimeClass@@XZ 0040a800 f   msflexgrid.obj
 0001:00009810       ?SetRows@CMSFlexGrid@@QAEXJ@Z 0040a810 f   msflexgrid.obj
 0001:00009830       ?SetCols@CMSFlexGrid@@QAEXJ@Z 0040a830 f   msflexgrid.obj
 0001:00009850       ?SetRow@CMSFlexGrid@@QAEXJ@Z 0040a850 f   msflexgrid.obj
 0001:00009870       ?SetCol@CMSFlexGrid@@QAEXJ@Z 0040a870 f   msflexgrid.obj
 0001:00009890       ?SetText@CMSFlexGrid@@QAEXPBD@Z 0040a890 f   msflexgrid.obj
 0001:000098b0       ?SetCellFontBold@CMSFlexGrid@@QAEXH@Z 0040a8b0 f   msflexgrid.obj
 0001:000098d0       ?SetColAlignment@CMSFlexGrid@@QAEXJF@Z 0040a8d0 f   msflexgrid.obj
 0001:00009900       ?SetColWidth@CMSFlexGrid@@QAEXJJ@Z 0040a900 f   msflexgrid.obj
 0001:00009960       ??0Date@@QAE@XZ            0040a960 f   Optimization.obj
 0001:00009970       ?PostaviParametre@GenAlgParam@@QAE_NHJJ@Z 0040a970 f   Optimization.obj
 0001:000099c0       ?PostaviParametre@OptFuncParam@@QAE_NNNNNNNNHHH@Z 0040a9c0 f   Optimization.obj
 0001:00009a90       ??0OptProblem@@QAE@PAD000@Z 0040aa90 f   Optimization.obj
 0001:00009f70       ??1ModelParam@@QAE@XZ      0040af70 f i Optimization.obj
 0001:0000a0a0       ?PostaviDatume@OptProblem@@QAEXVDate@@0@Z 0040b0a0 f   Optimization.obj
 0001:0000a0e0       ?PostaviIspite@OptProblem@@QAEHV?$vector@HV?$allocator@H@std@@@std@@H@Z 0040b0e0 f   Optimization.obj
 0001:0000a210       ?PostaviPresjek@OptProblem@@QAEXXZ 0040b210 f   Optimization.obj
 0001:0000a240       ?PostaviParametre@OptProblem@@QAEXHW4TerminRoka@@@Z 0040b240 f   Optimization.obj
 0001:0000a260       ??0Gen@@QAE@HH@Z           0040b260 f   Optimization.obj
 0001:0000a450       ?GenerateInitialPopulation@OptProblem@@QAEXAAV?$vector@PAVGen@@V?$allocator@PAVGen@@@std@@@std@@@Z 0040b450 f   Optimization.obj
 0001:0000a490       ?GenerateGene@OptProblem@@QAEXPAVGen@@HH@Z 0040b490 f   Optimization.obj
 0001:0000a5a0       ?Krizaj@OptProblem@@QAE?AVGen@@V2@0@Z 0040b5a0 f   Optimization.obj
 0001:0000aa30       ?Mutiraj@OptProblem@@QAEXV?$vector@PAVGen@@V?$allocator@PAVGen@@@std@@@std@@@Z 0040ba30 f   Optimization.obj
 0001:0000ab70       ?Func@OptProblem@@QAENAAVGen@@AAUFunkcijaCilja@@@Z 0040bb70 f   Optimization.obj
 0001:0000b5a0       ?Dist@@YAHHH@Z             0040c5a0 f   Optimization.obj
 0001:0000b5d0       ?TerminUDan@@YAHH@Z        0040c5d0 f   Optimization.obj
 0001:0000b600       ?DanUTermin@@YAHH@Z        0040c600 f   Optimization.obj
 0001:0000b630       ?IsVikend@@YA_NH@Z         0040c630 f   Optimization.obj
 0001:0000b660       ?IndexPredSaSifrom@OptProblem@@QAEHH@Z 0040c660 f   Optimization.obj
 0001:0000b690       ?PartOfOptProblem@OptProblem@@QAE_NH@Z 0040c690 f   Optimization.obj
 0001:0000b6b0       ?SetBit@@YAJJH@Z           0040c6b0 f   Optimization.obj
 0001:0000b6c0       ?ClearBit@@YAJJH@Z         0040c6c0 f   Optimization.obj
 0001:0000b6e0       ?IsBitSet@@YA_NJH@Z        0040c6e0 f   Optimization.obj
 0001:0000b700       ?NumberOfBits@@YAHJ@Z      0040c700 f   Optimization.obj
 0001:0000b720       ?SelectRandomNumbers@@YAXAAV?$vector@HV?$allocator@H@std@@@std@@HHH@Z 0040c720 f   Optimization.obj
 0001:0000b790       ?InSet@@YA_NV?$vector@HV?$allocator@H@std@@@std@@HH@Z 0040c790 f   Optimization.obj
 0001:0000b7d0       ?PostaviRezultatOptimizacije@OptProblem@@QAE_NAAV?$vector@VZapis@@V?$allocator@VZapis@@@std@@@std@@@Z 0040c7d0 f   Optimization.obj
 0001:0000be60       ??_H@YGXPAXIHP6EX0@Z@Z     0040ce60 f i Optimization.obj
 0001:0000be90       ?BrojRokova@@YAHW4TerminRoka@@@Z 0040ce90 f   Optimization.obj
 0001:0000bed0       ?BrojDanaZaPrikaz@@YAHW4TerminRoka@@@Z 0040ced0 f   Optimization.obj
 0001:0000bf10       ??0?$vector@JV?$allocator@J@std@@@std@@QAE@ABV01@@Z 0040cf10 f i Optimization.obj
 0001:0000bf10       ??0?$vector@HV?$allocator@H@std@@@std@@QAE@ABV01@@Z 0040cf10 f i Optimization.obj
 0001:0000bf80       ?resize@?$vector@HV?$allocator@H@std@@@std@@QAEXIABH@Z 0040cf80 f i Optimization.obj
 0001:0000c170       ?resize@?$vector@V?$vector@VParSifraPresjek@@V?$allocator@VParSifraPresjek@@@std@@@std@@V?$allocator@V?$vector@VParSifraPresjek@@V?$allocator@VParSifraPresjek@@@std@@@std@@@2@@std@@QAEXIABV?$vector@VParSifraPresjek@@V?$allocator@VParSifraPresjek@@@std@@@2@@Z 0040d170 f i Optimization.obj
 0001:0000c390       ??1?$vector@V?$basic_string@DU?$char_traits@D@std@@V?$allocator@D@2@@std@@V?$allocator@V?$basic_string@DU?$char_traits@D@std@@V?$allocator@D@2@@std@@@2@@std@@QAE@XZ 0040d390 f i Optimization.obj
 0001:0000c3f0       ??0?$vector@VParSifraPresjek@@V?$allocator@VParSifraPresjek@@@std@@@std@@QAE@ABV?$allocator@VParSifraPresjek@@@1@@Z 0040d3f0 f i Optimization.obj
 0001:0000c410       ?resize@?$vector@VParSifraPresjek@@V?$allocator@VParSifraPresjek@@@std@@@std@@QAEXIABVParSifraPresjek@@@Z 0040d410 f i Optimization.obj
 0001:0000c620       ?_Ucopy@?$vector@HV?$allocator@H@std@@@std@@IAEPAHPBH0PAH@Z 0040d620 f i Optimization.obj
 0001:0000c650       ?_Destroy@?$vector@V?$vector@VParSifraPresjek@@V?$allocator@VParSifraPresjek@@@std@@@std@@V?$allocator@V?$vector@VParSifraPresjek@@V?$allocator@VParSifraPresjek@@@std@@@std@@@2@@std@@IAEXPAV?$vector@VParSifraPresjek@@V?$allocator@VParSifraPresjek@@@std@@@2@0@Z 0040d650 f i Optimization.obj
 0001:0000c650       ?_Destroy@?$vector@V?$vector@HV?$allocator@H@std@@@std@@V?$allocator@V?$vector@HV?$allocator@H@std@@@std@@@2@@std@@IAEXPAV?$vector@HV?$allocator@H@std@@@2@0@Z 0040d650 f i Optimization.obj
 0001:0000c690       ?size@?$vector@VZapis@@V?$allocator@VZapis@@@std@@@std@@QBEIXZ 0040d690 f i Optimization.obj
 0001:0000c6c0       ?insert@?$vector@VZapis@@V?$allocator@VZapis@@@std@@@std@@QAEXPAVZapis@@IABV3@@Z 0040d6c0 f i Optimization.obj
 0001:0000c9e0       ?erase@?$vector@VZapis@@V?$allocator@VZapis@@@std@@@std@@QAEPAVZapis@@PAV3@0@Z 0040d9e0 f i Optimization.obj
 0001:0000ca30       ?_Ucopy@?$vector@V?$vector@VParSifraPresjek@@V?$allocator@VParSifraPresjek@@@std@@@std@@V?$allocator@V?$vector@VParSifraPresjek@@V?$allocator@VParSifraPresjek@@@std@@@std@@@2@@std@@IAEPAV?$vector@VParSifraPresjek@@V?$allocator@VParSifraPresjek@@@std@@@2@PBV32@0PAV32@@Z 0040da30 f i Optimization.obj
 0001:0000ca70       ?_Ufill@?$vector@V?$vector@VParSifraPresjek@@V?$allocator@VParSifraPresjek@@@std@@@std@@V?$allocator@V?$vector@VParSifraPresjek@@V?$allocator@VParSifraPresjek@@@std@@@std@@@2@@std@@IAEXPAV?$vector@VParSifraPresjek@@V?$allocator@VParSifraPresjek@@@std@@@2@IABV32@@Z 0040da70 f i Optimization.obj
 0001:0000caa0       ?_Ufill@?$vector@VParSifraPresjek@@V?$allocator@VParSifraPresjek@@@std@@@std@@IAEXPAVParSifraPresjek@@IABV3@@Z 0040daa0 f i Optimization.obj
 0001:0000caa0       ?_Ufill@?$vector@VParBrStudBrIsp@@V?$allocator@VParBrStudBrIsp@@@std@@@std@@IAEXPAVParBrStudBrIsp@@IABV3@@Z 0040daa0 f i Optimization.obj
 0001:0000cad0       ?fill@std@@YAXPAV?$vector@VParSifraPresjek@@V?$allocator@VParSifraPresjek@@@std@@@1@0ABV21@@Z 0040dad0 f i Optimization.obj
 0001:0000cc60       ?copy_backward@std@@YAPAV?$vector@VParSifraPresjek@@V?$allocator@VParSifraPresjek@@@std@@@1@PAV21@00@Z 0040dc60 f i Optimization.obj
 0001:0000ce00       ?_Construct@std@@YAXPAVParSifraPresjek@@ABV2@@Z 0040de00 f i Optimization.obj
 0001:0000ce50       ?CreateObject@COptRokDoc@@SGPAVCObject@@XZ 0040de50 f   OptRokDoc.obj
 0001:0000ceb0       ?GetRuntimeClass@COptRokDoc@@UBEPAUCRuntimeClass@@XZ 0040deb0 f   OptRokDoc.obj
 0001:0000cec0       ?GetMessageMap@COptRokDoc@@MBEPBUAFX_MSGMAP@@XZ 0040dec0 f   OptRokDoc.obj
 0001:0000ced0       ??0COptRokDoc@@IAE@XZ      0040ded0 f   OptRokDoc.obj
 0001:0000d3d0       ??_ECOptRokDoc@@UAEPAXI@Z  0040e3d0 f i OptRokDoc.obj
 0001:0000d3d0       ??_GCOptRokDoc@@UAEPAXI@Z  0040e3d0 f i OptRokDoc.obj
 0001:0000d3f0       ??1COptRokDoc@@UAE@XZ      0040e3f0 f   OptRokDoc.obj
 0001:0000d420       ?OnNewDocument@COptRokDoc@@UAEHXZ 0040e420 f   OptRokDoc.obj
 0001:0000d430       ?Serialize@COptRokDoc@@UAEXAAVCArchive@@@Z 0040e430 f   OptRokDoc.obj
 0001:0000dc50       ?OnPostaviParametreOptimizacije@COptRokDoc@@IAEXXZ 0040ec50 f   OptRokDoc.obj
 0001:0000de90       ?OnPostaviParametreRoka@COptRokDoc@@IAEXXZ 0040ee90 f   OptRokDoc.obj
 0001:0000dff0       ?OnOptimizacijaPokreni@COptRokDoc@@IAEXXZ 0040eff0 f   OptRokDoc.obj
 0001:0000e0d0       ?OnRezultatiPregledPoIspitima@COptRokDoc@@IAEXXZ 0040f0d0 f   OptRokDoc.obj
 0001:0000ec90       ?OnRezultatiPregledPoGrupamaPredmeta@COptRokDoc@@IAEXXZ 0040fc90 f   OptRokDoc.obj
 0001:0000fe10       ??_F?$vector@V?$vector@VParBrStudBrIsp@@V?$allocator@VParBrStudBrIsp@@@std@@@std@@V?$allocator@V?$vector@VParBrStudBrIsp@@V?$allocator@VParBrStudBrIsp@@@std@@@std@@@2@@std@@QAEXXZ 00410e10 f i OptRokDoc.obj
 0001:0000fe30       ?OnRezultatiPregledPoSemestrima@COptRokDoc@@IAEXXZ 00410e30 f   OptRokDoc.obj
 0001:00010810       ?OnRezultatiVizualniPrikaz@COptRokDoc@@IAEXXZ 00411810 f   OptRokDoc.obj
 0001:00010890       ?Zapisi@@YAXAAVCArchive@@VDate@@@Z 00411890 f   OptRokDoc.obj
 0001:00010910       ?Ucitaj@@YAXAAVCArchive@@AAVDate@@@Z 00411910 f   OptRokDoc.obj
 0001:000109a0       ?OnWriteAscii@COptRokDoc@@IAEXXZ 004119a0 f   OptRokDoc.obj
 0001:00010e40       ??6CArchive@@QAEAAV0@J@Z   00411e40 f i OptRokDoc.obj
 0001:00010e70       ?OnPregledIspitiIstiDan@COptRokDoc@@IAEXXZ 00411e70 f   OptRokDoc.obj
 0001:00010fe0       ??5CArchive@@QAEAAV0@AAJ@Z 00411fe0 f i OptRokDoc.obj
 0001:00011020       ?OnPregledIspunjavanjeZeljaProf@COptRokDoc@@IAEXXZ 00412020 f   OptRokDoc.obj
 0001:00011a60       ?DanIspita@COptRokDoc@@QAEHPAV1@HHW4TerminRoka@@@Z 00412a60 f   OptRokDoc.obj
 0001:00011b30       ?insert@?$vector@VParBrStudBrIsp@@V?$allocator@VParBrStudBrIsp@@@std@@@std@@QAEXPAVParBrStudBrIsp@@IABV3@@Z 00412b30 f i OptRokDoc.obj
 0001:00011b30       ?insert@?$vector@VParSifraPresjek@@V?$allocator@VParSifraPresjek@@@std@@@std@@QAEXPAVParSifraPresjek@@IABV3@@Z 00412b30 f i OptRokDoc.obj
 0001:00011db0       ?IsModified@CDocument@@UAEHXZ 00412db0 f i OptRokDoc.obj
 0001:00011dc0       ?SetModifiedFlag@CDocument@@UAEXH@Z 00412dc0 f i OptRokDoc.obj
 0001:00011dd0       ?GetMessageMap@COptRokApp@@MBEPBUAFX_MSGMAP@@XZ 00412dd0 f   OptRokova.obj
 0001:00011de0       ??0COptRokApp@@QAE@XZ      00412de0 f   OptRokova.obj
 0001:00011e00       ??_ECOptRokApp@@UAEPAXI@Z  00412e00 f i OptRokova.obj
 0001:00011e00       ??_GCOptRokApp@@UAEPAXI@Z  00412e00 f i OptRokova.obj
 0001:00011e20       ??1COptRokApp@@UAE@XZ      00412e20 f i OptRokova.obj
 0001:00011e70       ?InitInstance@COptRokApp@@UAEHXZ 00412e70 f   OptRokova.obj
 0001:00011f90       ??0CAboutDlg@@QAE@XZ       00412f90 f   OptRokova.obj
 0001:00011fb0       ??_GCAboutDlg@@UAEPAXI@Z   00412fb0 f i OptRokova.obj
 0001:00011fb0       ??_GCDlgParamOptimizacije@@UAEPAXI@Z 00412fb0 f i OptRokova.obj
 0001:00011fb0       ??_ECAboutDlg@@UAEPAXI@Z   00412fb0 f i OptRokova.obj
 0001:00011fb0       ??_ECDlgParamOptimizacije@@UAEPAXI@Z 00412fb0 f i OptRokova.obj
 0001:00011fd0       ?GetMessageMap@CAboutDlg@@MBEPBUAFX_MSGMAP@@XZ 00412fd0 f   OptRokova.obj
 0001:00011fe0       ?OnAppAbout@COptRokApp@@QAEXXZ 00412fe0 f   OptRokova.obj
 0001:00012070       ?CreateObject@COptRokView@@SGPAVCObject@@XZ 00413070 f   OptRokView.obj
 0001:000120d0       ?GetRuntimeClass@COptRokView@@UBEPAUCRuntimeClass@@XZ 004130d0 f   OptRokView.obj
 0001:000120e0       ?GetMessageMap@COptRokView@@MBEPBUAFX_MSGMAP@@XZ 004130e0 f   OptRokView.obj
 0001:000120f0       ??0COptRokView@@IAE@XZ     004130f0 f   OptRokView.obj
 0001:00012110       ??_GCOptRokView@@UAEPAXI@Z 00413110 f i OptRokView.obj
 0001:00012110       ??_ECOptRokView@@UAEPAXI@Z 00413110 f i OptRokView.obj
 0001:00012130       ??1COptRokView@@UAE@XZ     00413130 f   OptRokView.obj
 0001:00012140       ?PreCreateWindow@COptRokView@@UAEHAAUtagCREATESTRUCTA@@@Z 00413140 f   OptRokView.obj
 0001:00012150       ?OnDraw@COptRokView@@UAEXPAVCDC@@@Z 00413150 f   OptRokView.obj
 0001:00012150       ?DoDataExchange@CAboutDlg@@MAEXPAVCDataExchange@@@Z 00413150 f   OptRokView.obj
 0001:00012160       ?OnPreparePrinting@COptRokView@@MAEHPAUCPrintInfo@@@Z 00413160 f   OptRokView.obj
 0001:00012170       ?OnEndPrinting@COptRokView@@MAEXPAVCDC@@PAUCPrintInfo@@@Z 00413170 f   OptRokView.obj
 0001:00012170       ?OnBeginPrinting@COptRokView@@MAEXPAVCDC@@PAUCPrintInfo@@@Z 00413170 f   OptRokView.obj
 0001:00012210       ?CreateObject@CScrollbar@@SGPAVCObject@@XZ 00413210 f   scrollbar.obj
 0001:00012260       ?GetRuntimeClass@CScrollbar@@UBEPAUCRuntimeClass@@XZ 00413260 f   scrollbar.obj
 0001:00012270       ?GetValue@CScrollbar@@QAEJXZ 00413270 f   scrollbar.obj
 0001:00012290       ?SetMin@CScrollbar@@QAEXJ@Z 00413290 f   scrollbar.obj
 0001:000122b0       ?SetMax@CScrollbar@@QAEXJ@Z 004132b0 f   scrollbar.obj
 0001:000122d0       ?SetSmallChange@CScrollbar@@QAEXJ@Z 004132d0 f   scrollbar.obj
 0001:000122f0       ?SetLargeChange@CScrollbar@@QAEXJ@Z 004132f0 f   scrollbar.obj
 0001:000123f0       ?AfxGetMainWnd@@YGPAVCWnd@@XZ 004133f0 f i nafxcw:dlgcore.obj
 0001:00012404       ??_9@$BME@AE               00413404 f i nafxcw:dlgcore.obj
 0001:0001240c       ??_9@$BMI@AE               0041340c f i nafxcw:dlgcore.obj
 0001:00012414       _InitMultipleMonitorStubs  00413414 f   nafxcw:wincore.obj
 0001:000124ec       _xMonitorFromRect@8        004134ec f   nafxcw:wincore.obj
 0001:00012542       _xMonitorFromWindow@8      00413542 f   nafxcw:wincore.obj
 0001:000125ad       _xGetMonitorInfo@8         004135ad f   nafxcw:wincore.obj
 0001:00012640       ?GetOwner@CWnd@@QBEPAV1@XZ 00413640 f i nafxcw:wincore.obj
 0001:00012657       ??1CWaitCursor@@QAE@XZ     00413657 f i nafxcw:wincore.obj
 0001:00012664       ??_GCRgn@@UAEPAXI@Z        00413664 f i nafxcw:winctrl2.obj
 0001:00012664       ??_ECRgn@@UAEPAXI@Z        00413664 f i nafxcw:winctrl2.obj
 0001:00012680       ??1CRgn@@UAE@XZ            00413680 f i nafxcw:winctrl2.obj
 0001:000126a9       ?CreateControl@CWnd@@QAEHABU_GUID@@PBDKABUtagRECT@@PAV1@IPAVCFile@@HPAG@Z 004136a9 f   nafxcw:occcont.obj
 0001:00012707       ?CreateControl@CWnd@@QAEHABU_GUID@@PBDKPBUtagPOINT@@PBUtagSIZE@@PAV1@IPAVCFile@@HPAG@Z 00413707 f   nafxcw:occcont.obj
 0001:00012750       ?InitControlContainer@CWnd@@IAEHXZ 00413750 f   nafxcw:occcont.obj
 0001:000127f9       ?GetInterfaceMap@COleControlContainer@@MBEPBUAFX_INTERFACEMAP@@XZ 004137f9 f   nafxcw:occcont.obj
 0001:000127ff       ?GetDispatchMap@COleControlContainer@@MBEPBUAFX_DISPMAP@@XZ 004137ff f   nafxcw:occcont.obj
 0001:00012805       ??0COleControlContainer@@QAE@PAVCWnd@@@Z 00413805 f   nafxcw:occcont.obj
 0001:00012864       ??_GCOleControlContainer@@UAEPAXI@Z 00413864 f i nafxcw:occcont.obj
 0001:00012864       ??_ECOleControlContainer@@UAEPAXI@Z 00413864 f i nafxcw:occcont.obj
 0001:00012880       ??1COleControlContainer@@UAE@XZ 00413880 f   nafxcw:occcont.obj
 0001:0001295e       ?CreateControl@COleControlContainer@@QAEHPAVCWnd@@ABU_GUID@@PBDKABUtagRECT@@IPAVCFile@@HPAGPAPAVCOleControlSite@@@Z 0041395e f   nafxcw:occcont.obj
 0001:000129bf       ?CreateControl@COleControlContainer@@QAEHPAVCWnd@@ABU_GUID@@PBDKPBUtagPOINT@@PBUtagSIZE@@IPAVCFile@@HPAGPAPAVCOleControlSite@@@Z 004139bf f   nafxcw:occcont.obj
 0001:00012a7a       ?FindItem@COleControlContainer@@UBEPAVCOleControlSite@@I@Z 00413a7a f   nafxcw:occcont.obj
 0001:00012ac4       ?GetAmbientProp@COleControlContainer@@UAEHPAVCOleControlSite@@JPAUtagVARIANT@@@Z 00413ac4 f   nafxcw:occcont.obj
 0001:00012ccc       ?CreateOleFont@COleControlContainer@@QAEXPAVCFont@@@Z 00413ccc f   nafxcw:occcont.obj
 0001:00012e45       ?FreezeAllEvents@COleControlContainer@@QAEXH@Z 00413e45 f   nafxcw:occcont.obj
 0001:00012e86       ?ScrollChildren@COleControlContainer@@UAEXHH@Z 00413e86 f   nafxcw:occcont.obj
 0001:00012ee0       ?OnUIActivate@COleControlContainer@@UAEXPAVCOleControlSite@@@Z 00413ee0 f   nafxcw:occcont.obj
 0001:00012efe       ?OnUIDeactivate@COleControlContainer@@UAEXPAVCOleControlSite@@@Z 00413efe f   nafxcw:occcont.obj
 0001:00012f0e       ?CheckDlgButton@COleControlContainer@@UAEXHI@Z 00413f0e f   nafxcw:occcont.obj
 0001:00012f4b       ?CheckRadioButton@COleControlContainer@@UAEXHHH@Z 00413f4b f   nafxcw:occcont.obj
 0001:00012f73       ?GetDlgItem@COleControlContainer@@UBEPAVCWnd@@H@Z 00413f73 f   nafxcw:occcont.obj
 0001:00012f8e       ?GetDlgItem@COleControlContainer@@UBEXHPAPAUHWND__@@@Z 00413f8e f   nafxcw:occcont.obj
 0001:00012fca       ?GetDlgItemInt@COleControlContainer@@UBEIHPAHH@Z 00413fca f   nafxcw:occcont.obj
 0001:00013078       ?GetDlgItemTextA@COleControlContainer@@UBEHHPADH@Z 00414078 f   nafxcw:occcont.obj
 0001:00013097       ?SendDlgItemMessageA@COleControlContainer@@UAEJHIIJ@Z 00414097 f   nafxcw:occcont.obj
 0001:000130bc       ?SetDlgItemInt@COleControlContainer@@UAEXHIH@Z 004140bc f   nafxcw:occcont.obj
 0001:000130f9       ?SetDlgItemTextA@COleControlContainer@@UAEXHPBD@Z 004140f9 f   nafxcw:occcont.obj
 0001:00013114       ?IsDlgButtonChecked@COleControlContainer@@UBEIH@Z 00414114 f   nafxcw:occcont.obj
 0001:00013190       ?QueryInterface@XOleIPFrame@COleControlContainer@@UAGJABU_GUID@@PAPAX@Z 00414190 f   nafxcw:occcont.obj
 0001:000131a7       ?AddRef@XOleIPFrame@COleControlContainer@@UAGKXZ 004141a7 f   nafxcw:occcont.obj
 0001:000131b8       ?Release@XOleIPFrame@COleControlContainer@@UAGKXZ 004141b8 f   nafxcw:occcont.obj
 0001:000131c7       ?GetWindow@XOleIPFrame@COleControlContainer@@UAGJPAPAUHWND__@@@Z 004141c7 f   nafxcw:occcont.obj
 0001:000131dc       ?SetActiveObject@XOleIPFrame@COleControlContainer@@UAGJPAUIOleInPlaceActiveObject@@PBG@Z 004141dc f   nafxcw:occcont.obj
 0001:00013213       ?OnShowWindow@XOleClientSite@COleControlSite@@UAGJH@Z 00414213 f   nafxcw:occcont.obj
 0001:00013213       ?EnableModeless@XOleIPFrame@COleControlContainer@@UAGJH@Z 00414213 f   nafxcw:occcont.obj
 0001:00013213       ?OnFocus@XOleControlSite@COleControlSite@@UAGJH@Z 00414213 f   nafxcw:occcont.obj
 0001:00013218       ?TranslateAcceleratorA@XOleIPFrame@COleControlContainer@@UAGJPAUtagMSG@@G@Z 00414218 f   nafxcw:occcont.obj
 0001:00013218       ?TranslateAcceleratorA@XOleControlSite@COleControlSite@@UAGJPAUtagMSG@@K@Z 00414218 f   nafxcw:occcont.obj
 0001:00013218       ?InsertMenus@XOleIPFrame@COleControlContainer@@UAGJPAUHMENU__@@PAUtagOleMenuGroupWidths@@@Z 00414218 f   nafxcw:occcont.obj
 0001:00013220       ?GetInterfaceMap@CEnumUnknown@@MBEPBUAFX_INTERFACEMAP@@XZ 00414220 f   nafxcw:occcont.obj
 0001:00013226       ??1CEnumUnknown@@UAE@XZ    00414226 f   nafxcw:occcont.obj
 0001:0001327c       ??_ECEnumUnknown@@UAEPAXI@Z 0041427c f i nafxcw:occcont.obj
 0001:0001327c       ??_GCEnumUnknown@@UAEPAXI@Z 0041427c f i nafxcw:occcont.obj
 0001:00013298       ?OnNext@CEnumUnknown@@MAEHPAX@Z 00414298 f   nafxcw:occcont.obj
 0001:000132b6       ?QueryInterface@XOleContainer@COleControlContainer@@UAGJABU_GUID@@PAPAX@Z 004142b6 f   nafxcw:occcont.obj
 0001:000132cd       ?Release@XOleContainer@COleControlContainer@@UAGKXZ 004142cd f   nafxcw:occcont.obj
 0001:000132dc       ?AddRef@XOleContainer@COleControlContainer@@UAGKXZ 004142dc f   nafxcw:occcont.obj
 0001:000132ed       ?ParseDisplayName@XOleContainer@COleControlContainer@@UAGJPAUIBindCtx@@PAGPAKPAPAUIMoniker@@@Z 004142ed f   nafxcw:occcont.obj
 0001:000132f5       ?EnumObjects@XOleContainer@COleControlContainer@@UAGJKPAPAUIEnumUnknown@@@Z 004142f5 f   nafxcw:occcont.obj
 0001:00013403       ?GetFont@CWnd@@QBEPAVCFont@@XZ 00414403 f i nafxcw:occcont.obj
 0001:00013419       ??0CResourceException@@QAE@HI@Z 00414419 f i nafxcw:wingdi.obj
 0001:00013443       ??_GCResourceException@@UAEPAXI@Z 00414443 f i nafxcw:wingdi.obj
 0001:00013443       ??_ECResourceException@@UAEPAXI@Z 00414443 f i nafxcw:wingdi.obj
 0001:0001345f       ??1CResourceException@@UAE@XZ 0041445f f i nafxcw:wingdi.obj
 0001:00013466       ??0CUserException@@QAE@HI@Z 00414466 f i nafxcw:wingdi.obj
 0001:00013490       ??_GCUserException@@UAEPAXI@Z 00414490 f i nafxcw:wingdi.obj
 0001:00013490       ??_ECUserException@@UAEPAXI@Z 00414490 f i nafxcw:wingdi.obj
 0001:000134ac       ??1CUserException@@UAE@XZ  004144ac f i nafxcw:wingdi.obj
 0001:000134b3       ??_ECPen@@UAEPAXI@Z        004144b3 f i nafxcw:wingdi.obj
 0001:000134b3       ??_GCPen@@UAEPAXI@Z        004144b3 f i nafxcw:wingdi.obj
 0001:000134cf       ??1CPen@@UAE@XZ            004144cf f i nafxcw:wingdi.obj
 0001:000134f8       ??_ECBrush@@UAEPAXI@Z      004144f8 f i nafxcw:wingdi.obj
 0001:000134f8       ??_GCBrush@@UAEPAXI@Z      004144f8 f i nafxcw:wingdi.obj
 0001:00013514       ??1CBrush@@UAE@XZ          00414514 f i nafxcw:wingdi.obj
 0001:0001353d       ?PtVisible@CDC@@UBEHHH@Z   0041453d f i nafxcw:wingdi.obj
 0001:00013551       ?RectVisible@CDC@@UBEHPBUtagRECT@@@Z 00414551 f i nafxcw:wingdi.obj
 0001:00013561       ?TextOutA@CDC@@UAEHHHPBDH@Z 00414561 f i nafxcw:wingdi.obj
 0001:0001357d       ?ExtTextOutA@CDC@@UAEHHHIPBUtagRECT@@PBDIPAH@Z 0041457d f i nafxcw:wingdi.obj
 0001:000135a2       ?TabbedTextOutA@CDC@@UAE?AVCSize@@HHPBDHHPAHH@Z 004145a2 f i nafxcw:wingdi.obj
 0001:000135da       ?DrawTextA@CDC@@UAEHPBDHPAUtagRECT@@I@Z 004145da f i nafxcw:wingdi.obj
 0001:000135f6       ?GrayStringA@CDC@@UAEHPAVCBrush@@P6GHPAUHDC__@@JH@ZJHHHHH@Z 004145f6 f i nafxcw:wingdi.obj
 0001:00013626       ?Escape@CDC@@UAEHHHPBDPAX@Z 00414626 f i nafxcw:wingdi.obj
 0001:00013642       ??1CMonthCalCtrl@@UAE@XZ   00414642 f   nafxcw:winctrl5.obj
 0001:0001367a       ??1CPushRoutingFrame@@QAE@XZ 0041467a f i nafxcw:winfrm.obj
 0001:00013686       ??_GCFileException@@UAEPAXI@Z 00414686 f i nafxcw:doccore.obj
 0001:00013686       ??_ECFileException@@UAEPAXI@Z 00414686 f i nafxcw:doccore.obj
 0001:000136a2       ??1CFileException@@UAE@XZ  004146a2 f i nafxcw:doccore.obj
 0001:000136ce       ?SetFilePath@CFile@@UAEXPBD@Z 004146ce f i nafxcw:doccore.obj
 0001:000136fe       ??1?$CProcessLocal@VCOccManager@@@@QAE@XZ 004146fe f i nafxcw:occmgr.obj
 0001:00013703       ?AfxEnableControlContainer@@YAXPAVCOccManager@@@Z 00414703 f   nafxcw:occmgr.obj
 0001:0001372a       ?_AfxFindFirstDlgItem@@YGPAUDLGITEMTEMPLATE@@PBUDLGTEMPLATE@@@Z 0041472a f   nafxcw:occmgr.obj
 0001:000137b0       ?_AfxFindNextDlgItem@@YGPAUDLGITEMTEMPLATE@@PAU1@H@Z 004147b0 f   nafxcw:occmgr.obj
 0001:00013804       ?OnEvent@COccManager@@UAEHPAVCCmdTarget@@IPAUAFX_EVENT@@PAUAFX_CMDHANDLERINFO@@@Z 00414804 f   nafxcw:occmgr.obj
 0001:0001381c       ?CreateContainer@COccManager@@UAEPAVCOleControlContainer@@PAVCWnd@@@Z 0041481c f   nafxcw:occmgr.obj
 0001:00013853       ?CreateSite@COccManager@@UAEPAVCOleControlSite@@PAVCOleControlContainer@@@Z 00414853 f   nafxcw:occmgr.obj
 0001:0001388d       ?PreCreateDialog@COccManager@@UAEPBUDLGTEMPLATE@@PAU_AFX_OCC_DIALOG_INFO@@PBU2@@Z 0041488d f   nafxcw:occmgr.obj
 0001:000138d7       ?PostCreateDialog@COccManager@@UAEXPAU_AFX_OCC_DIALOG_INFO@@@Z 004148d7 f   nafxcw:occmgr.obj
 0001:000138fb       ?SplitDialogTemplate@COccManager@@UAEPAUDLGTEMPLATE@@PBU2@PAPAUDLGITEMTEMPLATE@@@Z 004148fb f   nafxcw:occmgr.obj
 0001:00013a3a       ?CreateDlgControls@COccManager@@UAEHPAVCWnd@@PBDPAU_AFX_OCC_DIALOG_INFO@@@Z 00414a3a f   nafxcw:occmgr.obj
 0001:00013a95       ?CreateDlgControls@COccManager@@UAEHPAVCWnd@@PAXPAU_AFX_OCC_DIALOG_INFO@@@Z 00414a95 f   nafxcw:occmgr.obj
 0001:00013bf0       ?BindControls@COccManager@@IAEXPAVCWnd@@@Z 00414bf0 f   nafxcw:occmgr.obj
 0001:00013d0b       ?CreateDlgControl@COccManager@@IAEPAUHWND__@@PAVCWnd@@PAU2@HPAUDLGITEMTEMPLATE@@GPAEK@Z 00414d0b f   nafxcw:occmgr.obj
 0001:00013fd6       ?CreateObject@?$CProcessLocal@VCOccManager@@@@SGPAVCNoTrackObject@@XZ 00414fd6 f i nafxcw:occmgr.obj
 0001:00013feb       ??_GCOccManager@@UAEPAXI@Z 00414feb f i nafxcw:occmgr.obj
 0001:00013feb       ??_ECOccManager@@UAEPAXI@Z 00414feb f i nafxcw:occmgr.obj
 0001:00014006       ??1CCommonDialog@@UAE@XZ   00415006 f i nafxcw:viewprnt.obj
 0001:0001400b       ??_9@$BOA@AE               0041500b f i nafxcw:viewcore.obj
 0001:00014013       ??1CPushRoutingView@@QAE@XZ 00415013 f i nafxcw:viewcore.obj
 0001:0001401f       ??0CMemoryException@@QAE@HI@Z 0041501f f i nafxcw:except.obj
 0001:00014049       ??_GCMemoryException@@UAEPAXI@Z 00415049 f i nafxcw:except.obj
 0001:00014049       ??_ECMemoryException@@UAEPAXI@Z 00415049 f i nafxcw:except.obj
 0001:00014065       ??1CMemoryException@@UAE@XZ 00415065 f i nafxcw:except.obj
 0001:0001406c       ??0CNotSupportedException@@QAE@HI@Z 0041506c f i nafxcw:except.obj
 0001:00014096       ??_ECNotSupportedException@@UAEPAXI@Z 00415096 f i nafxcw:except.obj
 0001:00014096       ??_GCNotSupportedException@@UAEPAXI@Z 00415096 f i nafxcw:except.obj
 0001:000140b2       ??1CNotSupportedException@@UAE@XZ 004150b2 f i nafxcw:except.obj
 0001:000140b9       ??_ECHandleMap@@UAEPAXI@Z  004150b9 f i nafxcw:winhand.obj
 0001:000140b9       ??_GCHandleMap@@UAEPAXI@Z  004150b9 f i nafxcw:winhand.obj
 0001:000140d5       ??1CHandleMap@@UAE@XZ      004150d5 f i nafxcw:winhand.obj
 0001:0001411d       ??_GCMenu@@UAEPAXI@Z       0041511d f i nafxcw:winmenu.obj
 0001:0001411d       ??_ECMenu@@UAEPAXI@Z       0041511d f i nafxcw:winmenu.obj
 0001:00014139       ??1CMenu@@UAE@XZ           00415139 f i nafxcw:winmenu.obj
 0001:00014162       ??0CFixedAlloc@@QAE@II@Z   00415162 f   nafxcw:fixalloc.obj
 0001:0001418a       ??1CFixedAlloc@@QAE@XZ     0041518a f   nafxcw:fixalloc.obj
 0001:0001419e       ?FreeAll@CFixedAlloc@@QAEXXZ 0041519e f   nafxcw:fixalloc.obj
 0001:000141c6       ?Alloc@CFixedAlloc@@QAEPAXXZ 004151c6 f   nafxcw:fixalloc.obj
 0001:00014255       ?Free@CFixedAlloc@@QAEXPAX@Z 00415255 f   nafxcw:fixalloc.obj
 0001:00014281       ??0CGdiObject@@QAE@XZ      00415281 f i nafxcw:wingdix.obj
 0001:0001428e       ?GetInterfaceMap@COleControlSite@@MBEPBUAFX_INTERFACEMAP@@XZ 0041528e f   nafxcw:occsite.obj
 0001:00014294       ??0COleControlSite@@QAE@PAVCOleControlContainer@@@Z 00415294 f   nafxcw:occsite.obj
 0001:0001439b       ??_ECOleControlSite@@UAEPAXI@Z 0041539b f i nafxcw:occsite.obj
 0001:0001439b       ??_GCOleControlSite@@UAEPAXI@Z 0041539b f i nafxcw:occsite.obj
 0001:000143b7       ??1COleControlSite@@UAE@XZ 004153b7 f   nafxcw:occsite.obj
 0001:000144e3       ?SetExtent@COleControlSite@@IAEHXZ 004154e3 f   nafxcw:occsite.obj
 0001:0001458b       ?CreateControl@COleControlSite@@QAEJPAVCWnd@@ABU_GUID@@PBDKPBUtagPOINT@@PBUtagSIZE@@IPAVCFile@@HPAG@Z 0041558b f   nafxcw:occsite.obj
 0001:00014828       ?DestroyControl@COleControlSite@@UAEHXZ 00415828 f   nafxcw:occsite.obj
 0001:00014857       ?_AfxCoCreateInstanceLic@@YGJABU_GUID@@PAUIUnknown@@K0PAPAXPAG@Z 00415857 f   nafxcw:occsite.obj
 0001:000148e4       ?QuickActivate@COleControlSite@@UAEHXZ 004158e4 f   nafxcw:occsite.obj
 0001:00014a85       ?CreateOrLoad@COleControlSite@@IAEJABU_GUID@@PAVCFile@@HPAG@Z 00415a85 f   nafxcw:occsite.obj
 0001:00014d8f       ?GetID@COleControlSite@@QAEIXZ 00415d8f f   nafxcw:occsite.obj
 0001:00014d8f       ?GetDlgCtrlID@COleControlSite@@UBEHXZ 00415d8f f   nafxcw:occsite.obj
 0001:00014d93       ?DoVerb@COleControlSite@@UAEJJPAUtagMSG@@@Z 00415d93 f   nafxcw:occsite.obj
 0001:00014dbf       ?IsDefaultButton@COleControlSite@@QAEHXZ 00415dbf f   nafxcw:occsite.obj
 0001:00014dd0       ?GetDefBtnCode@COleControlSite@@QAEKXZ 00415dd0 f   nafxcw:occsite.obj
 0001:00014de8       ?SetDefaultButton@COleControlSite@@QAEXH@Z 00415de8 f   nafxcw:occsite.obj
 0001:00014e38       ?ConnectSink@COleControlSite@@IAEKABU_GUID@@PAUIUnknown@@@Z 00415e38 f   nafxcw:occsite.obj
 0001:00014ea0       ?DisconnectSink@COleControlSite@@IAEXABU_GUID@@K@Z 00415ea0 f   nafxcw:occsite.obj
 0001:00014efe       ?GetEventIID@COleControlSite@@QAEHPAU_GUID@@@Z 00415efe f   nafxcw:occsite.obj
 0001:00015078       ?GetControlInfo@COleControlSite@@QAEXXZ 00416078 f   nafxcw:occsite.obj
 0001:000150c6       ?IsMatchingMnemonic@COleControlSite@@QAEHPAUtagMSG@@@Z 004160c6 f   nafxcw:occsite.obj
 0001:00015169       ?SendMnemonic@COleControlSite@@QAEXPAUtagMSG@@@Z 00416169 f   nafxcw:occsite.obj
 0001:000151b1       ?FreezeEvents@COleControlSite@@QAEXH@Z 004161b1 f   nafxcw:occsite.obj
 0001:000151e7       ?AttachWindow@COleControlSite@@IAEXXZ 004161e7 f   nafxcw:occsite.obj
 0001:00015224       ?DetachWindow@COleControlSite@@IAEXXZ 00416224 f   nafxcw:occsite.obj
 0001:00015272       ?OnEvent@COleControlSite@@IAEHPAUAFX_EVENT@@@Z 00416272 f   nafxcw:occsite.obj
 0001:000152af       ?InvokeHelperV@COleControlSite@@UAEXJGGPAXPBEPAD@Z 004162af f   nafxcw:occsite.obj
 0001:00015305       ?SetPropertyV@COleControlSite@@UAEXJGPAD@Z 00416305 f   nafxcw:occsite.obj
 0001:00015360       ?InvokeHelper@COleControlSite@@UAAXJGGPAXPBEZZ 00416360 f   nafxcw:occsite.obj
 0001:00015380       ?GetProperty@COleControlSite@@UBEXJGPAX@Z 00416380 f   nafxcw:occsite.obj
 0001:0001539c       ?SetProperty@COleControlSite@@UAAXJGZZ 0041639c f   nafxcw:occsite.obj
 0001:000153b3       ?SafeSetProperty@COleControlSite@@UAAHJGZZ 004163b3 f   nafxcw:occsite.obj
 0001:00015406       ?GetStyle@COleControlSite@@UBEKXZ 00416406 f   nafxcw:occsite.obj
 0001:000154bc       ?GetExStyle@COleControlSite@@UBEKXZ 004164bc f   nafxcw:occsite.obj
 0001:00015524       ?ModifyStyle@COleControlSite@@UAEHKKI@Z 00416524 f   nafxcw:occsite.obj
 0001:000155b4       ?ModifyStyleEx@COleControlSite@@UAEHKKI@Z 004165b4 f   nafxcw:occsite.obj
 0001:00015604       ?SetWindowTextA@COleControlSite@@UAEXPBD@Z 00416604 f   nafxcw:occsite.obj
 0001:00015637       ?GetWindowTextA@COleControlSite@@UBEXAAVCString@@@Z 00416637 f   nafxcw:occsite.obj
 0001:000156a6       ?GetWindowTextA@COleControlSite@@UBEHPADH@Z 004166a6 f   nafxcw:occsite.obj
 0001:00015701       ?GetWindowTextLengthA@COleControlSite@@UBEHXZ 00416701 f   nafxcw:occsite.obj
 0001:00015746       ?SetDlgCtrlID@COleControlSite@@UAEHH@Z 00416746 f   nafxcw:occsite.obj
 0001:00015753       ?MoveWindow@COleControlSite@@UAEXHHHHH@Z 00416753 f   nafxcw:occsite.obj
 0001:000157cd       ?SetWindowPos@COleControlSite@@UAEHPBVCWnd@@HHHHI@Z 004167cd f   nafxcw:occsite.obj
 0001:00015882       ?ShowWindow@COleControlSite@@UAEHH@Z 00416882 f   nafxcw:occsite.obj
 0001:000158c1       ?IsWindowEnabled@COleControlSite@@UBEHXZ 004168c1 f   nafxcw:occsite.obj
 0001:0001590f       ?EnableWindow@COleControlSite@@UAEHH@Z 0041690f f   nafxcw:occsite.obj
 0001:00015978       ?SetFocus@COleControlSite@@UAEPAVCWnd@@XZ 00416978 f   nafxcw:occsite.obj
 0001:000159b1       ?EnableDSC@COleControlSite@@UAEXXZ 004169b1 f   nafxcw:occsite.obj
 0001:00015a05       ?BindDefaultProperty@COleControlSite@@UAEXJGPBDPAVCWnd@@@Z 00416a05 f   nafxcw:occsite.obj
 0001:00015aa7       ?BindProperty@COleControlSite@@UAEXJPAVCWnd@@@Z 00416aa7 f   nafxcw:occsite.obj
 0001:00015bbd       ?AddRef@XOleClientSite@COleControlSite@@UAGKXZ 00416bbd f   nafxcw:occsite.obj
 0001:00015bd0       ?Release@XOleClientSite@COleControlSite@@UAGKXZ 00416bd0 f   nafxcw:occsite.obj
 0001:00015be2       ?QueryInterface@XOleClientSite@COleControlSite@@UAGJABU_GUID@@PAPAX@Z 00416be2 f   nafxcw:occsite.obj
 0001:00015bfc       ?SaveObject@XOleClientSite@COleControlSite@@UAGJXZ 00416bfc f   nafxcw:occsite.obj
 0001:00015bfc       ?ShowPropertyFrame@XOleControlSite@COleControlSite@@UAGJXZ 00416bfc f   nafxcw:occsite.obj
 0001:00015bfc       ?RequestNewObjectLayout@XOleClientSite@COleControlSite@@UAGJXZ 00416bfc f   nafxcw:occsite.obj
 0001:00015c04       ?GetTypeInfo@XAmbientProps@COleControlSite@@UAGJIKPAPAUITypeInfo@@@Z 00416c04 f   nafxcw:occsite.obj
 0001:00015c04       ?GetMoniker@XOleClientSite@COleControlSite@@UAGJKKPAPAUIMoniker@@@Z 00416c04 f   nafxcw:occsite.obj
 0001:00015c04       ?SetMenu@XOleIPFrame@COleControlContainer@@UAGJPAUHMENU__@@PAXPAUHWND__@@@Z 00416c04 f   nafxcw:occsite.obj
 0001:00015c04       ?GetTypeInfo@XEventSink@COleControlSite@@UAGJIKPAPAUITypeInfo@@@Z 00416c04 f   nafxcw:occsite.obj
 0001:00015c0c       ?GetContainer@XOleClientSite@COleControlSite@@UAGJPAPAUIOleContainer@@@Z 00416c0c f   nafxcw:occsite.obj
 0001:00015c27       ?ShowObject@XOleClientSite@COleControlSite@@UAGJXZ 00416c27 f   nafxcw:occsite.obj
 0001:00015c3b       ?AddRef@XOleIPSite@COleControlSite@@UAGKXZ 00416c3b f   nafxcw:occsite.obj
 0001:00015c4e       ?Release@XOleIPSite@COleControlSite@@UAGKXZ 00416c4e f   nafxcw:occsite.obj
 0001:00015c60       ?QueryInterface@XOleIPSite@COleControlSite@@UAGJABU_GUID@@PAPAX@Z 00416c60 f   nafxcw:occsite.obj
 0001:00015c7a       ?GetWindow@XOleIPSite@COleControlSite@@UAGJPAPAUHWND__@@@Z 00416c7a f   nafxcw:occsite.obj
 0001:00015ca5       ?SetBorderSpace@XOleIPFrame@COleControlContainer@@UAGJPBUtagRECT@@@Z 00416ca5 f   nafxcw:occsite.obj
 0001:00015ca5       ?LockInPlaceActive@XOleControlSite@COleControlSite@@UAGJH@Z 00416ca5 f   nafxcw:occsite.obj
 0001:00015ca5       ?GetTypeInfoCount@XAmbientProps@COleControlSite@@UAGJPAI@Z 00416ca5 f   nafxcw:occsite.obj
 0001:00015ca5       ?GetExtendedControl@XOleControlSite@COleControlSite@@UAGJPAPAUIDispatch@@@Z 00416ca5 f   nafxcw:occsite.obj
 0001:00015ca5       ?GetBorder@XOleIPFrame@COleControlContainer@@UAGJPAUtagRECT@@@Z 00416ca5 f   nafxcw:occsite.obj
 0001:00015ca5       ?RequestBorderSpace@XOleIPFrame@COleControlContainer@@UAGJPBUtagRECT@@@Z 00416ca5 f   nafxcw:occsite.obj
 0001:00015ca5       ?SetStatusText@XOleIPFrame@COleControlContainer@@UAGJPBG@Z 00416ca5 f   nafxcw:occsite.obj
 0001:00015ca5       ?RemoveMenus@XOleIPFrame@COleControlContainer@@UAGJPAUHMENU__@@@Z 00416ca5 f   nafxcw:occsite.obj
 0001:00015ca5       ?LockContainer@XOleContainer@COleControlContainer@@UAGJH@Z 00416ca5 f   nafxcw:occsite.obj
 0001:00015ca5       ?GetTypeInfoCount@XEventSink@COleControlSite@@UAGJPAI@Z 00416ca5 f   nafxcw:occsite.obj
 0001:00015ca5       ?ContextSensitiveHelp@XOleIPFrame@COleControlContainer@@UAGJH@Z 00416ca5 f   nafxcw:occsite.obj
 0001:00015ca5       ?ContextSensitiveHelp@XOleIPSite@COleControlSite@@UAGJH@Z 00416ca5 f   nafxcw:occsite.obj
 0001:00015cad       ?OnUIActivate@XOleIPSite@COleControlSite@@UAGJXZ 00416cad f   nafxcw:occsite.obj
 0001:00015cc4       ?GetWindowContext@XOleIPSite@COleControlSite@@UAGJPAPAUIOleInPlaceFrame@@PAPAUIOleInPlaceUIWindow@@PAUtagRECT@@2PAUtagOIFI@@@Z 00416cc4 f   nafxcw:occsite.obj
 0001:00015d3c       ?Scroll@XOleIPSite@COleControlSite@@UAGJUtagSIZE@@@Z 00416d3c f   nafxcw:occsite.obj
 0001:00015d42       ?OnUIDeactivate@XOleIPSite@COleControlSite@@UAGJH@Z 00416d42 f   nafxcw:occsite.obj
 0001:00015d59       ?OnInPlaceDeactivate@XOleIPSite@COleControlSite@@UAGJXZ 00416d59 f   nafxcw:occsite.obj
 0001:00015d6d       ?Release@XNotifyDBEvents@COleControlSite@@UAGKXZ 00416d6d f   nafxcw:occsite.obj
 0001:00015d6d       ?Release@XRowsetNotify@COleControlSite@@UAGKXZ 00416d6d f   nafxcw:occsite.obj
 0001:00015d6d       ?Release@XEventSink@COleControlSite@@UAGKXZ 00416d6d f   nafxcw:occsite.obj
 0001:00015d6d       ?OnInPlaceActivate@XOleIPSite@COleControlSite@@UAGJXZ 00416d6d f   nafxcw:occsite.obj
 0001:00015d6d       ?DiscardUndoState@XOleIPSite@COleControlSite@@UAGJXZ 00416d6d f   nafxcw:occsite.obj
 0001:00015d6d       ?Release@XPropertyNotifySink@COleControlSite@@UAGKXZ 00416d6d f   nafxcw:occsite.obj
 0001:00015d6d       ?CanInPlaceActivate@XOleIPSite@COleControlSite@@UAGJXZ 00416d6d f   nafxcw:occsite.obj
 0001:00015d72       ?DeactivateAndUndo@XOleIPSite@COleControlSite@@UAGJXZ 00416d72 f   nafxcw:occsite.obj
 0001:00015d84       ?OnPosRectChange@XOleIPSite@COleControlSite@@UAGJPBUtagRECT@@@Z 00416d84 f   nafxcw:occsite.obj
 0001:00015dd7       ?AddRef@XOleControlSite@COleControlSite@@UAGKXZ 00416dd7 f   nafxcw:occsite.obj
 0001:00015dea       ?Release@XOleControlSite@COleControlSite@@UAGKXZ 00416dea f   nafxcw:occsite.obj
 0001:00015dfc       ?QueryInterface@XOleControlSite@COleControlSite@@UAGJABU_GUID@@PAPAX@Z 00416dfc f   nafxcw:occsite.obj
 0001:00015e16       ?OnControlInfoChanged@XOleControlSite@COleControlSite@@UAGJXZ 00416e16 f   nafxcw:occsite.obj
 0001:00015e2a       ?TransformCoords@XOleControlSite@COleControlSite@@UAGJPAU_POINTL@@PAUtagPOINTF@@K@Z 00416e2a f   nafxcw:occsite.obj
 0001:00015f2c       ?AddRef@XAmbientProps@COleControlSite@@UAGKXZ 00416f2c f   nafxcw:occsite.obj
 0001:00015f3f       ?Release@XAmbientProps@COleControlSite@@UAGKXZ 00416f3f f   nafxcw:occsite.obj
 0001:00015f51       ?QueryInterface@XAmbientProps@COleControlSite@@UAGJABU_GUID@@PAPAX@Z 00416f51 f   nafxcw:occsite.obj
 0001:00015f6b       ?Invoke@XAmbientProps@COleControlSite@@UAGJJABU_GUID@@KGPAUtagDISPPARAMS@@PAUtagVARIANT@@PAUtagEXCEPINFO@@PAI@Z 00416f6b f   nafxcw:occsite.obj
 0001:00015f9c       ?QueryInterface@XPropertyNotifySink@COleControlSite@@UAGJABU_GUID@@PAPAX@Z 00416f9c f   nafxcw:occsite.obj
 0001:00015fe6       ?AddRef@XRowsetNotify@COleControlSite@@UAGKXZ 00416fe6 f   nafxcw:occsite.obj
 0001:00015fe6       ?AddRef@XEventSink@COleControlSite@@UAGKXZ 00416fe6 f   nafxcw:occsite.obj
 0001:00015fe6       ?AddRef@XPropertyNotifySink@COleControlSite@@UAGKXZ 00416fe6 f   nafxcw:occsite.obj
 0001:00015fe6       ?AddRef@XNotifyDBEvents@COleControlSite@@UAGKXZ 00416fe6 f   nafxcw:occsite.obj
 0001:00015fec       ?OnChanged@XPropertyNotifySink@COleControlSite@@UAGJJ@Z 00416fec f   nafxcw:occsite.obj
 0001:00016102       ?OnRequestEdit@XPropertyNotifySink@COleControlSite@@UAGJJ@Z 00417102 f   nafxcw:occsite.obj
 0001:00016157       ?QueryInterface@XEventSink@COleControlSite@@UAGJABU_GUID@@PAPAX@Z 00417157 f   nafxcw:occsite.obj
 0001:000161bb       ?GetIDsOfNames@XAmbientProps@COleControlSite@@UAGJABU_GUID@@PAPAGIKPAJ@Z 004171bb f   nafxcw:occsite.obj
 0001:000161bb       ?GetIDsOfNames@XEventSink@COleControlSite@@UAGJABU_GUID@@PAPAGIKPAJ@Z 004171bb f   nafxcw:occsite.obj
 0001:000161c3       ?Invoke@XEventSink@COleControlSite@@UAGJJABU_GUID@@KGPAUtagDISPPARAMS@@PAUtagVARIANT@@PAUtagEXCEPINFO@@PAI@Z 004171c3 f   nafxcw:occsite.obj
 0001:00016218       ??0CDataSourceControl@@QAE@PAVCOleControlSite@@@Z 00417218 f   nafxcw:occsite.obj
 0001:00016266       ??1CDataSourceControl@@QAE@XZ 00417266 f   nafxcw:occsite.obj
 0001:00016446       ?ReleaseAccessors@CAccessorBase@ATL@@QAEJPAUIUnknown@@@Z 00417446 f i nafxcw:occsite.obj
 0001:000164cd       ??1CRowset@ATL@@QAE@XZ     004174cd f i nafxcw:occsite.obj
 0001:00016518       ?Close@CRowset@ATL@@QAEXXZ 00417518 f i nafxcw:occsite.obj
 0001:00016547       ?ReleaseRows@CRowset@ATL@@QAEJXZ 00417547 f i nafxcw:occsite.obj
 0001:00016567       ?Close@CDynamicAccessor@ATL@@QAEXXZ 00417567 f i nafxcw:occsite.obj
 0001:000165a1       ?Initialize@CDataSourceControl@@QAEJXZ 004175a1 f   nafxcw:occsite.obj
 0001:00016743       ?GetCursor@CDataSourceControl@@UAEPAUIUnknown@@XZ 00417743 f   nafxcw:occsite.obj
 0001:000167ac       ?GetMetaData@CDataSourceControl@@QAEJXZ 004177ac f   nafxcw:occsite.obj
 0001:00016acc       ??0CRowset@ATL@@QAE@PAUIRowset@@@Z 00417acc f i nafxcw:occsite.obj
 0001:00016b1d       ?MoveFirst@CRowset@ATL@@QAEJXZ 00417b1d f i nafxcw:occsite.obj
 0001:00016b40       ?MoveNext@CRowset@ATL@@QAEJJ_N@Z 00417b40 f i nafxcw:occsite.obj
 0001:00016b99       ?GetData@CRowset@ATL@@QAEJXZ 00417b99 f i nafxcw:occsite.obj
 0001:00016bcd       ?GetData@CRowset@ATL@@QAEJH@Z 00417bcd f i nafxcw:occsite.obj
 0001:00016bf0       ?SetupOptionalRowsetInterfaces@CRowset@ATL@@QAEXXZ 00417bf0 f i nafxcw:occsite.obj
 0001:00016c05       ?BindColumns@CDynamicAccessor@ATL@@QAEJPAUIUnknown@@@Z 00417c05 f i nafxcw:occsite.obj
 0001:00016eb6       ?AllocateAccessorMemory@CAccessorBase@ATL@@QAEJH@Z 00417eb6 f i nafxcw:occsite.obj
 0001:00016f12       ?BindEntries@CAccessorBase@ATL@@SAJPAUtagDBBINDING@@HPAKKPAUIAccessor@@@Z 00417f12 f i nafxcw:occsite.obj
 0001:00016f5c       ?Bind@CAccessorBase@ATL@@SAXPAUtagDBBINDING@@KGKEEKKKKPAUtagDBOBJECT@@@Z 00417f5c f i nafxcw:occsite.obj
 0001:00016fdb       ?CopyColumnID@CDataSourceControl@@QAEHPAUtagDBCOLUMNID@@PBU2@@Z 00417fdb f   nafxcw:occsite.obj
 0001:00017047       ?BindProp@CDataSourceControl@@UAEXPAVCOleControlSite@@H@Z 00418047 f   nafxcw:occsite.obj
 0001:00017183       ?TranslateColumnNo@CDynamicAccessor@ATL@@QBE_NAAK@Z 00418183 f i nafxcw:occsite.obj
 0001:000171d6       ?BindProp@CDataSourceControl@@UAEXPAVCDataBoundProperty@@H@Z 004181d6 f   nafxcw:occsite.obj
 0001:0001721e       ?BindColumns@CDataSourceControl@@UAEXXZ 0041821e f   nafxcw:occsite.obj
 0001:000173c8       ?GetBoundClientRow@CDataSourceControl@@QAEJXZ 004183c8 f   nafxcw:occsite.obj
 0001:00017425       ?ToVariant@CDataSourceControl@@QAE?AVCOleVariant@@H@Z 00418425 f   nafxcw:occsite.obj
 0001:00017ba1       ?GetStatus@CDynamicAccessor@ATL@@QBE_NKPAK@Z 00418ba1 f i nafxcw:occsite.obj
 0001:00017be5       ?_GetDataPtr@CDynamicAccessor@ATL@@QBEPAXK@Z 00418be5 f i nafxcw:occsite.obj
 0001:00017bfc       ?UpdateControls@CDataSourceControl@@UAEJXZ 00418bfc f   nafxcw:occsite.obj
 0001:00017d91       ?UpdateCursor@CDataSourceControl@@UAEJXZ 00418d91 f   nafxcw:occsite.obj
 0001:000186d4       ?SetData@CRowset@ATL@@QBEJXZ 004196d4 f i nafxcw:occsite.obj
 0001:000186fc       ?SetData@CRowset@ATL@@QBEJH@Z 004196fc f i nafxcw:occsite.obj
 0001:0001872b       ??1CManualAccessor@ATL@@QAE@XZ 0041972b f i nafxcw:occsite.obj
 0001:00018742       ?CreateAccessor@CManualAccessor@ATL@@QAEJHPAXK@Z 00419742 f i nafxcw:occsite.obj
 0001:000187b9       ?AddBindEntry@CManualAccessor@ATL@@QAEXKGKPAX00@Z 004197b9 f i nafxcw:occsite.obj
 0001:0001880d       ?BindColumns@CManualAccessor@ATL@@QAEJPAUIUnknown@@@Z 0041980d f i nafxcw:occsite.obj
 0001:000188a5       ??0CDataBoundProperty@@QAE@PAV0@JG@Z 004198a5 f   nafxcw:occsite.obj
 0001:000188cb       ?SetClientSite@CDataBoundProperty@@QAEXPAVCOleControlSite@@@Z 004198cb f   nafxcw:occsite.obj
 0001:000188d4       ?SetDSCSite@CDataBoundProperty@@QAEXPAVCOleControlSite@@@Z 004198d4 f   nafxcw:occsite.obj
 0001:000188e8       ?GetNext@CDataBoundProperty@@QAEPAV1@XZ 004198e8 f   nafxcw:occsite.obj
 0001:000188ec       ?Notify@CDataBoundProperty@@QAEXXZ 004198ec f   nafxcw:occsite.obj
 0001:0001896f       ?GetCursor@CDataBoundProperty@@QAEPAUIUnknown@@XZ 0041996f f   nafxcw:occsite.obj
 0001:000189a5       ?GetCursor@COleControlSite@@IAEJJPAPAUIUnknown@@PAPAX@Z 004199a5 f   nafxcw:occsite.obj
 0001:000189dc       ?AddRef@XBoundObjectSite@COleControlSite@@UAGKXZ 004199dc f   nafxcw:occsite.obj
 0001:000189ee       ?Release@XBoundObjectSite@COleControlSite@@UAGKXZ 004199ee f   nafxcw:occsite.obj
 0001:00018a00       ?QueryInterface@XBoundObjectSite@COleControlSite@@UAGJABU_GUID@@PAPAX@Z 00419a00 f   nafxcw:occsite.obj
 0001:00018a1a       ?GetCursor@XBoundObjectSite@COleControlSite@@UAGJJPAPAUICursor@@PAPAX@Z 00419a1a f   nafxcw:occsite.obj
 0001:00018a38       ?QueryInterface@XNotifyDBEvents@COleControlSite@@UAGJABU_GUID@@PAPAX@Z 00419a38 f   nafxcw:occsite.obj
 0001:00018a82       ?OKToDo@XNotifyDBEvents@COleControlSite@@UAGJKKQAUtagDBNOTIFYREASON@@@Z 00419a82 f   nafxcw:occsite.obj
 0001:00018ade       ?Cancelled@XNotifyDBEvents@COleControlSite@@UAGJKKQAUtagDBNOTIFYREASON@@@Z 00419ade f   nafxcw:occsite.obj
 0001:00018afe       ?SyncBefore@XNotifyDBEvents@COleControlSite@@UAGJKKQAUtagDBNOTIFYREASON@@@Z 00419afe f   nafxcw:occsite.obj
 0001:00018b48       ?AboutToDo@XNotifyDBEvents@COleControlSite@@UAGJKKQAUtagDBNOTIFYREASON@@@Z 00419b48 f   nafxcw:occsite.obj
 0001:00018b68       ?FailedToDo@XNotifyDBEvents@COleControlSite@@UAGJKKQAUtagDBNOTIFYREASON@@@Z 00419b68 f   nafxcw:occsite.obj
 0001:00018b88       ?SyncAfter@XNotifyDBEvents@COleControlSite@@UAGJKKQAUtagDBNOTIFYREASON@@@Z 00419b88 f   nafxcw:occsite.obj
 0001:00018bf1       ?DidEvent@XNotifyDBEvents@COleControlSite@@UAGJKKQAUtagDBNOTIFYREASON@@@Z 00419bf1 f   nafxcw:occsite.obj
 0001:00018c3f       ?FireEvent@XNotifyDBEvents@COleControlSite@@QAEJKKQAUtagDBNOTIFYREASON@@W4DSCSTATE@@@Z 00419c3f f   nafxcw:occsite.obj
 0001:00018d03       ?QueryInterface@XRowsetNotify@COleControlSite@@UAGJABU_GUID@@PAPAX@Z 00419d03 f   nafxcw:occsite.obj
 0001:00018d4d       ?OnFieldChange@XRowsetNotify@COleControlSite@@UAGJPAUIRowset@@KKQAKKKH@Z 00419d4d f   nafxcw:occsite.obj
 0001:00018dde       ?OnRowChange@XRowsetNotify@COleControlSite@@UAGJPAUIRowset@@KQBKKKH@Z 00419dde f   nafxcw:occsite.obj
 0001:00018ef3       ?OnRowsetChange@XRowsetNotify@COleControlSite@@UAGJPAUIRowset@@KKH@Z 00419ef3 f   nafxcw:occsite.obj
 0001:00018f6d       ??1?$CComPtr@UIColumnsInfo@@@ATL@@QAE@XZ 00419f6d f i nafxcw:occsite.obj
 0001:00018f6d       ??1?$CComPtr@UIRowset@@@ATL@@QAE@XZ 00419f6d f i nafxcw:occsite.obj
 0001:00018f6d       ??1?$CComPtr@UIRowsetChange@@@ATL@@QAE@XZ 00419f6d f i nafxcw:occsite.obj
 0001:00018f6d       ??1?$CComPtr@UIAccessor@@@ATL@@QAE@XZ 00419f6d f i nafxcw:occsite.obj
 0001:00018f7a       ?AtlComPtrAssign@ATL@@YGPAUIUnknown@@PAPAU2@PAU2@@Z 00419f7a f i nafxcw:occsite.obj
 0001:00018fa3       ??1COleDispatchDriver@@QAE@XZ 00419fa3 f i nafxcw:occsite.obj
 0001:00018fa8       ??1COleVariant@@QAE@XZ     00419fa8 f i nafxcw:occsite.obj
 0001:00018fb0       ??0AFX_EVENT@@QAE@H@Z      00419fb0 f i nafxcw:occsite.obj
 0001:00018fd3       ?AfxCheckError@@YGXJ@Z     00419fd3 f   nafxcw:olevar.obj
 0001:00018ff2       ??0COleVariant@@QAE@ABV0@@Z 00419ff2 f   nafxcw:olevar.obj
 0001:00018ff2       ??0COleVariant@@QAE@ABUtagVARIANT@@@Z 00419ff2 f   nafxcw:olevar.obj
 0001:00018ff2       ??0COleVariant@@QAE@PBUtagVARIANT@@@Z 00419ff2 f   nafxcw:olevar.obj
 0001:00019012       ??0COleVariant@@QAE@PBDG@Z 0041a012 f   nafxcw:olevar.obj
 0001:0001908d       ??0COleVariant@@QAE@FG@Z   0041a08d f   nafxcw:olevar.obj
 0001:000190c3       ??0COleVariant@@QAE@JG@Z   0041a0c3 f   nafxcw:olevar.obj
 0001:00019105       ?ChangeType@COleVariant@@QAEXGPAUtagVARIANT@@@Z 0041a105 f   nafxcw:olevar.obj
 0001:00019130       ??4COleVariant@@QAEABV0@ABUtagVARIANT@@@Z 0041a130 f   nafxcw:olevar.obj
 0001:00019130       ??4COleVariant@@QAEABV0@ABV0@@Z 0041a130 f   nafxcw:olevar.obj
 0001:0001914a       ?AfxVariantInit@@YGXPAUtagVARIANT@@@Z 0041a14a f   nafxcw:olevar.obj
 0001:0001915d       ?_AfxOleDateFromTm@@YGHGGGGGGAAN@Z 0041a15d f   nafxcw:olevar.obj
 0001:0001929a       ?SetDateTime@COleDateTime@@QAEHHHHHHH@Z 0041a29a f   nafxcw:olevar.obj
 0001:000192c5       ??_ECOleException@@UAEPAXI@Z 0041a2c5 f i nafxcw:olemisc.obj
 0001:000192c5       ??_GCOleException@@UAEPAXI@Z 0041a2c5 f i nafxcw:olemisc.obj
 0001:000192e1       ??1COleException@@UAE@XZ   0041a2e1 f i nafxcw:olemisc.obj
 0001:000192e8       ??0CPoint@@QAE@K@Z         0041a2e8 f i nafxcw:barcore.obj
 0001:000192ff       ?OnCancelMode@CWnd@@IAEXXZ 0041a2ff f i nafxcw:barcore.obj
 0001:00019304       ?OnEraseBkgnd@CWnd@@IAEHPAVCDC@@@Z 0041a304 f i nafxcw:barcore.obj
 0001:0001930c       ?OnShowWindow@CWnd@@IAEXHI@Z 0041a30c f i nafxcw:barcore.obj
 0001:00019314       ??_ECArchiveException@@UAEPAXI@Z 0041a314 f i nafxcw:arcex.obj
 0001:00019314       ??_GCArchiveException@@UAEPAXI@Z 0041a314 f i nafxcw:arcex.obj
 0001:00019330       ??1CArchiveException@@UAE@XZ 0041a330 f i nafxcw:arcex.obj
 0001:0001935c       ??0CString@@QAE@XZ         0041a35c f i nafxcw:filelist.obj
 0001:00019367       ?OnEvent@CCmdTarget@@QAEHIPAUAFX_EVENT@@PAUAFX_CMDHANDLERINFO@@@Z 0041a367 f   nafxcw:occevent.obj
 0001:00019579       ?GetEventSinkEntry@CCmdTarget@@IAGPBUAFX_EVENTSINKMAP_ENTRY@@IPAUAFX_EVENT@@@Z 0041a579 f   nafxcw:occevent.obj
 0001:000195ee       ?_AfxGetDlgCode@@YGKPAVCWnd@@PAUtagMSG@@@Z 0041a5ee f   nafxcw:occdlg.obj
 0001:0001961c       ?_AfxDlgSetFocus@@YGXPAVCWnd@@@Z 0041a61c f   nafxcw:occdlg.obj
 0001:0001964a       ?_AfxGetChildControl@@YGPAVCWnd@@PAV1@0@Z 0041a64a f   nafxcw:occdlg.obj
 0001:000196a3       ?_AfxNextControl@@YGPAVCWnd@@PAV1@0I@Z 0041a6a3 f   nafxcw:occdlg.obj
 0001:0001977f       ?IsMatchingMnemonic@COccManager@@SAHPAVCWnd@@PAUtagMSG@@@Z 0041a77f f   nafxcw:occdlg.obj
 0001:0001979e       ?_AfxFindNextMnem@@YGPAVCWnd@@PAV1@0PAUtagMSG@@@Z 0041a79e f   nafxcw:occdlg.obj
 0001:00019823       ?IsLabelControl@COccManager@@SAHPAVCWnd@@@Z 0041a823 f   nafxcw:occdlg.obj
 0001:00019849       ?_AfxGetNextMnem@@YGPAVCWnd@@PAV1@0PAUtagMSG@@@Z 0041a849 f   nafxcw:occdlg.obj
 0001:000198be       ?UIActivateControl@COccManager@@KAXPAVCWnd@@@Z 0041a8be f   nafxcw:occdlg.obj
 0001:0001991b       ?UIDeactivateIfNecessary@COccManager@@KAXPAVCWnd@@0@Z 0041a91b f   nafxcw:occdlg.obj
 0001:0001998e       ?_AfxFindDlgItem@@YGPAVCWnd@@PAV1@K@Z 0041a98e f   nafxcw:occdlg.obj
 0001:000199e5       ?SetDefaultButton@COccManager@@SAXPAVCWnd@@H@Z 0041a9e5 f   nafxcw:occdlg.obj
 0001:00019a32       ?GetDefBtnCode@COccManager@@SAKPAVCWnd@@@Z 0041aa32 f   nafxcw:occdlg.obj
 0001:00019a53       ?_AfxRemoveDefaultButton@@YGXPAVCWnd@@0@Z 0041aa53 f   nafxcw:occdlg.obj
 0001:00019ab5       ?_AfxOriginalDefButton@@YGHPAVCWnd@@@Z 0041aab5 f   nafxcw:occdlg.obj
 0001:00019ae2       ?_AfxCheckDefPushButton@@YGXPAVCWnd@@00@Z 0041aae2 f   nafxcw:occdlg.obj
 0001:00019bcf       ?IsDialogMessageA@COccManager@@UAEHPAVCWnd@@PAUtagMSG@@@Z 0041abcf f   nafxcw:occdlg.obj
 0001:00019fba       ?AfxOleUnlockAllControls@@YGXXZ 0041afba f   nafxcw:occlock.obj
 0001:00019ff6       _fclose                    0041aff6 f   libcmt:fclose.obj
 0001:0001a027       __fclose_lk                0041b027 f   libcmt:fclose.obj
 0001:0001a073       _puts                      0041b073 f   libcmt:puts.obj
 0001:0001a0eb       _atol                      0041b0eb f   libcmt:atox.obj
 0001:0001a176       _atoi                      0041b176 f   libcmt:atox.obj
 0001:0001a1a0       _strchr                    0041b1a0 f   libcmt:strchr.obj
 0001:0001a1a6       ___from_strstr_to_strchr   0041b1a6 f   libcmt:strchr.obj
 0001:0001a25c       _fgets                     0041b25c f   libcmt:fgets.obj
 0001:0001a2be       _printf                    0041b2be f   libcmt:printf.obj
 0001:0001a2ff       __fsopen                   0041b2ff f   libcmt:fopen.obj
 0001:0001a330       _fopen                     0041b330 f   libcmt:fopen.obj
 0001:0001a343       ?_JumpToContinuation@@YGXPAXPAUEHRegistrationNode@@@Z 0041b343 f   libcmt:trnsctrl.obj
 0001:0001a377       ?_CallMemberFunction1@@YGXPAX00@Z 0041b377 f   libcmt:trnsctrl.obj
 0001:0001a377       ?_CallMemberFunction0@@YGXPAX0@Z 0041b377 f   libcmt:trnsctrl.obj
 0001:0001a37e       ?_CallMemberFunction2@@YGXPAX00H@Z 0041b37e f   libcmt:trnsctrl.obj
 0001:0001a385       ?_UnwindNestedFrames@@YGXPAUEHRegistrationNode@@PAUEHExceptionRecord@@@Z 0041b385 f   libcmt:trnsctrl.obj
 0001:0001a3d4       ___CxxFrameHandler         0041b3d4 f   libcmt:trnsctrl.obj
 0001:0001a40a       ?_CallCatchBlock2@@YAPAXPAUEHRegistrationNode@@PBU_s_FuncInfo@@PAXHK@Z 0041b40a f   libcmt:trnsctrl.obj
 0001:0001a483       ?_CallSETranslator@@YAHPAUEHExceptionRecord@@PAUEHRegistrationNode@@PAX2PBU_s_FuncInfo@@H1@Z 0041b483 f   libcmt:trnsctrl.obj
 0001:0001a5ae       ?_GetRangeOfTrysToCheck@@YAPBU_s_TryBlockMapEntry@@PBU_s_FuncInfo@@HHPAI1@Z 0041b5ae f   libcmt:trnsctrl.obj
 0001:0001a62c       __global_unwind2           0041b62c f   libcmt:exsup.obj
 0001:0001a66e       __local_unwind2            0041b66e f   libcmt:exsup.obj
 0001:0001a6c6       __NLG_Return2              0041b6c6 f   libcmt:exsup.obj
 0001:0001a6d6       __abnormal_termination     0041b6d6 f   libcmt:exsup.obj
 0001:0001a6f9       __NLG_Notify1              0041b6f9 f   libcmt:exsup.obj
 0001:0001a702       __NLG_Notify               0041b702 f   libcmt:exsup.obj
 0001:0001a715       __NLG_Dispatch             0041b715 f   libcmt:exsup.obj
 0001:0001a71a       _fscanf                    0041b71a f   libcmt:fscanf.obj
 0001:0001a747       _rewind                    0041b747 f   libcmt:rewind.obj
 0001:0001a7ab       _sscanf                    0041b7ab f   libcmt:sscanf.obj
 0001:0001a7df       __fpmath                   0041b7df f   libcmt:fpinit.obj
 0001:0001a7f6       __fpclear                  0041b7f6 f   libcmt:fpinit.obj
 0001:0001a7f7       __cfltcvt_init             0041b7f7 f   libcmt:fpinit.obj
 0001:0001a830       __ftol                     0041b830 f   libcmt:ftol.obj
 0001:0001a857       ??_Gexception@@UAEPAXI@Z   0041b857 f i libcmt:stdexcpt.obj
 0001:0001a857       ??_Eexception@@UAEPAXI@Z   0041b857 f i libcmt:stdexcpt.obj
 0001:0001a873       ??0exception@@QAE@ABQBD@Z  0041b873 f   libcmt:stdexcpt.obj
 0001:0001a8b0       ??0exception@@QAE@ABV0@@Z  0041b8b0 f   libcmt:stdexcpt.obj
 0001:0001a8fa       ??1exception@@UAE@XZ       0041b8fa f   libcmt:stdexcpt.obj
 0001:0001a910       ?what@exception@@UBEPBDXZ  0041b910 f   libcmt:stdexcpt.obj
 0001:0001a91d       ??1type_info@@UAE@XZ       0041b91d f   libcmt:typinfo.obj
 0001:0001a946       ??_Etype_info@@UAEPAXI@Z   0041b946 f i libcmt:typinfo.obj
 0001:0001a946       ??_Gtype_info@@UAEPAXI@Z   0041b946 f i libcmt:typinfo.obj
 0001:0001a962       __CxxThrowException@8      0041b962 f   libcmt:throw.obj
 0001:0001a9a0       _memmove                   0041b9a0 f   libcmt:memmove.obj
 0001:0001acd5       _sprintf                   0041bcd5 f   libcmt:sprintf.obj
 0001:0001ad30       _memchr                    0041bd30 f   libcmt:memchr.obj
 0001:0001ade0       _strcspn                   0041bde0 f   libcmt:strcspn.obj
 0001:0001ae1e       __onexit                   0041be1e f   libcmt:onexit.obj
 0001:0001ae9c       _atexit                    0041be9c f   libcmt:onexit.obj
 0001:0001aeae       ___onexitinit              0041beae f   libcmt:onexit.obj
 0001:0001aedd       _time                      0041bedd f   libcmt:time.obj
 0001:0001afb9       _srand                     0041bfb9 f   libcmt:rand.obj
 0001:0001afc6       _rand                      0041bfc6 f   libcmt:rand.obj
 0001:0001afe8       ??_M@YGXPAXIHP6EX0@Z@Z     0041bfe8 f   libcmt:ehvecdtr.obj
 0001:0001b068       ?__ArrayUnwind@@YGXPAXIHP6EX0@Z@Z 0041c068 f   libcmt:ehvecdtr.obj
 0001:0001b0dc       ??_L@YGXPAXIHP6EX0@Z1@Z    0041c0dc f   libcmt:ehvecctr.obj
 0001:0001b15e       _fprintf                   0041c15e f   libcmt:fprintf.obj
 0001:0001b19a       _WinMainCRTStartup         0041c19a f   libcmt:wincrt0.obj
 0001:0001b2a2       __amsg_exit                0041c2a2 f   libcmt:wincrt0.obj
 0001:0001b2eb       _malloc                    0041c2eb f   libcmt:malloc.obj
 0001:0001b2fd       __nh_malloc                0041c2fd f   libcmt:malloc.obj
 0001:0001b329       __heap_alloc               0041c329 f   libcmt:malloc.obj
 0001:0001b425       _free                      0041c425 f   libcmt:free.obj
 0001:0001b510       _memset                    0041c510 f   libcmt:memset.obj
 0001:0001b568       __EH_prolog                0041c568 f   libcmt:ehprolog.obj
 0001:0001b587       __mbscmp                   0041c587 f   libcmt:mbscmp.obj
 0001:0001b640       _memcmp                    0041c640 f   libcmt:memcmp.obj
 0001:0001b6ec       _strtol                    0041c6ec f   libcmt:strtol.obj
 0001:0001b908       _strtoul                   0041c908 f   libcmt:strtol.obj
 0001:0001b920       __chkstk                   0041c920 f   libcmt:chkstk.obj
 0001:0001b920       __alloca_probe             0041c920 f   libcmt:chkstk.obj
 0001:0001b94f       __ismbcdigit               0041c94f f   libcmt:ismbdgt.obj
 0001:0001b9de       __ismbcspace               0041c9de f   libcmt:ismbspc.obj
 0001:0001bac9       __ltoa                     0041cac9 f   libcmt:xtoa.obj
 0001:0001baf3       __ultoa                    0041caf3 f   libcmt:xtoa.obj
 0001:0001bb0e       _abs                       0041cb0e f   libcmt:abs.obj
 0001:0001bb20       _memcpy                    0041cb20 f   libcmt:memcpy.obj
 0001:0001be55       _wcslen                    0041ce55 f   libcmt:wcslen.obj
 0001:0001be72       __mbschr                   0041ce72 f   libcmt:mbschr.obj
 0001:0001bf09       __mbspbrk                  0041cf09 f   libcmt:mbspbrk.obj
 0001:0001bf9e       __beginthreadex            0041cf9e f   libcmt:threadex.obj
 0001:0001c0a5       __endthreadex              0041d0a5 f   libcmt:threadex.obj
 0001:0001c0d7       _strtod                    0041d0d7 f   libcmt:strtod.obj
 0001:0001c181       __strdup                   0041d181 f   libcmt:strdup.obj
 0001:0001c1ac       __cinit                    0041d1ac f   libcmt:crt0dat.obj
 0001:0001c1d9       _exit                      0041d1d9 f   libcmt:crt0dat.obj
 0001:0001c1ea       __exit                     0041d1ea f   libcmt:crt0dat.obj
 0001:0001c2a0       __lockexit                 0041d2a0 f   libcmt:crt0dat.obj
 0001:0001c2a9       __unlockexit               0041d2a9 f   libcmt:crt0dat.obj
 0001:0001c2cc       __expand                   0041d2cc f   libcmt:expand.obj
 0001:0001c430       __msize                    0041d430 f   libcmt:msize.obj
 0001:0001c51e       __setmbcp                  0041d51e f   libcmt:mbctype.obj
 0001:0001c8f6       ___initmbctable            0041d8f6 f   libcmt:mbctype.obj
 0001:0001c912       _wcscpy                    0041d912 f   libcmt:wcscat.obj
 0001:0001c937       _wcsncpy                   0041d937 f   libcmt:wcsncpy.obj
 0001:0001c974       __mbsrchr                  0041d974 f   libcmt:mbsrchr.obj
 0001:0001c9e6       __mbsdec                   0041d9e6 f   libcmt:mbsdec.obj
 0001:0001ca53       _mktime                    0041da53 f   libcmt:mktime.obj
 0001:0001cc45       _gmtime                    0041dc45 f   libcmt:gmtime.obj
 0001:0001cd4f       _localtime                 0041dd4f f   libcmt:localtim.obj
 0001:0001ceaf       __mbsinc                   0041deaf f   libcmt:mbsinc.obj
 0001:0001cec6       _calloc                    0041dec6 f   libcmt:calloc.obj
 0001:0001d003       _vsprintf                  0041e003 f   libcmt:vsprintf.obj
 0001:0001d054       __mbclen                   0041e054 f   libcmt:mbclen.obj
 0001:0001d06a       __mbsnbcmp                 0041e06a f   libcmt:mbsnbcmp.obj
 0001:0001d159       __dosmaperr                0041e159 f   libcmt:dosmap.obj
 0001:0001d1cc       __errno                    0041e1cc f   libcmt:dosmap.obj
 0001:0001d1d5       ___doserrno                0041e1d5 f   libcmt:dosmap.obj
 0001:0001d1de       _realloc                   0041e1de f   libcmt:realloc.obj
 0001:0001d506       __purecall                 0041e506 f   libcmt:purevirt.obj
 0001:0001d510       __alldiv                   0041e510 f   libcmt:lldiv.obj
 0001:0001d5c0       __allmul                   0041e5c0 f   libcmt:llmul.obj
 0001:0001d600       __allshr                   0041e600 f   libcmt:llshr.obj
 0001:0001d621       ___initstdio               0041e621 f   libcmt:_file.obj
 0001:0001d6c9       ___endstdio                0041e6c9 f   libcmt:_file.obj
 0001:0001d6dd       __lock_file                0041e6dd f   libcmt:_file.obj
 0001:0001d70c       __lock_file2               0041e70c f   libcmt:_file.obj
 0001:0001d72f       __unlock_file              0041e72f f   libcmt:_file.obj
 0001:0001d75e       __unlock_file2             0041e75e f   libcmt:_file.obj
 0001:0001d781       __close                    0041e781 f   libcmt:close.obj
 0001:0001d7de       __close_lk                 0041e7de f   libcmt:close.obj
 0001:0001d861       __freebuf                  0041e861 f   libcmt:_freebuf.obj
 0001:0001d88c       _fflush                    0041e88c f   libcmt:fflush.obj
 0001:0001d8bb       __fflush_lk                0041e8bb f   libcmt:fflush.obj
 0001:0001d8e9       __flush                    0041e8e9 f   libcmt:fflush.obj
 0001:0001d945       __flushall                 0041e945 f   libcmt:fflush.obj
 0001:0001d9f2       __stbuf                    0041e9f2 f   libcmt:_sftbuf.obj
 0001:0001da7f       __ftbuf                    0041ea7f f   libcmt:_sftbuf.obj
 0001:0001daa9       __flsbuf                   0041eaa9 f   libcmt:_flsbuf.obj
 0001:0001dbc1       _fwrite                    0041ebc1 f   libcmt:fwrite.obj
 0001:0001dbf0       __fwrite_lk                0041ebf0 f   libcmt:fwrite.obj
 0001:0001dd00       _strlen                    0041ed00 f   libcmt:strlen.obj
 0001:0001dd7b       __isctype                  0041ed7b f   libcmt:isctype.obj
 0001:0001ddf0       __filbuf                   0041edf0 f   libcmt:_filbuf.obj
 0001:0001decc       __output                   0041eecc f   libcmt:output.obj
 0001:0001e6d6       __openfile                 0041f6d6 f   libcmt:_open.obj
 0001:0001e846       __getstream                0041f846 f   libcmt:stream.obj
 0001:0001e90e       ___InternalCxxFrameHandler 0041f90e f   libcmt:frame.obj
 0001:0001ec63       ___FrameUnwindToState      0041fc63 f   libcmt:frame.obj
 0001:0001f085       ?_DestructExceptionObject@@YAXPAUEHExceptionRecord@@E@Z 00420085 f   libcmt:frame.obj
 0001:0001f110       __CallSettingFrame@12      00420110 f   libcmt:lowhelpr.obj
 0001:0001f137       __NLG_Return               00420137 f   libcmt:lowhelpr.obj
 0001:0001f15c       __mtinit                   0042015c f   libcmt:tidtable.obj
 0001:0001f1b0       __initptd                  004201b0 f   libcmt:tidtable.obj
 0001:0001f1c3       __getptd                   004201c3 f   libcmt:tidtable.obj
 0001:0001f22a       __freeptd                  0042022a f   libcmt:tidtable.obj
 0001:0001f2ca       ?terminate@@YAXXZ          004202ca f   libcmt:hooks.obj
 0001:0001f32b       ?_inconsistency@@YAXXZ     0042032b f   libcmt:hooks.obj
 0001:0001f381       __input                    00420381 f   libcmt:input.obj
 0001:0001fe32       __lseek                    00420e32 f   libcmt:lseek.obj
 0001:0001fe97       __lseek_lk                 00420e97 f   libcmt:lseek.obj
 0001:0001ff0a       __ioinit                   00420f0a f   libcmt:ioinit.obj
 0001:000200c6       __setdefaultprecision      004210c6 f   libcmt:fp8.obj
 0001:000200d8       __ms_p5_test_fdiv          004210d8 f   libcmt:testfdiv.obj
 0001:00020116       __ms_p5_mp_test_fdiv       00421116 f   libcmt:testfdiv.obj
 0001:0002013f       __forcdecpt                0042113f f   libcmt:cvt.obj
 0001:00020199       __cropzeros                00421199 f   libcmt:cvt.obj
 0001:000201e7       __positive                 004211e7 f   libcmt:cvt.obj
 0001:000201ff       __fassign                  004211ff f   libcmt:cvt.obj
 0001:0002023d       __cftoe                    0042123d f   libcmt:cvt.obj
 0001:00020360       __cftof                    00421360 f   libcmt:cvt.obj
 0001:0002045c       __cftog                    0042145c f   libcmt:cvt.obj
 0001:000204ef       __cfltcvt                  004214ef f   libcmt:cvt.obj
 0001:00020570       _strcpy                    00421570 f   libcmt:strcat.obj
 0001:00020580       _strcat                    00421580 f   libcmt:strcat.obj
 0001:00020660       __mtinitlocks              00421660 f   libcmt:mlock.obj
 0001:00020689       __lock                     00421689 f   libcmt:mlock.obj
 0001:000206ea       __unlock                   004216ea f   libcmt:mlock.obj
 0001:00020700       _strcmp                    00421700 f   libcmt:strcmp.obj
 0001:00020784       ?__CxxUnhandledExceptionFilter@@YGJPAU_EXCEPTION_POINTERS@@@Z 00421784 f   libcmt:unhandld.obj
 0001:000207ca       ?__CxxSetUnhandledExceptionFilter@@YAXXZ 004217ca f   libcmt:unhandld.obj
 0001:000207db       ?__CxxRestoreUnhandledExceptionFilter@@YAXXZ 004217db f   libcmt:unhandld.obj
 0001:000207e8       ___loctotime_t             004217e8 f   libcmt:dtoxtime.obj
 0001:000208b4       __except_handler3          004218b4 f   libcmt:exsup3.obj
 0001:00020971       __seh_longjmp_unwind@4     00421971 f   libcmt:exsup3.obj
 0001:0002098c       __XcptFilter               0042198c f   libcmt:winxfltr.obj
 0001:00020b04       __wincmdln                 00421b04 f   libcmt:wincmdln.obj
 0001:00020b5c       __setenvp                  00421b5c f   libcmt:stdenvp.obj
 0001:00020c15       __setargv                  00421c15 f   libcmt:stdargv.obj
 0001:00020e62       ___crtGetEnvironmentStringsA 00421e62 f   libcmt:a_env.obj
 0001:00020f94       __GetLinkerVersion         00421f94 f   libcmt:heapinit.obj
 0001:00020fc1       ___heap_select             00421fc1 f   libcmt:heapinit.obj
 0001:00021109       __heap_init                00422109 f   libcmt:heapinit.obj
 0001:00021166       __FF_MSGBANNER             00422166 f   libcmt:crt0msg.obj
 0001:0002119f       __NMSG_WRITE               0042219f f   libcmt:crt0msg.obj
 0001:000212f2       __callnewh                 004222f2 f   libcmt:handler.obj
 0001:0002130d       ___sbh_heap_init           0042230d f   libcmt:sbheap.obj
 0001:00021355       ___sbh_find_block          00422355 f   libcmt:sbheap.obj
 0001:00021380       ___sbh_free_block          00422380 f   libcmt:sbheap.obj
 0001:000216a9       ___sbh_alloc_block         004226a9 f   libcmt:sbheap.obj
 0001:000219b2       ___sbh_alloc_new_region    004229b2 f   libcmt:sbheap.obj
 0001:00021a63       ___sbh_alloc_new_group     00422a63 f   libcmt:sbheap.obj
 0001:00021b5e       ___sbh_resize_block        00422b5e f   libcmt:sbheap.obj
 0001:00021e54       ___old_sbh_new_region      00422e54 f   libcmt:sbheap.obj
 0001:00021f98       ___old_sbh_release_region  00422f98 f   libcmt:sbheap.obj
 0001:00021fee       ___old_sbh_decommit_pages  00422fee f   libcmt:sbheap.obj
 0001:000220b0       ___old_sbh_find_block      004230b0 f   libcmt:sbheap.obj
 0001:00022107       ___old_sbh_free_block      00423107 f   libcmt:sbheap.obj
 0001:0002214c       ___old_sbh_alloc_block     0042314c f   libcmt:sbheap.obj
 0001:00022354       ___old_sbh_alloc_block_from_page 00423354 f   libcmt:sbheap.obj
 0001:00022478       ___old_sbh_resize_block    00423478 f   libcmt:sbheap.obj
 0001:00022521       _toupper                   00423521 f   libcmt:toupper.obj
 0001:00022590       __toupper_lk               00423590 f   libcmt:toupper.obj
 0001:0002265c       ___crtGetStringTypeA       0042365c f   libcmt:a_str.obj
 0001:000227b0       __aulldiv                  004237b0 f   libcmt:ulldiv.obj
 0001:00022820       __aullrem                  00423820 f   libcmt:ullrem.obj
 0001:000228a0       _strpbrk                   004238a0 f   libcmt:strpbrk.obj
 0001:000228da       ___crtLCMapStringA         004238da f   libcmt:a_map.obj
 0001:00022b00       __strrev                   00423b00 f   libcmt:strrev.obj
 0001:00022b30       __fltin2                   00423b30 f   libcmt:cfin.obj
 0001:00022bb0       _strrchr                   00423bb0 f   libcmt:strrchr.obj
 0001:00022bd7       ___tzset                   00423bd7 f   libcmt:tzset.obj
 0001:00022e8c       __isindst                  00423e8c f   libcmt:tzset.obj
 0001:000231a0       __strcmpi                  004241a0 f   libcmt:stricmp.obj
 0001:000231a0       __stricmp                  004241a0 f   libcmt:stricmp.obj
 0001:00023270       _strstr                    00424270 f   libcmt:strstr.obj
 0001:000232f0       _strspn                    004242f0 f   libcmt:strspn.obj
 0001:00023330       _strncmp                   00424330 f   libcmt:strncmp.obj
 0001:00023368       __fcloseall                00424368 f   libcmt:closeall.obj
 0001:000233e9       __alloc_osfhnd             004243e9 f   libcmt:osfinfo.obj
 0001:0002350c       __set_osfhnd               0042450c f   libcmt:osfinfo.obj
 0001:00023588       __free_osfhnd              00424588 f   libcmt:osfinfo.obj
 0001:00023607       __get_osfhandle            00424607 f   libcmt:osfinfo.obj
 0001:00023649       __lock_fhandle             00424649 f   libcmt:osfinfo.obj
 0001:000236a8       __unlock_fhandle           004246a8 f   libcmt:osfinfo.obj
 0001:000236ca       __commit                   004246ca f   libcmt:commit.obj
 0001:0002375d       __write                    0042475d f   libcmt:write.obj
 0001:000237c2       __write_lk                 004247c2 f   libcmt:write.obj
 0001:0002394d       __isatty                   0042494d f   libcmt:isatty.obj
 0001:00023976       __getbuf                   00424976 f   libcmt:_getbuf.obj
 0001:000239ba       __read                     004249ba f   libcmt:read.obj
 0001:00023a1f       __read_lk                  00424a1f f   libcmt:read.obj
 0001:00023bf8       _wctomb                    00424bf8 f   libcmt:wctomb.obj
 0001:00023c51       __wctomb_lk                00424c51 f   libcmt:wctomb.obj
 0001:00023cba       __sopen                    00424cba f   libcmt:open.obj
 0001:00023f89       ?_ValidateRead@@YAHPBXI@Z  00424f89 f   libcmt:validate.obj
 0001:00023fa5       ?_ValidateWrite@@YAHPAXI@Z 00424fa5 f   libcmt:validate.obj
 0001:00023fc1       ?_ValidateExecute@@YAHP6GHXZ@Z 00424fc1 f   libcmt:validate.obj
 0001:00023fd9       _abort                     00424fd9 f   libcmt:abort.obj
 0001:00023ff0       _mbtowc                    00424ff0 f   libcmt:mbtowc.obj
 0001:0002404d       __mbtowc_lk                0042504d f   libcmt:mbtowc.obj
 0001:00024116       _isspace                   00425116 f   libcmt:_ctype.obj
 0001:00024140       __allshl                   00425140 f   libcmt:llshl.obj
 0001:0002415f       _ungetc                    0042515f f   libcmt:ungetc.obj
 0001:00024188       __ungetc_lk                00425188 f   libcmt:ungetc.obj
 0001:000241f6       __control87                004251f6 f   libcmt:ieee87.obj
 0001:0002422b       __controlfp                0042522b f   libcmt:ieee87.obj
 0001:0002435c       _tolower                   0042535c f   libcmt:tolower.obj
 0001:000243cb       __tolower_lk               004253cb f   libcmt:tolower.obj
 0001:00024496       __ZeroTail                 00425496 f   libcmt:intrncvt.obj
 0001:000244df       __IncMan                   004254df f   libcmt:intrncvt.obj
 0001:00024535       __RoundMan                 00425535 f   libcmt:intrncvt.obj
 0001:000245c1       __CopyMan                  004255c1 f   libcmt:intrncvt.obj
 0001:000245dc       __FillZeroMan              004255dc f   libcmt:intrncvt.obj
 0001:000245e8       __IsZeroMan                004255e8 f   libcmt:intrncvt.obj
 0001:00024603       __ShrMan                   00425603 f   libcmt:intrncvt.obj
 0001:00024690       __ld12cvt                  00425690 f   libcmt:intrncvt.obj
 0001:000247fc       __ld12tod                  004257fc f   libcmt:intrncvt.obj
 0001:00024812       __ld12tof                  00425812 f   libcmt:intrncvt.obj
 0001:00024828       __atodbl                   00425828 f   libcmt:intrncvt.obj
 0001:00024855       __atoflt                   00425855 f   libcmt:intrncvt.obj
 0001:00024882       __fptostr                  00425882 f   libcmt:_fptostr.obj
 0001:000248f9       __fltout2                  004258f9 f   libcmt:cfout.obj
 0001:00024955       ___dtold                   00425955 f   libcmt:cfout.obj
 0001:00024a0b       __fptrap                   00425a0b f   libcmt:crt0fp.obj
 0001:00024a14       __ismbblead                00425a14 f   libcmt:ismbbyte.obj
 0001:00024a56       ___crtMessageBoxA          00425a56 f   libcmt:crtmbox.obj
 0001:00024ae0       _strncpy                   00425ae0 f   libcmt:strncpy.obj
 0001:00024bde       ___strgtold12              00425bde f   libcmt:strgtold.obj
 0001:000250af       __getenv_lk                004260af f   libcmt:getenv.obj
 0001:0002512c       _fputwc                    0042612c f   libcmt:fputwc.obj
 0001:00025156       __putwc_lk                 00426156 f   libcmt:fputwc.obj
 0001:0002524f       __chsize_lk                0042624f f   libcmt:chsize.obj
 0001:00025374       _raise                     00426374 f   libcmt:winsig.obj
 0001:00025533       ___addl                    00426533 f   libcmt:mantold.obj
 0001:00025554       ___add_12                  00426554 f   libcmt:mantold.obj
 0001:000255b2       ___shl_12                  004265b2 f   libcmt:mantold.obj
 0001:000255e0       ___shr_12                  004265e0 f   libcmt:mantold.obj
 0001:0002560d       ___mtold12                 0042660d f   libcmt:mantold.obj
 0001:000256d4       _$I10_OUTPUT               004266d4 f   libcmt:x10fout.obj
 0001:00025967       ___ld12mul                 00426967 f   libcmt:tenpow.obj
 0001:00025b87       ___multtenpow12            00426b87 f   libcmt:tenpow.obj
 0001:00025c03       __mbsnbicoll               00426c03 f   libcmt:mbsnbico.obj
 0001:00025c42       ___wtomb_environ           00426c42 f   libcmt:wtombenv.obj
 0001:00025cb0       __strnicmp                 00426cb0 f   libcmt:strnicmp.obj
 0001:00025db1       __flswbuf                  00426db1 f   libcmt:_flswbuf.obj
 0001:00025ed8       __setmode_lk               00426ed8 f   libcmt:setmode.obj
 0001:00025f39       ___crtCompareStringA       00426f39 f   libcmt:a_cmp.obj
 0001:000261e1       ___crtsetenv               004271e1 f   libcmt:setenv.obj
 0001:00026428       _RtlUnwind@16              00427428 f   kernel32:KERNEL32.dll
 0001:0002642e       _ReuseDDElParam@20         0042742e f   user32:USER32.dll
 0001:00026434       _UnpackDDElParam@16        00427434 f   user32:USER32.dll
 0001:0002643a       _CommDlgExtendedError@0    0042743a f   comdlg32:comdlg32.dll
 0001:00026440       _GetFileTitleA@12          00427440 f   comdlg32:comdlg32.dll
 0001:00026446       _PrintDlgA@4               00427446 f   comdlg32:comdlg32.dll
 0001:0002644c       _GetSaveFileNameA@4        0042744c f   comdlg32:comdlg32.dll
 0001:00026452       _GetOpenFileNameA@4        00427452 f   comdlg32:comdlg32.dll
 0001:00026458       _ClosePrinter@4            00427458 f   winspool:WINSPOOL.DRV
 0001:0002645e       _DocumentPropertiesA@24    0042745e f   winspool:WINSPOOL.DRV
 0001:00026464       _OpenPrinterA@12           00427464 f   winspool:WINSPOOL.DRV
 0001:0002646a       _OleUIBusyA@4              0042746a f   oledlg:oledlg.dll
 0001:00026470       ?clear@ios_base@std@@QAEXH_N@Z 00427470 f   libcpmt:ios.obj
 0001:0002650c       ??0runtime_error@std@@QAE@ABV?$basic_string@DU?$char_traits@D@std@@V?$allocator@D@2@@1@@Z 0042750c f i libcpmt:ios.obj
 0001:00026570       ?_Doraise@runtime_error@std@@MBEXXZ 00427570 f i libcpmt:ios.obj
 0001:0002658d       ??1runtime_error@std@@UAE@XZ 0042758d f i libcpmt:ios.obj
 0001:000265ca       ??_Eruntime_error@std@@UAEPAXI@Z 004275ca f i libcpmt:ios.obj
 0001:000265ca       ??_Gruntime_error@std@@UAEPAXI@Z 004275ca f i libcpmt:ios.obj
 0001:000265e6       ??0runtime_error@std@@QAE@ABV01@@Z 004275e6 f i libcpmt:ios.obj
 0001:00026643       ??1failure@ios_base@std@@UAE@XZ 00427643 f i libcpmt:ios.obj
 0001:00026680       ?_Doraise@failure@ios_base@std@@MBEXXZ 00427680 f i libcpmt:ios.obj
 0001:0002669d       ??_Gfailure@ios_base@std@@UAEPAXI@Z 0042769d f i libcpmt:ios.obj
 0001:0002669d       ??_Efailure@ios_base@std@@UAEPAXI@Z 0042769d f i libcpmt:ios.obj
 0001:000266b9       ??0failure@ios_base@std@@QAE@ABV012@@Z 004276b9 f i libcpmt:ios.obj
 0001:000266d1       ?_Incref@facet@locale@std@@QAEXXZ 004276d1 f i libcpmt:ios.obj
 0001:000266f7       ??1ios_base@std@@UAE@XZ    004276f7 f   libcpmt:ios.obj
 0001:00026747       ??_Eios_base@std@@UAEPAXI@Z 00427747 f i libcpmt:ios.obj
 0001:00026747       ??_Gios_base@std@@UAEPAXI@Z 00427747 f i libcpmt:ios.obj
 0001:00026763       ?_Callfns@ios_base@std@@AAEXW4event@12@@Z 00427763 f   libcpmt:ios.obj
 0001:00026785       ?_Addstd@ios_base@std@@IAEXXZ 00427785 f   libcpmt:ios.obj
 0001:000267d3       ?_Init@ios_base@std@@IAEXXZ 004277d3 f   libcpmt:ios.obj
 0001:0002680b       ??0locale@std@@QAE@XZ      0042780b f i libcpmt:ios.obj
 0001:00026839       ?_Tidy@ios_base@std@@AAEXXZ 00427839 f   libcpmt:ios.obj
 0001:0002687b       ?assign@?$basic_string@DU?$char_traits@D@std@@V?$allocator@D@2@@std@@QAEAAV12@PBDI@Z 0042787b f i libcpmt:ios.obj
 0001:00026939       ??_D?$basic_istream@DU?$char_traits@D@std@@@std@@QAEXXZ 00427939 f i libcpmt:iostream.obj
 0001:0002697d       ??_D?$basic_ostream@DU?$char_traits@D@std@@@std@@QAEXXZ 0042797d f i libcpmt:iostream.obj
 0001:00026a1d       ??0Init@ios_base@std@@QAE@XZ 00427a1d f   libcpmt:iostream.obj
 0001:00026b9c       ??1Init@ios_base@std@@QAE@XZ 00427b9c f   libcpmt:iostream.obj
 0001:00026bdf       ??0?$basic_ostream@DU?$char_traits@D@std@@@std@@QAE@PAV?$basic_streambuf@DU?$char_traits@D@std@@@1@_N1@Z 00427bdf f i libcpmt:iostream.obj
 0001:00026c49       ??0?$basic_ostream@DU?$char_traits@D@std@@@std@@QAE@W4_Uninitialized@1@@Z 00427c49 f i libcpmt:iostream.obj
 0001:00026ca8       ??1?$basic_ios@DU?$char_traits@D@std@@@std@@UAE@XZ 00427ca8 f i libcpmt:iostream.obj
 0001:00026cb3       ??0?$basic_istream@DU?$char_traits@D@std@@@std@@QAE@PAV?$basic_streambuf@DU?$char_traits@D@std@@@1@_N@Z 00427cb3 f i libcpmt:iostream.obj
 0001:00026d1b       ??0?$basic_istream@DU?$char_traits@D@std@@@std@@QAE@W4_Uninitialized@1@@Z 00427d1b f i libcpmt:iostream.obj
 0001:00026d7a       ??0?$basic_filebuf@DU?$char_traits@D@std@@@std@@QAE@PAU_iobuf@@@Z 00427d7a f i libcpmt:iostream.obj
 0001:00026dda       ??1?$basic_streambuf@DU?$char_traits@D@std@@@std@@UAE@XZ 00427dda f i libcpmt:iostream.obj
 0001:00026de8       ?overflow@?$basic_streambuf@DU?$char_traits@D@std@@@std@@MAEHH@Z 00427de8 f i libcpmt:iostream.obj
 0001:00026de8       ?pbackfail@?$basic_streambuf@DU?$char_traits@D@std@@@std@@MAEHH@Z 00427de8 f i libcpmt:iostream.obj
 0001:00026dee       ?underflow@?$basic_streambuf@DU?$char_traits@D@std@@@std@@MAEHXZ 00427dee f i libcpmt:iostream.obj
 0001:00026df2       ?uflow@?$basic_streambuf@DU?$char_traits@D@std@@@std@@MAEHXZ 00427df2 f i libcpmt:iostream.obj
 0001:00026e0f       ?xsgetn@?$basic_streambuf@DU?$char_traits@D@std@@@std@@MAEHPADH@Z 00427e0f f i libcpmt:iostream.obj
 0001:00026e83       ?xsputn@?$basic_streambuf@DU?$char_traits@D@std@@@std@@MAEHPBDH@Z 00427e83 f i libcpmt:iostream.obj
 0001:00026ef9       ??0?$basic_filebuf@DU?$char_traits@D@std@@@std@@QAE@W4_Uninitialized@1@@Z 00427ef9 f i libcpmt:iostream.obj
 0001:00026f04       ??1?$basic_filebuf@DU?$char_traits@D@std@@@std@@UAE@XZ 00427f04 f i libcpmt:iostream.obj
 0001:00026f69       ?overflow@?$basic_filebuf@DU?$char_traits@D@std@@@std@@MAEHH@Z 00427f69 f i libcpmt:iostream.obj
 0001:0002709f       ?pbackfail@?$basic_filebuf@DU?$char_traits@D@std@@@std@@MAEHH@Z 0042809f f i libcpmt:iostream.obj
 0001:0002714c       ?underflow@?$basic_filebuf@DU?$char_traits@D@std@@@std@@MAEHXZ 0042814c f i libcpmt:iostream.obj
 0001:00027179       ?uflow@?$basic_filebuf@DU?$char_traits@D@std@@@std@@MAEHXZ 00428179 f i libcpmt:iostream.obj
 0001:0002728e       ?seekoff@?$basic_filebuf@GU?$char_traits@G@std@@@std@@MAE?AV?$fpos@H@2@JW4seekdir@ios_base@2@H@Z 0042828e f i libcpmt:iostream.obj
 0001:0002728e       ?seekoff@?$basic_filebuf@DU?$char_traits@D@std@@@std@@MAE?AV?$fpos@H@2@JW4seekdir@ios_base@2@H@Z 0042828e f i libcpmt:iostream.obj
 0001:000272fd       ?seekpos@?$basic_filebuf@GU?$char_traits@G@std@@@std@@MAE?AV?$fpos@H@2@V32@H@Z 004282fd f i libcpmt:iostream.obj
 0001:000272fd       ?seekpos@?$basic_filebuf@DU?$char_traits@D@std@@@std@@MAE?AV?$fpos@H@2@V32@H@Z 004282fd f i libcpmt:iostream.obj
 0001:000273ac       ?setbuf@?$basic_filebuf@DU?$char_traits@D@std@@@std@@MAEPAV?$basic_streambuf@DU?$char_traits@D@std@@@2@PADH@Z 004283ac f i libcpmt:iostream.obj
 0001:000273d7       ?sync@?$basic_filebuf@DU?$char_traits@D@std@@@std@@MAEHXZ 004283d7 f i libcpmt:iostream.obj
 0001:000273d7       ?sync@?$basic_filebuf@GU?$char_traits@G@std@@@std@@MAEHXZ 004283d7 f i libcpmt:iostream.obj
 0001:000273f0       ??_G?$basic_ostream@DU?$char_traits@D@std@@@std@@UAEPAXI@Z 004283f0 f i libcpmt:iostream.obj
 0001:000273f0       ??_E?$basic_ostream@DU?$char_traits@D@std@@@std@@UAEPAXI@Z 004283f0 f i libcpmt:iostream.obj
 0001:0002740f       ??_E?$basic_ios@DU?$char_traits@D@std@@@std@@UAEPAXI@Z 0042840f f i libcpmt:iostream.obj
 0001:0002740f       ??_G?$basic_ios@DU?$char_traits@D@std@@@std@@UAEPAXI@Z 0042840f f i libcpmt:iostream.obj
 0001:0002742b       ??_E?$basic_istream@DU?$char_traits@D@std@@@std@@UAEPAXI@Z 0042842b f i libcpmt:iostream.obj
 0001:0002742b       ??_G?$basic_istream@DU?$char_traits@D@std@@@std@@UAEPAXI@Z 0042842b f i libcpmt:iostream.obj
 0001:0002744a       ??_E?$basic_streambuf@DU?$char_traits@D@std@@@std@@UAEPAXI@Z 0042844a f i libcpmt:iostream.obj
 0001:0002744a       ??_G?$basic_streambuf@DU?$char_traits@D@std@@@std@@UAEPAXI@Z 0042844a f i libcpmt:iostream.obj
 0001:00027466       ??_G?$basic_filebuf@DU?$char_traits@D@std@@@std@@UAEPAXI@Z 00428466 f i libcpmt:iostream.obj
 0001:00027466       ??_E?$basic_filebuf@DU?$char_traits@D@std@@@std@@UAEPAXI@Z 00428466 f i libcpmt:iostream.obj
 0001:00027482       ?append@?$basic_string@DU?$char_traits@D@std@@V?$allocator@D@2@@std@@QAEAAV12@ID@Z 00428482 f i libcpmt:iostream.obj
 0001:000274db       ?init@?$basic_ios@DU?$char_traits@D@std@@@std@@IAEXPAV?$basic_streambuf@DU?$char_traits@D@std@@@2@_N@Z 004284db f i libcpmt:iostream.obj
 0001:0002751b       ??0?$fpos@H@std@@QAE@J@Z   0042851b f i libcpmt:iostream.obj
 0001:00027555       ?_Gndec@?$basic_streambuf@DU?$char_traits@D@std@@@std@@IAEPADXZ 00428555 f i libcpmt:iostream.obj
 0001:00027565       ?_Gninc@?$basic_streambuf@DU?$char_traits@D@std@@@std@@IAEPADXZ 00428565 f i libcpmt:iostream.obj
 0001:00027575       ?_Pninc@?$basic_streambuf@DU?$char_traits@D@std@@@std@@IAEPADXZ 00428575 f i libcpmt:iostream.obj
 0001:00027585       ?close@?$basic_filebuf@DU?$char_traits@D@std@@@std@@QAEPAV12@XZ 00428585 f i libcpmt:iostream.obj
 0001:000275ac       ?_Init@?$basic_filebuf@DU?$char_traits@D@std@@@std@@IAEXPAU_iobuf@@W4_Initfl@12@@Z 004285ac f i libcpmt:iostream.obj
 0001:00027624       ?_Freeze@?$basic_string@DU?$char_traits@D@std@@V?$allocator@D@2@@std@@AAEXXZ 00428624 f i libcpmt:iostream.obj
 0001:00027650       ?_Ungetc@std@@YA_NABDPAU_iobuf@@I@Z 00428650 f i libcpmt:iostream.obj
 0001:000276df       ??1CException@@UAE@XZ      004286df f i libcpmt:iostream.obj
 0001:000276df       ??1CNoTrackObject@@UAE@XZ  004286df f i libcpmt:iostream.obj
 0001:000276df       ?id@?$collate@D@std@@$E    004286df f i libcpmt:iostream.obj
 0001:000276df       ??1COccManager@@UAE@XZ     004286df f i libcpmt:iostream.obj
 0001:000276e0       ??0_Lockit@std@@QAE@XZ     004286e0 f   libcpmt:xlock.obj
 0001:0002777c       ??1_Lockit@std@@QAE@XZ     0042877c f   libcpmt:xlock.obj
 0001:000277b2       ?_Init@locale@std@@CAPAV_Locimp@12@XZ 004287b2 f   libcpmt:locale0.obj
 0001:0002787c       ?_Tidy@locale@std@@CAXXZ   0042887c f   libcpmt:locale0.obj
 0001:000278c6       ??0_Locimp@locale@std@@AAE@_N@Z 004288c6 f   libcpmt:locale0.obj
 0001:00027938       ??_G_Locimp@locale@std@@UAEPAXI@Z 00428938 f i libcpmt:locale0.obj
 0001:00027938       ??_E_Locimp@locale@std@@UAEPAXI@Z 00428938 f i libcpmt:locale0.obj
 0001:00027954       ??1_Locimp@locale@std@@UAE@XZ 00428954 f   libcpmt:locale0.obj
 0001:00027a1e       ?_Xlen@std@@YAXXZ          00428a1e f   libcpmt:string.obj
 0001:00027a78       ??0logic_error@std@@QAE@ABV?$basic_string@DU?$char_traits@D@std@@V?$allocator@D@2@@1@@Z 00428a78 f i libcpmt:string.obj
 0001:00027adc       ?what@runtime_error@std@@UBEPBDXZ 00428adc f i libcpmt:string.obj
 0001:00027adc       ?what@logic_error@std@@UBEPBDXZ 00428adc f i libcpmt:string.obj
 0001:00027ae9       ?_Doraise@logic_error@std@@MBEXXZ 00428ae9 f i libcpmt:string.obj
 0001:00027b06       ??1logic_error@std@@UAE@XZ 00428b06 f i libcpmt:string.obj
 0001:00027b43       ??_Glogic_error@std@@UAEPAXI@Z 00428b43 f i libcpmt:string.obj
 0001:00027b43       ??_Elogic_error@std@@UAEPAXI@Z 00428b43 f i libcpmt:string.obj
 0001:00027b5f       ??0logic_error@std@@QAE@ABV01@@Z 00428b5f f i libcpmt:string.obj
 0001:00027bbc       ??1length_error@std@@UAE@XZ 00428bbc f i libcpmt:string.obj
 0001:00027bf9       ?_Doraise@length_error@std@@MBEXXZ 00428bf9 f i libcpmt:string.obj
 0001:00027c16       ??_Elength_error@std@@UAEPAXI@Z 00428c16 f i libcpmt:string.obj
 0001:00027c16       ??_Glength_error@std@@UAEPAXI@Z 00428c16 f i libcpmt:string.obj
 0001:00027c32       ??0length_error@std@@QAE@ABV01@@Z 00428c32 f i libcpmt:string.obj
 0001:00027c4a       ?_Xran@std@@YAXXZ          00428c4a f   libcpmt:string.obj
 0001:00027ca4       ??1out_of_range@std@@UAE@XZ 00428ca4 f i libcpmt:string.obj
 0001:00027ce1       ?_Doraise@out_of_range@std@@MBEXXZ 00428ce1 f i libcpmt:string.obj
 0001:00027cfe       ??_Eout_of_range@std@@UAEPAXI@Z 00428cfe f i libcpmt:string.obj
 0001:00027cfe       ??_Gout_of_range@std@@UAEPAXI@Z 00428cfe f i libcpmt:string.obj
 0001:00027d1a       ??0out_of_range@std@@QAE@ABV01@@Z 00428d1a f i libcpmt:string.obj
 0001:00027ec0       ??_D?$basic_istream@GU?$char_traits@G@std@@@std@@QAEXXZ 00428ec0 f i libcpmt:wiostrea.obj
 0001:00027f04       ??_D?$basic_ostream@GU?$char_traits@G@std@@@std@@QAEXXZ 00428f04 f i libcpmt:wiostrea.obj
 0001:00027f77       ??0_Winit@std@@QAE@XZ      00428f77 f   libcpmt:wiostrea.obj
 0001:000280f8       ??1_Winit@std@@QAE@XZ      004290f8 f   libcpmt:wiostrea.obj
 0001:0002813b       ??0?$basic_ostream@GU?$char_traits@G@std@@@std@@QAE@PAV?$basic_streambuf@GU?$char_traits@G@std@@@1@_N1@Z 0042913b f i libcpmt:wiostrea.obj
 0001:000281a5       ??0?$basic_ostream@GU?$char_traits@G@std@@@std@@QAE@W4_Uninitialized@1@@Z 004291a5 f i libcpmt:wiostrea.obj
 0001:00028204       ?flush@?$basic_ostream@DU?$char_traits@D@std@@@std@@QAEAAV12@XZ 00429204 f i libcpmt:wiostrea.obj
 0001:00028204       ?flush@?$basic_ostream@GU?$char_traits@G@std@@@std@@QAEAAV12@XZ 00429204 f i libcpmt:wiostrea.obj
 0001:0002824e       ??1?$basic_ios@GU?$char_traits@G@std@@@std@@UAE@XZ 0042924e f i libcpmt:wiostrea.obj
 0001:00028259       ??0?$basic_istream@GU?$char_traits@G@std@@@std@@QAE@PAV?$basic_streambuf@GU?$char_traits@G@std@@@1@_N@Z 00429259 f i libcpmt:wiostrea.obj
 0001:000282c1       ??0?$basic_istream@GU?$char_traits@G@std@@@std@@QAE@W4_Uninitialized@1@@Z 004292c1 f i libcpmt:wiostrea.obj
 0001:00028320       ??0?$basic_filebuf@GU?$char_traits@G@std@@@std@@QAE@PAU_iobuf@@@Z 00429320 f i libcpmt:wiostrea.obj
 0001:00028380       ??1?$basic_streambuf@GU?$char_traits@G@std@@@std@@UAE@XZ 00429380 f i libcpmt:wiostrea.obj
 0001:0002838e       ?overflow@?$basic_streambuf@GU?$char_traits@G@std@@@std@@MAEGG@Z 0042938e f i libcpmt:wiostrea.obj
 0001:0002838e       ?pbackfail@?$basic_streambuf@GU?$char_traits@G@std@@@std@@MAEGG@Z 0042938e f i libcpmt:wiostrea.obj
 0001:00028395       ?showmanyc@?$basic_streambuf@GU?$char_traits@G@std@@@std@@MAEHXZ 00429395 f i libcpmt:wiostrea.obj
 0001:00028395       ?sync@?$basic_streambuf@DU?$char_traits@D@std@@@std@@MAEHXZ 00429395 f i libcpmt:wiostrea.obj
 0001:00028395       ?sync@?$basic_streambuf@GU?$char_traits@G@std@@@std@@MAEHXZ 00429395 f i libcpmt:wiostrea.obj
 0001:00028395       ?showmanyc@?$basic_streambuf@DU?$char_traits@D@std@@@std@@MAEHXZ 00429395 f i libcpmt:wiostrea.obj
 0001:00028398       ?underflow@?$basic_streambuf@GU?$char_traits@G@std@@@std@@MAEGXZ 00429398 f i libcpmt:wiostrea.obj
 0001:0002839d       ?uflow@?$basic_streambuf@GU?$char_traits@G@std@@@std@@MAEGXZ 0042939d f i libcpmt:wiostrea.obj
 0001:000283be       ?xsgetn@?$basic_streambuf@GU?$char_traits@G@std@@@std@@MAEHPAGH@Z 004293be f i libcpmt:wiostrea.obj
 0001:00028445       ?xsputn@?$basic_streambuf@GU?$char_traits@G@std@@@std@@MAEHPBGH@Z 00429445 f i libcpmt:wiostrea.obj
 0001:000284cd       ?seekoff@?$basic_streambuf@GU?$char_traits@G@std@@@std@@MAE?AV?$fpos@H@2@JW4seekdir@ios_base@2@H@Z 004294cd f i libcpmt:wiostrea.obj
 0001:000284cd       ?seekoff@?$basic_streambuf@DU?$char_traits@D@std@@@std@@MAE?AV?$fpos@H@2@JW4seekdir@ios_base@2@H@Z 004294cd f i libcpmt:wiostrea.obj
 0001:000284f1       ?seekpos@?$basic_streambuf@DU?$char_traits@D@std@@@std@@MAE?AV?$fpos@H@2@V32@H@Z 004294f1 f i libcpmt:wiostrea.obj
 0001:000284f1       ?seekpos@?$basic_streambuf@GU?$char_traits@G@std@@@std@@MAE?AV?$fpos@H@2@V32@H@Z 004294f1 f i libcpmt:wiostrea.obj
 0001:00028515       ?setbuf@?$basic_streambuf@GU?$char_traits@G@std@@@std@@MAEPAV12@PAGH@Z 00429515 f i libcpmt:wiostrea.obj
 0001:00028515       ?setbuf@?$basic_streambuf@DU?$char_traits@D@std@@@std@@MAEPAV12@PADH@Z 00429515 f i libcpmt:wiostrea.obj
 0001:0002851a       ?imbue@?$basic_streambuf@GU?$char_traits@G@std@@@std@@MAEXABVlocale@2@@Z 0042951a f i libcpmt:wiostrea.obj
 0001:0002851a       ?imbue@?$basic_streambuf@DU?$char_traits@D@std@@@std@@MAEXABVlocale@2@@Z 0042951a f i libcpmt:wiostrea.obj
 0001:0002851d       ??0?$basic_filebuf@GU?$char_traits@G@std@@@std@@QAE@W4_Uninitialized@1@@Z 0042951d f i libcpmt:wiostrea.obj
 0001:00028528       ??1?$basic_filebuf@GU?$char_traits@G@std@@@std@@UAE@XZ 00429528 f i libcpmt:wiostrea.obj
 0001:0002858d       ?overflow@?$basic_filebuf@GU?$char_traits@G@std@@@std@@MAEGG@Z 0042958d f i libcpmt:wiostrea.obj
 0001:000286d5       ?pbackfail@?$basic_filebuf@GU?$char_traits@G@std@@@std@@MAEGG@Z 004296d5 f i libcpmt:wiostrea.obj
 0001:0002878c       ?underflow@?$basic_filebuf@GU?$char_traits@G@std@@@std@@MAEGXZ 0042978c f i libcpmt:wiostrea.obj
 0001:000287ba       ?uflow@?$basic_filebuf@GU?$char_traits@G@std@@@std@@MAEGXZ 004297ba f i libcpmt:wiostrea.obj
 0001:000288d8       ?setbuf@?$basic_filebuf@GU?$char_traits@G@std@@@std@@MAEPAV?$basic_streambuf@GU?$char_traits@G@std@@@2@PAGH@Z 004298d8 f i libcpmt:wiostrea.obj
 0001:00028906       ??_G?$basic_ostream@GU?$char_traits@G@std@@@std@@UAEPAXI@Z 00429906 f i libcpmt:wiostrea.obj
 0001:00028906       ??_E?$basic_ostream@GU?$char_traits@G@std@@@std@@UAEPAXI@Z 00429906 f i libcpmt:wiostrea.obj
 0001:00028925       ??_E?$basic_ios@GU?$char_traits@G@std@@@std@@UAEPAXI@Z 00429925 f i libcpmt:wiostrea.obj
 0001:00028925       ??_G?$basic_ios@GU?$char_traits@G@std@@@std@@UAEPAXI@Z 00429925 f i libcpmt:wiostrea.obj
 0001:00028941       ??_G?$basic_istream@GU?$char_traits@G@std@@@std@@UAEPAXI@Z 00429941 f i libcpmt:wiostrea.obj
 0001:00028941       ??_E?$basic_istream@GU?$char_traits@G@std@@@std@@UAEPAXI@Z 00429941 f i libcpmt:wiostrea.obj
 0001:00028960       ??_E?$basic_streambuf@GU?$char_traits@G@std@@@std@@UAEPAXI@Z 00429960 f i libcpmt:wiostrea.obj
 0001:00028960       ??_G?$basic_streambuf@GU?$char_traits@G@std@@@std@@UAEPAXI@Z 00429960 f i libcpmt:wiostrea.obj
 0001:0002897c       ??_G?$basic_filebuf@GU?$char_traits@G@std@@@std@@UAEPAXI@Z 0042997c f i libcpmt:wiostrea.obj
 0001:0002897c       ??_E?$basic_filebuf@GU?$char_traits@G@std@@@std@@UAEPAXI@Z 0042997c f i libcpmt:wiostrea.obj
 0001:00028998       ?init@?$basic_ios@GU?$char_traits@G@std@@@std@@IAEXPAV?$basic_streambuf@GU?$char_traits@G@std@@@2@_N@Z 00429998 f i libcpmt:wiostrea.obj
 0001:000289e2       ?gbump@?$basic_streambuf@GU?$char_traits@G@std@@@std@@IAEXH@Z 004299e2 f i libcpmt:wiostrea.obj
 0001:000289f6       ?_Gndec@?$basic_streambuf@GU?$char_traits@G@std@@@std@@IAEPAGXZ 004299f6 f i libcpmt:wiostrea.obj
 0001:00028a07       ?_Gninc@?$basic_streambuf@GU?$char_traits@G@std@@@std@@IAEPAGXZ 00429a07 f i libcpmt:wiostrea.obj
 0001:00028a17       ?pbump@?$basic_streambuf@GU?$char_traits@G@std@@@std@@IAEXH@Z 00429a17 f i libcpmt:wiostrea.obj
 0001:00028a2b       ?_Pninc@?$basic_streambuf@GU?$char_traits@G@std@@@std@@IAEPAGXZ 00429a2b f i libcpmt:wiostrea.obj
 0001:00028a3b       ?close@?$basic_filebuf@GU?$char_traits@G@std@@@std@@QAEPAV12@XZ 00429a3b f i libcpmt:wiostrea.obj
 0001:00028a62       ?_Init@?$basic_filebuf@GU?$char_traits@G@std@@@std@@IAEXPAU_iobuf@@W4_Initfl@12@@Z 00429a62 f i libcpmt:wiostrea.obj
 0001:00028ab8       ?_Init@?$basic_streambuf@GU?$char_traits@G@std@@@std@@IAEXXZ 00429ab8 f i libcpmt:wiostrea.obj
 0001:00028ab8       ?_Init@?$basic_streambuf@DU?$char_traits@D@std@@@std@@IAEXXZ 00429ab8 f i libcpmt:wiostrea.obj
 0001:00028b7e       __Mbrtowc                  00429b7e f   libcpmt:xmbtowc.obj
 0001:00028cf4       _btowc                     00429cf4 f   libcpmt:xmbtowc.obj
 0001:00028ea0       _CallWndProcFilterProc@12  00429ea0 f   ctl3d32s:CTL3D.OBJ
 0001:00029310       _Ctl3dRegister@4           0042a310 f   ctl3d32s:CTL3D.OBJ
 0001:00029380       _Ctl3dUnregister@4         0042a380 f   ctl3d32s:CTL3D.OBJ
 0001:00029440       _Ctl3dAutoSubclass@4       0042a440 f   ctl3d32s:CTL3D.OBJ
 0001:00029450       _Ctl3dAutoSubclassEx@8     0042a450 f   ctl3d32s:CTL3D.OBJ
 0001:00029590       _Ctl3dIsAutoSubclass@0     0042a590 f   ctl3d32s:CTL3D.OBJ
 0001:000295c0       _Ctl3dUnAutoSubclass@0     0042a5c0 f   ctl3d32s:CTL3D.OBJ
 0001:00029660       _Ctl3dSubclassCtl@4        0042a660 f   ctl3d32s:CTL3D.OBJ
 0001:00029690       _Ctl3dUnsubclassCtl@4      0042a690 f   ctl3d32s:CTL3D.OBJ
 0001:000297a0       _Ctl3dSubclassCtlEx@8      0042a7a0 f   ctl3d32s:CTL3D.OBJ
 0001:000298e0       _Ctl3dCheckSubclassDlg@8   0042a8e0 f   ctl3d32s:CTL3D.OBJ
 0001:00029960       _Ctl3dSubclassDlgEx@8      0042a960 f   ctl3d32s:CTL3D.OBJ
 0001:000299d0       _Ctl3dCtlColorEx@12        0042a9d0 f   ctl3d32s:CTL3D.OBJ
 0001:00029a60       _Ctl3dColorChange@0        0042aa60 f   ctl3d32s:CTL3D.OBJ
 0001:00029d40       _Ctl3dWinIniChange@0       0042ad40 f   ctl3d32s:CTL3D.OBJ
 0001:0002a240       _Ctl3dDlgProc@16           0042b240 f   ctl3d32s:CTL3D.OBJ
 0001:0002a5b0       _Ctl3dHook@12              0042b5b0 f   ctl3d32s:CTL3D.OBJ
 0001:0002b3f0       _BtnWndProc3d@16           0042c3f0 f   ctl3d32s:CTL3D.OBJ
 0001:0002b6d0       _ListEditPaint3d           0042c6d0 f   ctl3d32s:CTL3D.OBJ
 0001:0002ba10       _ShareEditComboWndProc3d   0042ca10 f   ctl3d32s:CTL3D.OBJ
 0001:0002bb60       _EditWndProc3d@16          0042cb60 f   ctl3d32s:CTL3D.OBJ
 0001:0002bb90       _SharedListWndProc         0042cb90 f   ctl3d32s:CTL3D.OBJ
 0001:0002bdc0       _ListWndProc3d@16          0042cdc0 f   ctl3d32s:CTL3D.OBJ
 0001:0002bdf0       _ComboWndProc3d@16         0042cdf0 f   ctl3d32s:CTL3D.OBJ
 0001:0002be40       _StaticPrint               0042ce40 f   ctl3d32s:CTL3D.OBJ
 0001:0002bf20       _StaticPaint               0042cf20 f   ctl3d32s:CTL3D.OBJ
 0001:0002c0c0       _StaticWndProc3d@16        0042d0c0 f   ctl3d32s:CTL3D.OBJ
 0001:0002c210       _LibMain                   0042d210 f   ctl3d32s:CTL3D.OBJ
 0001:0002c2e0       _LoadUIBitmap@32           0042d2e0 f   ctl3d32s:CTL3D.OBJ
 0001:0002c477       _WinMain@16                0042d477 f   nafxcw:appmodul.obj
 0001:0002c48f       ?AfxInitialize@@YGHHK@Z    0042d48f f   nafxcw:appmodul.obj
 0001:0002c4ad       ?_AfxTermAppState@@YAXXZ   0042d4ad f   nafxcw:appmodul.obj
 0001:0002c4e2       _fputc                     0042d4e2 f   libcmt:fputc.obj
 0001:0002c51d       _fgetc                     0042d51d f   libcmt:fgetc.obj
 0001:0002c54e       _fgetpos                   0042d54e f   libcmt:fgetpos.obj
 0001:0002c570       _fseek                     0042d570 f   libcmt:fseek.obj
 0001:0002c59c       __fseek_lk                 0042d59c f   libcmt:fseek.obj
 0001:0002c629       _fsetpos                   0042d629 f   libcmt:fsetpos.obj
 0001:0002c641       _setvbuf                   0042d641 f   libcmt:setvbuf.obj
 0001:0002c6f0       _ungetwc                   0042d6f0 f   libcmt:ungetwc.obj
 0001:0002c71a       __ungetwc_lk               0042d71a f   libcmt:ungetwc.obj
 0001:0002c807       _fgetwc                    0042d807 f   libcmt:fgetwc.obj
 0001:0002c82a       __getwc_lk                 0042d82a f   libcmt:fgetwc.obj
 0001:0002c91b       __ftelli64                 0042d91b f   libcmt:ftelli64.obj
 0001:0002c943       __ftelli64_lk              0042d943 f   libcmt:ftelli64.obj
 0001:0002cad3       __ftell_lk                 0042dad3 f   libcmt:ftell.obj
 0001:0002cc34       __fseeki64                 0042dc34 f   libcmt:fseeki64.obj
 0001:0002cc63       __fseeki64_lk              0042dc63 f   libcmt:fseeki64.obj
 0001:0002ccf4       __filwbuf                  0042dcf4 f   libcmt:_filwbuf.obj
 0001:0002cddb       ___termcon                 0042dddb f   libcmt:initcon.obj
 0001:0002ce08       __lseeki64                 0042de08 f   libcmt:lseeki64.obj
 0001:0002ce79       __lseeki64_lk              0042de79 f   libcmt:lseeki64.obj
 0001:0002cefe       ?InitString@CSimpleException@@QAEXXZ 0042defe f   nafxcw:except.obj
 0001:0002cf27       ?GetErrorMessage@CSimpleException@@UAEHPADIPAI@Z 0042df27 f   nafxcw:except.obj
 0001:0002cf6a       ?AfxThrowMemoryException@@YGXXZ 0042df6a f   nafxcw:except.obj
 0001:0002cf83       ?AfxThrowNotSupportedException@@YGXXZ 0042df83 f   nafxcw:except.obj
 0001:0002cf9c       ??0CTime@@QAE@HHHHHHH@Z    0042df9c f   nafxcw:timecore.obj
 0001:0002cfe8       ??0CTime@@QAE@ABU_SYSTEMTIME@@H@Z 0042dfe8 f   nafxcw:timecore.obj
 0001:0002d034       ??0CTime@@QAE@ABU_FILETIME@@H@Z 0042e034 f   nafxcw:timecore.obj
 0001:0002d080       ?GetLocalTm@CTime@@QBEPAUtm@@PAU2@@Z 0042e080 f   nafxcw:timecore.obj
 0001:0002d0af       ?Right@CString@@QBE?AV1@H@Z 0042e0af f   nafxcw:strex.obj
 0001:0002d12b       ?Left@CString@@QBE?AV1@H@Z 0042e12b f   nafxcw:strex.obj
 0001:0002d1a3       ?FormatV@CString@@QAEXPBDPAD@Z 0042e1a3 f   nafxcw:strex.obj
 0001:0002d4ab       ?Format@CString@@QAAXPBDZZ 0042e4ab f   nafxcw:strex.obj
 0001:0002d4be       ?GetMessageMap@CPrintDialog@@MBEPBUAFX_MSGMAP@@XZ 0042e4be f   nafxcw:dlgprnt.obj
 0001:0002d4c4       ??0CPrintDialog@@QAE@HKPAVCWnd@@@Z 0042e4c4 f   nafxcw:dlgprnt.obj
 0001:0002d576       ??_GCPrintDialog@@UAEPAXI@Z 0042e576 f i nafxcw:dlgprnt.obj
 0001:0002d576       ??_ECPrintDialog@@UAEPAXI@Z 0042e576 f i nafxcw:dlgprnt.obj
 0001:0002d592       ??0CPrintDialog@@IAE@AAUtagPDA@@@Z 0042e592 f   nafxcw:dlgprnt.obj
 0001:0002d5b1       ?AttachOnSetup@CPrintDialog@@MAEPAV1@XZ 0042e5b1 f   nafxcw:dlgprnt.obj
 0001:0002d601       ?OnPrintSetup@CPrintDialog@@IAEXXZ 0042e601 f   nafxcw:dlgprnt.obj
 0001:0002d631       ?DoModal@CPrintDialog@@UAEHXZ 0042e631 f   nafxcw:dlgprnt.obj
 0001:0002d65f       ?CreatePrinterDC@CPrintDialog@@QAEPAUHDC__@@XZ 0042e65f f   nafxcw:dlgprnt.obj
 0001:0002d67e       ?GetDriverName@CPrintDialog@@QBE?AVCString@@XZ 0042e67e f   nafxcw:dlgprnt.obj
 0001:0002d6bb       ?GetDeviceName@CPrintDialog@@QBE?AVCString@@XZ 0042e6bb f   nafxcw:dlgprnt.obj
 0001:0002d6f9       ?GetPortName@CPrintDialog@@QBE?AVCString@@XZ 0042e6f9 f   nafxcw:dlgprnt.obj
 0001:0002d737       ?GetDefaults@CPrintDialog@@QAEHXZ 0042e737 f   nafxcw:dlgprnt.obj
 0001:0002d747       ?AfxCreateDC@@YGPAUHDC__@@PAX0@Z 0042e747 f   nafxcw:dlgprnt.obj
 0001:0002d7ae       ??0CFileDialog@@QAE@HPBD0K0PAVCWnd@@@Z 0042e7ae f   nafxcw:dlgfile.obj
 0001:0002d8f4       ??_ECFileDialog@@UAEPAXI@Z 0042e8f4 f i nafxcw:dlgfile.obj
 0001:0002d8f4       ??_GCFileDialog@@UAEPAXI@Z 0042e8f4 f i nafxcw:dlgfile.obj
 0001:0002d910       ?DoModal@CFileDialog@@UAEHXZ 0042e910 f   nafxcw:dlgfile.obj
 0001:0002d9eb       ?GetPathName@CFileDialog@@QBE?AVCString@@XZ 0042e9eb f   nafxcw:dlgfile.obj
 0001:0002dafb       ?OnShareViolation@CFileDialog@@MAEIPBD@Z 0042eafb f   nafxcw:dlgfile.obj
 0001:0002db00       ?OnFileNameOK@CFileDialog@@MAEHXZ 0042eb00 f   nafxcw:dlgfile.obj
 0001:0002db03       ?OnLBSelChangedNotify@CFileDialog@@MAEXIII@Z 0042eb03 f   nafxcw:dlgfile.obj
 0001:0002db06       ?OnInitDone@CFileDialog@@MAEXXZ 0042eb06 f   nafxcw:dlgfile.obj
 0001:0002db1f       ?OnFolderChange@CFileDialog@@MAEXXZ 0042eb1f f   nafxcw:dlgfile.obj
 0001:0002db1f       ?OnTypeChange@CFileDialog@@MAEXXZ 0042eb1f f   nafxcw:dlgfile.obj
 0001:0002db1f       ?OnFileNameChange@CFileDialog@@MAEXXZ 0042eb1f f   nafxcw:dlgfile.obj
 0001:0002db20       ?OnNotify@CFileDialog@@MAEHIJPAJ@Z 0042eb20 f   nafxcw:dlgfile.obj
 0001:0002dbfe       ?GetMessageMap@CCommonDialog@@MBEPBUAFX_MSGMAP@@XZ 0042ebfe f   nafxcw:dlgcomm.obj
 0001:0002dc04       ?_AfxCommDlgProc@@YGIPAUHWND__@@IIJ@Z 0042ec04 f   nafxcw:dlgcomm.obj
 0001:0002dd8e       ?OnOK@CCommonDialog@@MAEXXZ 0042ed8e f   nafxcw:dlgcomm.obj
 0001:0002dda5       ?OnCancel@CCommonDialog@@MAEXXZ 0042eda5 f   nafxcw:dlgcomm.obj
 0001:0002ddaa       ?OnHelpInfo@CCommonDialog@@IAEHPAUtagHELPINFO@@@Z 0042edaa f   nafxcw:dlgcomm.obj
 0001:0002ddb2       ??1CProgressCtrl@@UAE@XZ   0042edb2 f   nafxcw:winctrl2.obj
 0001:0002ddea       ??0CArchiveStream@@QAE@PAVCArchive@@@Z 0042edea f   nafxcw:arcstrm.obj
 0001:0002ddfc       ?AddRef@CArchiveStream@@UAGKXZ 0042edfc f   nafxcw:arcstrm.obj
 0001:0002de02       ?Release@CArchiveStream@@UAGKXZ 0042ee02 f   nafxcw:arcstrm.obj
 0001:0002de07       ?QueryInterface@CArchiveStream@@UAGJABU_GUID@@PAPAX@Z 0042ee07 f   nafxcw:arcstrm.obj
 0001:0002de4b       ?Read@CArchiveStream@@UAGJPAXKPAK@Z 0042ee4b f   nafxcw:arcstrm.obj
 0001:0002dea3       ?Write@CArchiveStream@@UAGJPBXKPAK@Z 0042eea3 f   nafxcw:arcstrm.obj
 0001:0002defc       ?Seek@CArchiveStream@@UAGJT_LARGE_INTEGER@@KPAT_ULARGE_INTEGER@@@Z 0042eefc f   nafxcw:arcstrm.obj
 0001:0002df7c       ?Revert@CArchiveStream@@UAGJXZ 0042ef7c f   nafxcw:arcstrm.obj
 0001:0002df84       ?LockRegion@CArchiveStream@@UAGJT_ULARGE_INTEGER@@0K@Z 0042ef84 f   nafxcw:arcstrm.obj
 0001:0002df84       ?UnlockRegion@CArchiveStream@@UAGJT_ULARGE_INTEGER@@0K@Z 0042ef84 f   nafxcw:arcstrm.obj
 0001:0002df84       ?CopyTo@CArchiveStream@@UAGJPAUIStream@@T_ULARGE_INTEGER@@PAT3@2@Z 0042ef84 f   nafxcw:arcstrm.obj
 0001:0002df8c       ?SetSize@CArchiveStream@@UAGJT_ULARGE_INTEGER@@@Z 0042ef8c f   nafxcw:arcstrm.obj
 0001:0002df8c       ?Stat@CArchiveStream@@UAGJPAUtagSTATSTG@@K@Z 0042ef8c f   nafxcw:arcstrm.obj
 0001:0002df94       ?Commit@CArchiveStream@@UAGJK@Z 0042ef94 f   nafxcw:arcstrm.obj
 0001:0002df94       ?Clone@CArchiveStream@@UAGJPAPAUIStream@@@Z 0042ef94 f   nafxcw:arcstrm.obj
 0001:0002df9c       ?GetMessageMap@CToolTipCtrl@@MBEPBUAFX_MSGMAP@@XZ 0042ef9c f   nafxcw:tooltip.obj
 0001:0002dfa2       ??0CToolTipCtrl@@QAE@XZ    0042efa2 f   nafxcw:tooltip.obj
 0001:0002dfdb       ??_ECToolTipCtrl@@UAEPAXI@Z 0042efdb f i nafxcw:tooltip.obj
 0001:0002dfdb       ??_GCToolTipCtrl@@UAEPAXI@Z 0042efdb f i nafxcw:tooltip.obj
 0001:0002dff7       ?Create@CToolTipCtrl@@QAEHPAVCWnd@@K@Z 0042eff7 f   nafxcw:tooltip.obj
 0001:0002e04c       ??1CToolTipCtrl@@UAE@XZ    0042f04c f   nafxcw:tooltip.obj
 0001:0002e093       ?DestroyToolTipCtrl@CToolTipCtrl@@UAEHXZ 0042f093 f   nafxcw:tooltip.obj
 0001:0002e0ad       ?OnAddTool@CToolTipCtrl@@IAEJIJ@Z 0042f0ad f   nafxcw:tooltip.obj
 0001:0002e121       ?OnDisableModal@CToolTipCtrl@@IAEJIJ@Z 0042f121 f   nafxcw:tooltip.obj
 0001:0002e138       ?OnEnable@CToolTipCtrl@@IAEXH@Z 0042f138 f   nafxcw:tooltip.obj
 0001:0002e14f       ?OnWindowFromPoint@CToolTipCtrl@@IAEJIJ@Z 0042f14f f   nafxcw:tooltip.obj
 0001:0002e1c2       ?_EnableToolTips@CWnd@@QAEHHI@Z 0042f1c2 f   nafxcw:tooltip.obj
 0001:0002e265       ?EnableToolTips@CWnd@@QAEHH@Z 0042f265 f   nafxcw:tooltip.obj
 0001:0002e273       ?_AfxRelayToolTipMessage@@YGXPAVCToolTipCtrl@@PAUtagMSG@@@Z 0042f273 f   nafxcw:tooltip.obj
 0001:0002e2f5       ?_FilterToolTipMessage@CWnd@@SGXPAUtagMSG@@PAV1@@Z 0042f2f5 f   nafxcw:tooltip.obj
 0001:0002e305       ?FilterToolTipMessage@CWnd@@QAEXPAUtagMSG@@@Z 0042f305 f   nafxcw:tooltip.obj
 0001:0002e771       ??0CPtrList@@QAE@H@Z       0042f771 f   nafxcw:list_p.obj
 0001:0002e794       ??_GCPtrList@@UAEPAXI@Z    0042f794 f i nafxcw:list_p.obj
 0001:0002e794       ??_ECPtrList@@UAEPAXI@Z    0042f794 f i nafxcw:list_p.obj
 0001:0002e7b0       ?RemoveAll@CPtrList@@QAEXXZ 0042f7b0 f   nafxcw:list_p.obj
 0001:0002e7d0       ??1CPtrList@@UAE@XZ        0042f7d0 f   nafxcw:list_p.obj
 0001:0002e7f9       ?NewNode@CPtrList@@IAEPAUCNode@1@PAU21@0@Z 0042f7f9 f   nafxcw:list_p.obj
 0001:0002e851       ?FreeNode@CPtrList@@IAEXPAUCNode@1@@Z 0042f851 f   nafxcw:list_p.obj
 0001:0002e86a       ?AddTail@CPtrList@@QAEPAU__POSITION@@PAX@Z 0042f86a f   nafxcw:list_p.obj
 0001:0002e893       ?RemoveHead@CPtrList@@QAEPAXXZ 0042f893 f   nafxcw:list_p.obj
 0001:0002e8b7       ?RemoveAt@CPtrList@@QAEXPAU__POSITION@@@Z 0042f8b7 f   nafxcw:list_p.obj
 0001:0002e8ee       ?Find@CPtrList@@QBEPAU__POSITION@@PAXPAU2@@Z 0042f8ee f   nafxcw:list_p.obj
 0001:0002e911       ??0CPtrArray@@QAE@XZ       0042f911 f   nafxcw:array_p.obj
 0001:0002e928       ??_GCPtrArray@@UAEPAXI@Z   0042f928 f i nafxcw:array_p.obj
 0001:0002e928       ??_ECPtrArray@@UAEPAXI@Z   0042f928 f i nafxcw:array_p.obj
 0001:0002e944       ??1CPtrArray@@UAE@XZ       0042f944 f   nafxcw:array_p.obj
 0001:0002e971       ?SetSize@CPtrArray@@QAEXHH@Z 0042f971 f   nafxcw:array_p.obj
 0001:0002ea8a       ?SetAtGrow@CPtrArray@@QAEXHPAX@Z 0042fa8a f   nafxcw:array_p.obj
 0001:0002eab1       ?InsertAt@CPtrArray@@QAEXHPAXH@Z 0042fab1 f   nafxcw:array_p.obj
 0001:0002eb43       ?RemoveAt@CPtrArray@@QAEXHH@Z 0042fb43 f   nafxcw:array_p.obj
 0001:0002eb7a       ?Create@CPlex@@SGPAU1@AAPAU1@II@Z 0042fb7a f   nafxcw:plex.obj
 0001:0002eb9a       ?FreeDataChain@CPlex@@QAEXXZ 0042fb9a f   nafxcw:plex.obj
 0001:0002ebb0       ??0CMapPtrToPtr@@QAE@H@Z   0042fbb0 f   nafxcw:map_pp.obj
 0001:0002ebd7       ??_ECMapPtrToPtr@@UAEPAXI@Z 0042fbd7 f i nafxcw:map_pp.obj
 0001:0002ebd7       ??_GCMapPtrToPtr@@UAEPAXI@Z 0042fbd7 f i nafxcw:map_pp.obj
 0001:0002ebf3       ?InitHashTable@CMapStringToPtr@@QAEXIH@Z 0042fbf3 f   nafxcw:map_pp.obj
 0001:0002ebf3       ?InitHashTable@CMapPtrToPtr@@QAEXIH@Z 0042fbf3 f   nafxcw:map_pp.obj
 0001:0002ec38       ?RemoveAll@CMapPtrToPtr@@QAEXXZ 0042fc38 f   nafxcw:map_pp.obj
 0001:0002ec63       ??1CMapPtrToPtr@@UAE@XZ    0042fc63 f   nafxcw:map_pp.obj
 0001:0002ec8c       ?NewAssoc@CMapPtrToPtr@@IAEPAUCAssoc@1@XZ 0042fc8c f   nafxcw:map_pp.obj
 0001:0002ecd9       ?FreeAssoc@CMapPtrToPtr@@IAEXPAUCAssoc@1@@Z 0042fcd9 f   nafxcw:map_pp.obj
 0001:0002ecf2       ?GetAssocAt@CMapPtrToPtr@@IBEPAUCAssoc@1@PAXAAI@Z 0042fcf2 f   nafxcw:map_pp.obj
 0001:0002ed24       ?GetValueAt@CMapPtrToPtr@@QBEPAXPAX@Z 0042fd24 f   nafxcw:map_pp.obj
 0001:0002ed57       ??ACMapPtrToPtr@@QAEAAPAXPAX@Z 0042fd57 f   nafxcw:map_pp.obj
 0001:0002eda7       ?RemoveKey@CMapPtrToPtr@@QAEHPAX@Z 0042fda7 f   nafxcw:map_pp.obj
 0001:0002ede9       ?GetNextAssoc@CMapPtrToPtr@@QBEXAAPAU__POSITION@@AAPAX1@Z 0042fde9 f   nafxcw:map_pp.obj
 0001:0002ee5b       ??0CMapStringToPtr@@QAE@H@Z 0042fe5b f   nafxcw:map_sp.obj
 0001:0002ee82       ??_ECMapStringToPtr@@UAEPAXI@Z 0042fe82 f i nafxcw:map_sp.obj
 0001:0002ee82       ??_GCMapStringToPtr@@UAEPAXI@Z 0042fe82 f i nafxcw:map_sp.obj
 0001:0002ee9e       ?RemoveAll@CMapStringToPtr@@QAEXXZ 0042fe9e f   nafxcw:map_sp.obj
 0001:0002eef0       ??1CMapStringToPtr@@UAE@XZ 0042fef0 f   nafxcw:map_sp.obj
 0001:0002ef19       ?NewAssoc@CMapStringToPtr@@IAEPAUCAssoc@1@XZ 0042ff19 f   nafxcw:map_sp.obj
 0001:0002ef7b       ?GetAssocAt@CMapStringToPtr@@IBEPAUCAssoc@1@PBDAAI@Z 0042ff7b f   nafxcw:map_sp.obj
 0001:0002efd1       ?Lookup@CMapStringToPtr@@QBEHPBDAAPAX@Z 0042ffd1 f   nafxcw:map_sp.obj
 0001:0002eff3       ?LookupKey@CMapStringToPtr@@QBEHPBDAAPBD@Z 0042fff3 f   nafxcw:map_sp.obj
 0001:0002f015       ??ACMapStringToPtr@@QAEAAPAXPBD@Z 00430015 f   nafxcw:map_sp.obj
 0001:0002f077       ?AfxNewHandler@@YAHI@Z     00430077 f   nafxcw:afxmem.obj
 0001:0002f07f       ?AfxSetNewHandler@@YGP6AHI@ZP6AHI@Z@Z 0043007f f   nafxcw:afxmem.obj
 0001:0002f091       ??2@YAPAXI@Z               00430091 f   nafxcw:afxmem.obj
 0001:0002f0ba       ??3@YAXPAX@Z               004300ba f   nafxcw:afxmem.obj
 0001:0002f0c5       ?AfxDlgProc@@YGHPAUHWND__@@IIJ@Z 004300c5 f   nafxcw:dlgcore.obj
 0001:0002f0ff       ?GetMessageMap@CDialog@@MBEPBUAFX_MSGMAP@@XZ 004300ff f   nafxcw:dlgcore.obj
 0001:0002f105       ?PreTranslateMessage@CDialog@@UAEHPAUtagMSG@@@Z 00430105 f   nafxcw:dlgcore.obj
 0001:0002f19e       ?OnCmdMsg@CDialog@@UAEHIHPAXPAUAFX_CMDHANDLERINFO@@@Z 0043019e f   nafxcw:dlgcore.obj
 0001:0002f223       ??0CDialog@@QAE@XZ         00430223 f   nafxcw:dlgcore.obj
 0001:0002f245       ??_GCDialog@@UAEPAXI@Z     00430245 f i nafxcw:dlgcore.obj
 0001:0002f245       ??_ECDialog@@UAEPAXI@Z     00430245 f i nafxcw:dlgcore.obj
 0001:0002f261       ??1CDialog@@UAE@XZ         00430261 f   nafxcw:dlgcore.obj
 0001:0002f29f       ?Create@CDialog@@QAEHPBDPAVCWnd@@@Z 0043029f f   nafxcw:dlgcore.obj
 0001:0002f2ee       ?CreateIndirect@CDialog@@IAEHPAXPAVCWnd@@PAUHINSTANCE__@@@Z 004302ee f   nafxcw:dlgcore.obj
 0001:0002f311       ?CreateIndirect@CDialog@@IAEHPBUDLGTEMPLATE@@PAVCWnd@@PAXPAUHINSTANCE__@@@Z 00430311 f   nafxcw:dlgcore.obj
 0001:0002f33c       ?CreateDlg@CWnd@@IAEHPBDPAV1@@Z 0043033c f   nafxcw:dlgcore.obj
 0001:0002f380       ?CreateDlgIndirect@CWnd@@IAEHPBUDLGTEMPLATE@@PAV1@PAUHINSTANCE__@@@Z 00430380 f   nafxcw:dlgcore.obj
 0001:0002f5a2       ?SetOccDialogInfo@CDialog@@MAEHPAU_AFX_OCC_DIALOG_INFO@@@Z 004305a2 f   nafxcw:dlgcore.obj
 0001:0002f5af       ??0CDialog@@QAE@IPAVCWnd@@@Z 004305af f   nafxcw:dlgcore.obj
 0001:0002f5e8       ?PreModal@CDialog@@IAEPAUHWND__@@XZ 004305e8 f   nafxcw:dlgcore.obj
 0001:0002f622       ?PostModal@CDialog@@IAEXXZ 00430622 f   nafxcw:dlgcore.obj
 0001:0002f664       ?DoModal@CDialog@@UAEHXZ   00430664 f   nafxcw:dlgcore.obj
 0001:0002f7c4       ?EndDialog@CDialog@@QAEXH@Z 004307c4 f   nafxcw:dlgcore.obj
 0001:0002f7e7       ?HandleSetFont@CDialog@@IAEJIJ@Z 004307e7 f   nafxcw:dlgcore.obj
 0001:0002f80b       ?HandleInitDialog@CDialog@@IAEJIJ@Z 0043080b f   nafxcw:dlgcore.obj
 0001:0002f893       ?AfxHelpEnabled@@YGHXZ     00430893 f   nafxcw:dlgcore.obj
 0001:0002f8e9       ?OnInitDialog@CDialog@@UAEHXZ 004308e9 f   nafxcw:dlgcore.obj
 0001:0002f94e       ?OnOK@CDialog@@MAEXXZ      0043094e f   nafxcw:dlgcore.obj
 0001:0002f967       ?OnCancel@CDialog@@MAEXXZ  00430967 f   nafxcw:dlgcore.obj
 0001:0002f96f       ?CheckAutoCenter@CDialog@@UAEHXZ 0043096f f   nafxcw:dlgcore.obj
 0001:0002f9eb       ?OnCtlColor@CDialog@@IAEPAUHBRUSH__@@PAVCDC@@PAVCWnd@@I@Z 004309eb f   nafxcw:dlgcore.obj
 0001:0002f9ff       ?OnCommandHelp@CDialog@@IAEJIJ@Z 004309ff f   nafxcw:dlgcore.obj
 0001:0002fa3d       ?OnHelpHitTest@CDialog@@IAEJIJ@Z 00430a3d f   nafxcw:dlgcore.obj
 0001:0002fb5e       ??0CWnd@@QAE@XZ            00430b5e f   nafxcw:wincore.obj
 0001:0002fb80       ??_GCWnd@@UAEPAXI@Z        00430b80 f i nafxcw:wincore.obj
 0001:0002fb80       ??_ECWnd@@UAEPAXI@Z        00430b80 f i nafxcw:wincore.obj
 0001:0002fb9c       ??0CWnd@@AAE@PAUHWND__@@@Z 00430b9c f   nafxcw:wincore.obj
 0001:0002fbc8       ?_AfxModifyStyle@@YGHPAUHWND__@@HKKI@Z 00430bc8 f   nafxcw:wincore.obj
 0001:0002fc17       ?ModifyStyle@CWnd@@SGHPAUHWND__@@KKI@Z 00430c17 f   nafxcw:wincore.obj
 0001:0002fc31       ?ModifyStyleEx@CWnd@@SGHPAUHWND__@@KKI@Z 00430c31 f   nafxcw:wincore.obj
 0001:0002fc4b       ?_AfxPreInitDialog@@YGXPAVCWnd@@PAUtagRECT@@PAK@Z 00430c4b f   nafxcw:wincore.obj
 0001:0002fc6e       ?_AfxPostInitDialog@@YGXPAVCWnd@@ABUtagRECT@@K@Z 00430c6e f   nafxcw:wincore.obj
 0001:0002fce7       ?_AfxHandleActivate@@YGXPAVCWnd@@I0@Z 00430ce7 f   nafxcw:wincore.obj
 0001:0002fd48       ?_AfxHandleSetCursor@@YGHPAVCWnd@@II@Z 00430d48 f   nafxcw:wincore.obj
 0001:0002fdbe       ?AfxCallWndProc@@YGJPAVCWnd@@PAUHWND__@@IIJ@Z 00430dbe f   nafxcw:wincore.obj
 0001:0002feb1       ?GetCurrentMessage@CWnd@@KGPBUtagMSG@@XZ 00430eb1 f   nafxcw:wincore.obj
 0001:0002fee6       ?Default@CWnd@@IAEJXZ      00430ee6 f   nafxcw:wincore.obj
 0001:0002ff0d       ?afxMapHWND@@YGPAVCHandleMap@@H@Z 00430f0d f   nafxcw:wincore.obj
 0001:0002ff7f       ?FromHandle@CWnd@@SGPAV1@PAUHWND__@@@Z 00430f7f f   nafxcw:wincore.obj
 0001:0002ffa6       ?FromHandlePermanent@CWnd@@SGPAV1@PAUHWND__@@@Z 00430fa6 f   nafxcw:wincore.obj
 0001:0002ffc4       ?Attach@CWnd@@QAEHPAUHWND__@@@Z 00430fc4 f   nafxcw:wincore.obj
 0001:0002fffd       ?Detach@CWnd@@QAEPAUHWND__@@XZ 00430ffd f   nafxcw:wincore.obj
 0001:0003002b       ?AfxWndProc@@YGJPAUHWND__@@IIJ@Z 0043102b f   nafxcw:wincore.obj
 0001:0003005a       ?AfxGetAfxWndProc@@YGP6GJPAUHWND__@@IIJ@ZXZ 0043105a f   nafxcw:wincore.obj
 0001:00030060       ?_AfxActivationWndProc@@YGJPAUHWND__@@IIJ@Z 00431060 f   nafxcw:wincore.obj
 0001:000301bf       ?_AfxGrayBackgroundWndProc@@YGJPAUHWND__@@IIJ@Z 004311bf f   nafxcw:wincore.obj
 0001:0003023b       ?_AfxCbtFilterHook@@YGJHIJ@Z 0043123b f   nafxcw:wincore.obj
 0001:00030431       ?AfxHookWindowCreate@@YGXPAVCWnd@@@Z 00431431 f   nafxcw:wincore.obj
 0001:0003047d       ?AfxUnhookWindowCreate@@YGHXZ 0043147d f   nafxcw:wincore.obj
 0001:000304bf       ?CreateEx@CWnd@@QAEHKPBD0KHHHHPAUHWND__@@PAUHMENU__@@PAX@Z 004314bf f   nafxcw:wincore.obj
 0001:00030585       ?PreCreateWindow@CWnd@@UAEHAAUtagCREATESTRUCTA@@@Z 00431585 f   nafxcw:wincore.obj
 0001:000305a5       ?Create@CWnd@@UAEHPBD0KABUtagRECT@@PAV1@IPAUCCreateContext@@@Z 004315a5 f   nafxcw:wincore.obj
 0001:000305f1       ??1CWnd@@UAE@XZ            004315f1 f   nafxcw:wincore.obj
 0001:0003066d       ?OnDestroy@CWnd@@IAEXXZ    0043166d f   nafxcw:wincore.obj
 0001:0003068b       ?OnNcDestroy@CWnd@@IAEXXZ  0043168b f   nafxcw:wincore.obj
 0001:0003079d       ?PostNcDestroy@CWnd@@MAEXXZ 0043179d f   nafxcw:wincore.obj
 0001:0003079d       ?PreInitDialog@CDialog@@MAEXXZ 0043179d f   nafxcw:wincore.obj
 0001:0003079d       ?PreSubclassWindow@CWnd@@UAEXXZ 0043179d f   nafxcw:wincore.obj
 0001:0003079e       ?OnFinalRelease@CWnd@@UAEXXZ 0043179e f   nafxcw:wincore.obj
 0001:000307af       ?DestroyWindow@CWnd@@UAEHXZ 004317af f   nafxcw:wincore.obj
 0001:000307fc       ?DefWindowProcA@CWnd@@MAEJIIJ@Z 004317fc f   nafxcw:wincore.obj
 0001:00030843       ?GetSuperWndProcAddr@CWnd@@MAEPAP6GJPAUHWND__@@IIJ@ZXZ 00431843 f   nafxcw:wincore.obj
 0001:00030847       ?PreTranslateMessage@CWnd@@UAEHPAUtagMSG@@@Z 00431847 f   nafxcw:wincore.obj
 0001:00030866       ?CancelToolTips@CWnd@@SGXH@Z 00431866 f   nafxcw:wincore.obj
 0001:000308bd       ?OnToolHitTest@CWnd@@UBEHVCPoint@@PAUtagTOOLINFOA@@@Z 004318bd f   nafxcw:wincore.obj
 0001:0003092e       ?GetWindowTextA@CWnd@@QBEXAAVCString@@@Z 0043192e f   nafxcw:wincore.obj
 0001:00030976       ?OnDrawItem@CWnd@@IAEXHPAUtagDRAWITEMSTRUCT@@@Z 00431976 f   nafxcw:wincore.obj
 0001:000309b3       ?OnCompareItem@CWnd@@IAEHHPAUtagCOMPAREITEMSTRUCT@@@Z 004319b3 f   nafxcw:wincore.obj
 0001:000309dd       ?OnDeleteItem@CWnd@@IAEXHPAUtagDELETEITEMSTRUCT@@@Z 004319dd f   nafxcw:wincore.obj
 0001:000309fd       ?OnVKeyToItem@CWnd@@IAEHIPAVCListBox@@I@Z 004319fd f   nafxcw:wincore.obj
 0001:000309fd       ?OnCharToItem@CWnd@@IAEHIPAVCListBox@@I@Z 004319fd f   nafxcw:wincore.obj
 0001:00030a28       ?_AfxFindPopupMenuFromID@@YGPAVCMenu@@PAV1@I@Z 00431a28 f   nafxcw:wincore.obj
 0001:00030a8b       ?OnMeasureItem@CWnd@@IAEXHPAUtagMEASUREITEMSTRUCT@@@Z 00431a8b f   nafxcw:wincore.obj
 0001:00030b03       ?AfxRegisterClass@@YGHPAUtagWNDCLASSA@@@Z 00431b03 f   nafxcw:wincore.obj
 0001:00030ba4       ?AfxRegisterWndClass@@YGPBDIPAUHICON__@@PAUHBRUSH__@@0@Z 00431ba4 f   nafxcw:wincore.obj
 0001:00030c58       ?OnNTCtlColor@CWnd@@IAEJIJ@Z 00431c58 f   nafxcw:wincore.obj
 0001:00030c9e       ?WinHelpA@CWnd@@UAEXKI@Z   00431c9e f   nafxcw:wincore.obj
 0001:00030d80       ?GetMessageMap@CWnd@@MBEPBUAFX_MSGMAP@@XZ 00431d80 f   nafxcw:wincore.obj
 0001:00030d86       ?AfxFindMessageEntry@@YGPBUAFX_MSGMAP_ENTRY@@PBU1@III@Z 00431d86 f   nafxcw:wincore.obj
 0001:00030dc6       ?WindowProc@CWnd@@MAEJIIJ@Z 00431dc6 f   nafxcw:wincore.obj
 0001:00030e0a       ?OnWndMsg@CWnd@@MAEHIIJPAJ@Z 00431e0a f   nafxcw:wincore.obj
 0001:0003137c       ??0CTestCmdUI@@QAE@XZ      0043237c f   nafxcw:wincore.obj
 0001:00031395       ?Enable@CTestCmdUI@@UAEXH@Z 00432395 f   nafxcw:wincore.obj
 0001:000313a6       ?DrawItem@CMenu@@UAEXPAUtagDRAWITEMSTRUCT@@@Z 004323a6 f   nafxcw:wincore.obj
 0001:000313a6       ?SetText@CTestCmdUI@@UAEXPBD@Z 004323a6 f   nafxcw:wincore.obj
 0001:000313a6       ?MeasureItem@CMenu@@UAEXPAUtagMEASUREITEMSTRUCT@@@Z 004323a6 f   nafxcw:wincore.obj
 0001:000313a6       ?SetRadio@CTestCmdUI@@UAEXH@Z 004323a6 f   nafxcw:wincore.obj
 0001:000313a6       ?OnSetFont@CDialog@@UAEXPAVCFont@@@Z 004323a6 f   nafxcw:wincore.obj
 0001:000313a6       ?SetCheck@CTestCmdUI@@UAEXH@Z 004323a6 f   nafxcw:wincore.obj
 0001:000313a9       ?OnCommand@CWnd@@MAEHIJ@Z  004323a9 f   nafxcw:wincore.obj
 0001:00031435       ?OnNotify@CWnd@@MAEHIJPAJ@Z 00432435 f   nafxcw:wincore.obj
 0001:000314af       ?GetParentFrame@CWnd@@QBEPAVCFrameWnd@@XZ 004324af f   nafxcw:wincore.obj
 0001:000314ed       ?AfxGetParentOwner@@YGPAUHWND__@@PAU1@@Z 004324ed f   nafxcw:wincore.obj
 0001:00031532       ?GetTopLevelParent@CWnd@@QBEPAV1@XZ 00432532 f   nafxcw:wincore.obj
 0001:0003155a       ?GetParentOwner@CWnd@@QBEPAV1@XZ 0043255a f   nafxcw:wincore.obj
 0001:0003159e       ?IsTopParentActive@CWnd@@QBEHXZ 0043259e f   nafxcw:wincore.obj
 0001:000315d2       ?ActivateTopParent@CWnd@@QAEXXZ 004325d2 f   nafxcw:wincore.obj
 0001:0003160f       ?GetTopLevelFrame@CWnd@@QBEPAVCFrameWnd@@XZ 0043260f f   nafxcw:wincore.obj
 0001:00031650       ?GetDescendantWindow@CWnd@@SGPAV1@PAUHWND__@@HH@Z 00432650 f   nafxcw:wincore.obj
 0001:000316c9       ?SendMessageToDescendants@CWnd@@SGXPAUHWND__@@IIJHH@Z 004326c9 f   nafxcw:wincore.obj
 0001:00031746       ?SetScrollPos@CWnd@@QAEHHHH@Z 00432746 f   nafxcw:wincore.obj
 0001:00031776       ?GetScrollPos@CWnd@@QBEHH@Z 00432776 f   nafxcw:wincore.obj
 0001:0003179e       ?SetScrollRange@CWnd@@QAEXHHHH@Z 0043279e f   nafxcw:wincore.obj
 0001:000317d1       ?GetScrollRange@CWnd@@QBEXHPAH0@Z 004327d1 f   nafxcw:wincore.obj
 0001:00031801       ?EnableScrollBarCtrl@CWnd@@QAEXHH@Z 00432801 f   nafxcw:wincore.obj
 0001:00031844       ?SetScrollInfo@CWnd@@QAEHHPAUtagSCROLLINFO@@H@Z 00432844 f   nafxcw:wincore.obj
 0001:00031891       ?GetScrollInfo@CWnd@@QAEHHPAUtagSCROLLINFO@@I@Z 00432891 f   nafxcw:wincore.obj
 0001:000318de       ?GetScrollLimit@CWnd@@QAEHH@Z 004328de f   nafxcw:wincore.obj
 0001:00031925       ?ScrollWindow@CWnd@@QAEXHHPBUtagRECT@@0@Z 00432925 f   nafxcw:wincore.obj
 0001:000319cb       ?RepositionBars@CWnd@@QAEXIIIIPAUtagRECT@@PBU2@H@Z 004329cb f   nafxcw:wincore.obj
 0001:00031b05       ?AfxRepositionWindow@@YGXPAUAFX_SIZEPARENTPARAMS@@PAUHWND__@@PBUtagRECT@@@Z 00432b05 f   nafxcw:wincore.obj
 0001:00031b9f       ?CalcWindowRect@CWnd@@UAEXPAUtagRECT@@I@Z 00432b9f f   nafxcw:wincore.obj
 0001:00031bca       ?HandleFloatingSysCommand@CWnd@@QAEHIJ@Z 00432bca f   nafxcw:wincore.obj
 0001:00031c8c       ?WalkPreTranslateTree@CWnd@@SGHPAUHWND__@@PAUtagMSG@@@Z 00432c8c f   nafxcw:wincore.obj
 0001:00031cce       ?SendChildNotifyLastMsg@CWnd@@QAEHPAJ@Z 00432cce f   nafxcw:wincore.obj
 0001:00031cfb       ?ReflectLastMsg@CWnd@@KGHPAUHWND__@@PAJ@Z 00432cfb f   nafxcw:wincore.obj
 0001:00031d9f       ?OnChildNotify@CWnd@@MAEHIIJPAJ@Z 00432d9f f   nafxcw:wincore.obj
 0001:00031dfa       ?ReflectChildNotify@CWnd@@IAEHIIJPAJ@Z 00432dfa f   nafxcw:wincore.obj
 0001:00031ee2       ?OnParentNotify@CWnd@@IAEXIJ@Z 00432ee2 f   nafxcw:wincore.obj
 0001:00031f0f       ?OnActivateTopLevel@CWnd@@IAEJIJ@Z 00432f0f f   nafxcw:wincore.obj
 0001:00031f31       ?OnSysColorChange@CWnd@@IAEXXZ 00432f31 f   nafxcw:wincore.obj
 0001:00031fae       ?OnSettingChange@CWnd@@IAEXIPBD@Z 00432fae f   nafxcw:wincore.obj
 0001:00032001       ?OnDevModeChange@CWnd@@IAEXPAD@Z 00433001 f   nafxcw:wincore.obj
 0001:0003204c       ?OnHelpInfo@CWnd@@IAEHPAUtagHELPINFO@@@Z 0043304c f   nafxcw:wincore.obj
 0001:000320b0       ?OnDisplayChange@CWnd@@IAEJIJ@Z 004330b0 f   nafxcw:wincore.obj
 0001:000320f9       ?OnDragList@CWnd@@IAEJIJ@Z 004330f9 f   nafxcw:wincore.obj
 0001:00032123       ?OnVScroll@CWnd@@IAEXIIPAVCScrollBar@@@Z 00433123 f   nafxcw:wincore.obj
 0001:00032123       ?OnHScroll@CWnd@@IAEXIIPAVCScrollBar@@@Z 00433123 f   nafxcw:wincore.obj
 0001:00032144       ?OnEnterIdle@CWnd@@IAEXIPAV1@@Z 00433144 f   nafxcw:wincore.obj
 0001:0003218e       ?OnCtlColor@CWnd@@IAEPAUHBRUSH__@@PAVCDC@@PAV1@I@Z 0043318e f   nafxcw:wincore.obj
 0001:000321b5       ?OnGrayCtlColor@CWnd@@QAEPAUHBRUSH__@@PAVCDC@@PAV1@I@Z 004331b5 f   nafxcw:wincore.obj
 0001:00032218       ?GrayCtlColor@CWnd@@SGHPAUHDC__@@PAUHWND__@@IPAUHBRUSH__@@K@Z 00433218 f   nafxcw:wincore.obj
 0001:0003228d       ?OnQuery3dControls@CWnd@@IAEJIJ@Z 0043328d f   nafxcw:wincore.obj
 0001:00032295       ?UpdateData@CWnd@@QAEHH@Z  00433295 f   nafxcw:wincore.obj
 0001:00032337       ??0CDataExchange@@QAE@PAVCWnd@@H@Z 00433337 f   nafxcw:wincore.obj
 0001:0003234d       ?CenterWindow@CWnd@@QAEXPAV1@@Z 0043334d f   nafxcw:wincore.obj
 0001:00032502       ?ExecuteDlgInit@CWnd@@QAEHPBD@Z 00433502 f   nafxcw:wincore.obj
 0001:00032552       ?ExecuteDlgInit@CWnd@@QAEHPAX@Z 00433552 f   nafxcw:wincore.obj
 0001:00032624       ?UpdateDialogControls@CWnd@@QAEXPAVCCmdTarget@@H@Z 00433624 f   nafxcw:wincore.obj
 0001:00032729       ?PreTranslateInput@CWnd@@QAEHPAUtagMSG@@@Z 00433729 f   nafxcw:wincore.obj
 0001:00032759       ?RunModalLoop@CWnd@@QAEHK@Z 00433759 f   nafxcw:wincore.obj
 0001:000328b8       ?ContinueModal@CWnd@@UAEHXZ 004338b8 f   nafxcw:wincore.obj
 0001:000328bf       ?EndModalLoop@CWnd@@UAEXH@Z 004338bf f   nafxcw:wincore.obj
 0001:000328e3       ?_AfxRegisterWithIcon@@YGHPAUtagWNDCLASSA@@PBDI@Z 004338e3 f   nafxcw:wincore.obj
 0001:00032924       ?_AfxInitCommonControls@@YGJPAUtagINITCOMMONCONTROLSEX@@J@Z 00433924 f   nafxcw:wincore.obj
 0001:0003299b       ?AfxEndDeferRegisterClass@@YGHJ@Z 0043399b f   nafxcw:wincore.obj
 0001:00032c52       ?IsTracking@CFrameWnd@@QBEHXZ 00433c52 f   nafxcw:wincore.obj
 0001:00032c71       ?SubclassWindow@CWnd@@QAEHPAUHWND__@@@Z 00433c71 f   nafxcw:wincore.obj
 0001:00032cb4       ?UnsubclassWindow@CWnd@@QAEPAUHWND__@@XZ 00433cb4 f   nafxcw:wincore.obj
 0001:00032cdc       ??3CTempWnd@@SAXPAX@Z      00433cdc f i nafxcw:wincore.obj
 0001:00032ceb       ??0CCmdTarget@@QAE@XZ      00433ceb f   nafxcw:cmdtarg.obj
 0001:00032d05       ??1CCmdTarget@@UAE@XZ      00433d05 f   nafxcw:cmdtarg.obj
 0001:00032d30       ?_AfxDispatchCmdMsg@@YGHPAVCCmdTarget@@IHP81@AEXXZPAXIPAUAFX_CMDHANDLERINFO@@@Z 00433d30 f   nafxcw:cmdtarg.obj
 0001:00032e37       ?OnCmdMsg@CCmdTarget@@UAEHIHPAXPAUAFX_CMDHANDLERINFO@@@Z 00433e37 f   nafxcw:cmdtarg.obj
 0001:00032f46       ?IsInvokeAllowed@CCmdTarget@@UAEHJ@Z 00433f46 f   nafxcw:cmdtarg.obj
 0001:00032f4c       ?GetTypeLib@CCmdTarget@@UAEJKPAPAUITypeLib@@@Z 00433f4c f   nafxcw:cmdtarg.obj
 0001:00032f54       ?BeginWaitCursor@CCmdTarget@@QAEXXZ 00433f54 f   nafxcw:cmdtarg.obj
 0001:00032f69       ?EndWaitCursor@CCmdTarget@@QAEXXZ 00433f69 f   nafxcw:cmdtarg.obj
 0001:00032f7e       ?GetMessageMap@CCmdTarget@@MBEPBUAFX_MSGMAP@@XZ 00433f7e f   nafxcw:cmdtarg.obj
 0001:00032f84       ?GetDispatchMap@CCmdTarget@@MBEPBUAFX_DISPMAP@@XZ 00433f84 f   nafxcw:cmdtarg.obj
 0001:00032f8a       ?GetEventSinkMap@CCmdTarget@@MBEPBUAFX_EVENTSINKMAP@@XZ 00433f8a f   nafxcw:cmdtarg.obj
 0001:00032f90       ?GetInterfaceMap@CCmdTarget@@MBEPBUAFX_INTERFACEMAP@@XZ 00433f90 f   nafxcw:cmdtarg.obj
 0001:00032f96       ?OnFinalRelease@CCmdTarget@@UAEXXZ 00433f96 f   nafxcw:cmdtarg.obj
 0001:00032fc8       ?OnCreateAggregates@CCmdTarget@@UAEHXZ 00433fc8 f   nafxcw:cmdtarg.obj
 0001:00032fc8       ?IsFrameWnd@CFrameWnd@@UBEHXZ 00433fc8 f   nafxcw:cmdtarg.obj
 0001:00032fc8       ?CheckAutoCenter@CWnd@@UAEHXZ 00433fc8 f   nafxcw:cmdtarg.obj
 0001:00032fcc       ?GetConnectionMap@CCmdTarget@@MBEPBUAFX_CONNECTIONMAP@@XZ 00433fcc f   nafxcw:cmdtarg.obj
 0001:00032fd2       ?GetInterfaceHook@CCmdTarget@@UAEPAUIUnknown@@PBX@Z 00433fd2 f   nafxcw:cmdtarg.obj
 0001:00032fd2       ?GetConnectionHook@CCmdTarget@@MAEPAUIConnectionPoint@@ABU_GUID@@@Z 00433fd2 f   nafxcw:cmdtarg.obj
 0001:00032fd2       ?GetExtraConnectionPoints@CCmdTarget@@MAEHPAVCPtrArray@@@Z 00433fd2 f   nafxcw:cmdtarg.obj
 0001:00032fd2       ?GetScrollBarCtrl@CWnd@@UBEPAVCScrollBar@@H@Z 00433fd2 f   nafxcw:cmdtarg.obj
 0001:00032fd2       ?GetDispatchIID@CCmdTarget@@UAEHPAU_GUID@@@Z 00433fd2 f   nafxcw:cmdtarg.obj
 0001:00032fd2       ?SetOccDialogInfo@CWnd@@MAEHPAU_AFX_OCC_DIALOG_INFO@@@Z 00433fd2 f   nafxcw:cmdtarg.obj
 0001:00032fd7       ?GetCommandMap@CCmdTarget@@MBEPBUAFX_OLECMDMAP@@XZ 00433fd7 f   nafxcw:cmdtarg.obj
 0001:00032fdd       ??0CCmdUI@@QAE@XZ          00433fdd f   nafxcw:cmdtarg.obj
 0001:00033003       ?Enable@CCmdUI@@UAEXH@Z    00434003 f   nafxcw:cmdtarg.obj
 0001:00033093       ?SetCheck@CCmdUI@@UAEXH@Z  00434093 f   nafxcw:cmdtarg.obj
 0001:000330f5       ?SetRadio@CCmdUI@@UAEXH@Z  004340f5 f   nafxcw:cmdtarg.obj
 0001:0003314b       ?SetText@CCmdUI@@UAEXPBD@Z 0043414b f   nafxcw:cmdtarg.obj
 0001:000331a2       ?DoUpdate@CCmdUI@@QAEHPAVCCmdTarget@@H@Z 004341a2 f   nafxcw:cmdtarg.obj
 0001:00033203       ?OnAmbientProperty@CWnd@@UAEHPAVCOleControlSite@@JPAUtagVARIANT@@@Z 00434203 f   nafxcw:winocc.obj
 0001:0003321a       ?GetDlgItem@CWnd@@QBEPAV1@H@Z 0043421a f   nafxcw:winocc.obj
 0001:00033244       ?GetDlgItem@CWnd@@QBEXHPAPAUHWND__@@@Z 00434244 f   nafxcw:winocc.obj
 0001:00033272       ?SetDlgItemTextA@CWnd@@QAEXHPBD@Z 00434272 f   nafxcw:winocc.obj
 0001:000332a1       ?IsDialogMessageA@CWnd@@QAEHPAUtagMSG@@@Z 004342a1 f   nafxcw:winocc.obj
 0001:000332d4       ?GetStyle@CWnd@@QBEKXZ     004342d4 f   nafxcw:winocc.obj
 0001:000332ee       ?GetExStyle@CWnd@@QBEKXZ   004342ee f   nafxcw:winocc.obj
 0001:00033308       ?ModifyStyle@CWnd@@QAEHKKI@Z 00434308 f   nafxcw:winocc.obj
 0001:00033339       ?ModifyStyleEx@CWnd@@QAEHKKI@Z 00434339 f   nafxcw:winocc.obj
 0001:0003336a       ?SetWindowTextA@CWnd@@QAEXPBD@Z 0043436a f   nafxcw:winocc.obj
 0001:00033391       ?GetWindowTextA@CWnd@@QBEHPADH@Z 00434391 f   nafxcw:winocc.obj
 0001:000333c0       ?GetDlgCtrlID@CWnd@@QBEHXZ 004343c0 f   nafxcw:winocc.obj
 0001:000333db       ?SetDlgCtrlID@CWnd@@QAEHH@Z 004343db f   nafxcw:winocc.obj
 0001:00033404       ?MoveWindow@CWnd@@QAEXHHHHH@Z 00434404 f   nafxcw:winocc.obj
 0001:00033445       ?SetWindowPos@CWnd@@QAEHPBV1@HHHHI@Z 00434445 f   nafxcw:winocc.obj
 0001:00033494       ?ShowWindow@CWnd@@QAEHH@Z  00434494 f   nafxcw:winocc.obj
 0001:000334bb       ?IsWindowEnabled@CWnd@@QBEHXZ 004344bb f   nafxcw:winocc.obj
 0001:000334d6       ?EnableWindow@CWnd@@QAEHH@Z 004344d6 f   nafxcw:winocc.obj
 0001:000334fd       ?SetFocus@CWnd@@QAEPAV1@XZ 004344fd f   nafxcw:winocc.obj
 0001:0003351e       ?InvokeHelper@CWnd@@QAAXJGGPAXPBEZZ 0043451e f   nafxcw:winocc.obj
 0001:00033545       ?GetProperty@CWnd@@QBEXJGPAX@Z 00434545 f   nafxcw:winocc.obj
 0001:00033567       ?AttachControlSite@CWnd@@IAEXPAVCHandleMap@@@Z 00434567 f   nafxcw:winocc.obj
 0001:000335a4       ?AttachControlSite@CWnd@@QAEXPAV1@@Z 004345a4 f   nafxcw:winocc.obj
 0001:000335c3       ?AttachControlSite@COleControlContainer@@UAEXPAVCWnd@@@Z 004345c3 f   nafxcw:winocc.obj
 0001:000335f1       ??0CString@@QAE@ABV0@@Z    004345f1 f   nafxcw:strcore.obj
 0001:000336e9       ?AllocBuffer@CString@@IAEXH@Z 004346e9 f   nafxcw:strcore.obj
 0001:0003376b       ?FreeData@CString@@KIXPAUCStringData@@@Z 0043476b f   nafxcw:strcore.obj
 0001:000337b3       ?Release@CString@@IAEXXZ   004347b3 f   nafxcw:strcore.obj
 0001:000337e4       ?Release@CString@@KGXPAUCStringData@@@Z 004347e4 f   nafxcw:strcore.obj
 0001:00033807       ?Empty@CString@@QAEXXZ     00434807 f   nafxcw:strcore.obj
 0001:00033825       ?CopyBeforeWrite@CString@@IAEXXZ 00434825 f   nafxcw:strcore.obj
 0001:00033853       ?AllocBeforeWrite@CString@@IAEXH@Z 00434853 f   nafxcw:strcore.obj
 0001:0003387c       ??1CString@@QAE@XZ         0043487c f   nafxcw:strcore.obj
 0001:000338a6       ?AllocCopy@CString@@IBEXAAV1@HHH@Z 004348a6 f   nafxcw:strcore.obj
 0001:000338ea       ??0CString@@QAE@PBD@Z      004348ea f   nafxcw:strcore.obj
 0001:0003393c       ??0CString@@QAE@PBG@Z      0043493c f   nafxcw:strcore.obj
 0001:00033988       ?AssignCopy@CString@@IAEXHPBD@Z 00434988 f   nafxcw:strcore.obj
 0001:000339b5       ??4CString@@QAEABV0@ABV0@@Z 004349b5 f   nafxcw:strcore.obj
 0001:00033a05       ??4CString@@QAEABV0@PBD@Z  00434a05 f   nafxcw:strcore.obj
 0001:00033a2c       ??4CString@@QAEABV0@PBG@Z  00434a2c f   nafxcw:strcore.obj
 0001:00033a6d       ?ConcatCopy@CString@@IAEXHPBDH0@Z 00434a6d f   nafxcw:strcore.obj
 0001:00033aab       ??H@YG?AVCString@@ABV0@0@Z 00434aab f   nafxcw:strcore.obj
 0001:00033b11       ??H@YG?AVCString@@ABV0@PBD@Z 00434b11 f   nafxcw:strcore.obj
 0001:00033b85       ?ConcatInPlace@CString@@IAEXHPBD@Z 00434b85 f   nafxcw:strcore.obj
 0001:00033be4       ??YCString@@QAEABV0@PBD@Z  00434be4 f   nafxcw:strcore.obj
 0001:00033c0b       ??YCString@@QAEABV0@D@Z    00434c0b f   nafxcw:strcore.obj
 0001:00033c20       ??YCString@@QAEABV0@ABV0@@Z 00434c20 f   nafxcw:strcore.obj
 0001:00033c38       ?GetBuffer@CString@@QAEPADH@Z 00434c38 f   nafxcw:strcore.obj
 0001:00033c87       ?ReleaseBuffer@CString@@QAEXH@Z 00434c87 f   nafxcw:strcore.obj
 0001:00033caf       ?GetBufferSetLength@CString@@QAEPADH@Z 00434caf f   nafxcw:strcore.obj
 0001:00033ccf       ?Find@CString@@QBEHD@Z     00434ccf f   nafxcw:strcore.obj
 0001:00033cdd       ?Find@CString@@QBEHDH@Z    00434cdd f   nafxcw:strcore.obj
 0001:00033d0a       ?FindOneOf@CString@@QBEHPBD@Z 00434d0a f   nafxcw:strcore.obj
 0001:00033d2a       ?_wcstombsz@@YAHPADPBGI@Z  00434d2a f   nafxcw:strcore.obj
 0001:00033d60       ?_mbstowcsz@@YAHPAGPBDI@Z  00434d60 f   nafxcw:strcore.obj
 0001:00033d95       ?_AfxThreadEntry@@YGIPAX@Z 00434d95 f   nafxcw:thrdcore.obj
 0001:00033ec3       ?AfxGetThread@@YGPAVCWinThread@@XZ 00434ec3 f   nafxcw:thrdcore.obj
 0001:00033ed8       ?AfxBeginThread@@YGPAVCWinThread@@P6AIPAX@Z0HIKPAU_SECURITY_ATTRIBUTES@@@Z 00434ed8 f   nafxcw:thrdcore.obj
 0001:00033f59       ?AfxEndThread@@YGXIH@Z     00434f59 f   nafxcw:thrdcore.obj
 0001:00033f9e       ?AfxInitThread@@YGXXZ      00434f9e f   nafxcw:thrdcore.obj
 0001:00033ffd       ?AfxTermThread@@YGXPAUHINSTANCE__@@@Z 00434ffd f   nafxcw:thrdcore.obj
 0001:00034061       ?CreateThread@CWinThread@@QAEHKIPAU_SECURITY_ATTRIBUTES@@@Z 00435061 f   nafxcw:thrdcore.obj
 0001:00034143       ?Delete@CWinThread@@UAEXXZ 00435143 f   nafxcw:thrdcore.obj
 0001:00034155       ?InitInstance@CWinThread@@UAEHXZ 00435155 f   nafxcw:thrdcore.obj
 0001:00034155       ?GetTypeLibCache@CCmdTarget@@UAEPAVCTypeLibCache@@XZ 00435155 f   nafxcw:thrdcore.obj
 0001:00034155       ?IsFrameWnd@CWnd@@UBEHXZ   00435155 f   nafxcw:thrdcore.obj
 0001:00034155       ?GetTypeInfoCount@CCmdTarget@@UAEIXZ 00435155 f   nafxcw:thrdcore.obj
 0001:00034158       ?Run@CWinThread@@UAEHXZ    00435158 f   nafxcw:thrdcore.obj
 0001:000341d7       ?IsIdleMessage@CWinThread@@UAEHPAUtagMSG@@@Z 004351d7 f   nafxcw:thrdcore.obj
 0001:00034230       ?ExitInstance@CWinThread@@UAEHXZ 00435230 f   nafxcw:thrdcore.obj
 0001:00034234       ?OnIdle@CWinThread@@UAEHJ@Z 00435234 f   nafxcw:thrdcore.obj
 0001:0003433f       ?DispatchThreadMessageEx@CWinThread@@IAEHPAUtagMSG@@@Z 0043533f f   nafxcw:thrdcore.obj
 0001:000343ba       ?PreTranslateMessage@CWinThread@@UAEHPAUtagMSG@@@Z 004353ba f   nafxcw:thrdcore.obj
 0001:00034417       ?ProcessWndProcException@CWinThread@@UAEJPAVCException@@PBUtagMSG@@@Z 00435417 f   nafxcw:thrdcore.obj
 0001:0003443c       ?_AfxMsgFilterHook@@YGJHIJ@Z 0043543c f   nafxcw:thrdcore.obj
 0001:00034494       ?IsHelpKey@@YGHPAUtagMSG@@@Z 00435494 f   nafxcw:thrdcore.obj
 0001:000344df       ?ProcessMessageFilter@CWinThread@@UAEHHPAUtagMSG@@@Z 004354df f   nafxcw:thrdcore.obj
 0001:00034629       ?GetMainWnd@CWinThread@@UAEPAVCWnd@@XZ 00435629 f   nafxcw:thrdcore.obj
 0001:00034644       ?PumpMessage@CWinThread@@UAEHXZ 00435644 f   nafxcw:thrdcore.obj
 0001:00034684       ?GetMessageMap@CWinApp@@MBEPBUAFX_MSGMAP@@XZ 00435684 f   nafxcw:appcore.obj
 0001:0003468a       ?Run@CWinApp@@UAEHXZ       0043568a f   nafxcw:appcore.obj
 0001:000346ac       ?WinHelpA@CWinApp@@UAEXKI@Z 004356ac f   nafxcw:appcore.obj
 0001:000346e3       ?ProcessWndProcException@CWinApp@@UAEJPAVCException@@PBUtagMSG@@@Z 004356e3 f   nafxcw:appcore.obj
 0001:0003475a       ?OnIdle@CWinApp@@UAEHJ@Z   0043575a f   nafxcw:appcore.obj
 0001:000347c4       ?DevModeChange@CWinApp@@QAEXPAD@Z 004357c4 f   nafxcw:appcore.obj
 0001:00034871       ??0CException@@QAE@XZ      00435871 f   nafxcw:except.obj
 0001:0003487b       ??0CException@@QAE@H@Z     0043587b f   nafxcw:except.obj
 0001:00034887       ?Delete@CException@@QAEXXZ 00435887 f   nafxcw:except.obj
 0001:00034899       ?ReportError@CException@@UAEHII@Z 00435899 f   nafxcw:except.obj
 0001:000348ee       ?GetRuntimeClass@CObject@@UBEPAUCRuntimeClass@@XZ 004358ee f   nafxcw:objcore.obj
 0001:000348f4       ?IsKindOf@CObject@@QBEHPBUCRuntimeClass@@@Z 004358f4 f   nafxcw:objcore.obj
 0001:00034906       ?AfxDynamicDownCast@@YAPAVCObject@@PAUCRuntimeClass@@PAV1@@Z 00435906 f   nafxcw:objcore.obj
 0001:00034926       ?CreateObject@CRuntimeClass@@QAEPAVCObject@@XZ 00435926 f   nafxcw:objcore.obj
 0001:0003496c       ?IsDerivedFrom@CRuntimeClass@@QBEHPBU1@@Z 0043596c f   nafxcw:objcore.obj
 0001:00034985       ??0CDialogTemplate@@QAE@PBUDLGTEMPLATE@@@Z 00435985 f   nafxcw:dlgtempl.obj
 0001:000349b4       ?SetTemplate@CDialogTemplate@@IAEHPBUDLGTEMPLATE@@I@Z 004359b4 f   nafxcw:dlgtempl.obj
 0001:00034a14       ??1CDialogTemplate@@QAE@XZ 00435a14 f   nafxcw:dlgtempl.obj
 0001:00034a22       ?Detach@CDialogTemplate@@QAEPAXXZ 00435a22 f   nafxcw:dlgtempl.obj
 0001:00034a28       ?GetFontSizeField@CDialogTemplate@@KAPAEPBUDLGTEMPLATE@@@Z 00435a28 f   nafxcw:dlgtempl.obj
 0001:00034a7e       ?GetTemplateSize@CDialogTemplate@@KAIPBUDLGTEMPLATE@@@Z 00435a7e f   nafxcw:dlgtempl.obj
 0001:00034b36       ?GetFont@CDialogTemplate@@SAHPBUDLGTEMPLATE@@AAVCString@@AAG@Z 00435b36 f   nafxcw:dlgtempl.obj
 0001:00034ba5       ?SetFont@CDialogTemplate@@QAEHPBDG@Z 00435ba5 f   nafxcw:dlgtempl.obj
 0001:00034cbf       ?SetSystemFont@CDialogTemplate@@QAEHG@Z 00435cbf f   nafxcw:dlgtempl.obj
 0001:00034d50       ?AfxLockTempMaps@@YGXXZ    00435d50 f   nafxcw:winhand.obj
 0001:00034d59       ?AfxUnlockTempMaps@@YGHH@Z 00435d59 f   nafxcw:winhand.obj
 0001:00034e53       ??0CHandleMap@@QAE@PAUCRuntimeClass@@IH@Z 00435e53 f   nafxcw:winhand.obj
 0001:00034eb8       ?FromHandle@CHandleMap@@QAEPAVCObject@@PAX@Z 00435eb8 f   nafxcw:winhand.obj
 0001:00034f77       ?DeleteTemp@CHandleMap@@QAEXXZ 00435f77 f   nafxcw:winhand.obj
 0001:00034fdc       ?UpdateSysColors@AUX_DATA@@QAEXXZ 00435fdc f   nafxcw:auxdata.obj
 0001:00035020       ?UpdateSysMetrics@AUX_DATA@@QAEXXZ 00436020 f   nafxcw:auxdata.obj
 0001:00035078       ?afxMapHMENU@@YGPAVCHandleMap@@H@Z 00436078 f   nafxcw:winmenu.obj
 0001:000350ea       ?FromHandle@CMenu@@SGPAV1@PAUHMENU__@@@Z 004360ea f   nafxcw:winmenu.obj
 0001:000350ff       ?FromHandlePermanent@CMenu@@SGPAV1@PAUHMENU__@@@Z 004360ff f   nafxcw:winmenu.obj
 0001:0003511d       ?Detach@CMenu@@QAEPAUHMENU__@@XZ 0043611d f   nafxcw:winmenu.obj
 0001:00035147       ?DestroyMenu@CMenu@@QAEHXZ 00436147 f   nafxcw:winmenu.obj
 0001:0003515d       ?LoadStringA@CString@@QAEHI@Z 0043615d f   nafxcw:winstr.obj
 0001:000351e1       ?AfxLoadString@@YGHIPADI@Z 004361e1 f   nafxcw:winstr.obj
 0001:00035208       ?AfxExtractSubString@@YGHAAVCString@@PBDHD@Z 00436208 f   nafxcw:winstr.obj
 0001:00035280       ??0CFile@@QAE@XZ           00436280 f   nafxcw:filecore.obj
 0001:0003529a       ??_GCFile@@UAEPAXI@Z       0043629a f i nafxcw:filecore.obj
 0001:0003529a       ??_ECFile@@UAEPAXI@Z       0043629a f i nafxcw:filecore.obj
 0001:000352b6       ??0CFile@@QAE@H@Z          004362b6 f   nafxcw:filecore.obj
 0001:000352d5       ??1CFile@@UAE@XZ           004362d5 f   nafxcw:filecore.obj
 0001:0003531d       ?Duplicate@CFile@@UBEPAV1@XZ 0043631d f   nafxcw:filecore.obj
 0001:00035392       ?Open@CFile@@UAEHPBDIPAVCFileException@@@Z 00436392 f   nafxcw:filecore.obj
 0001:000354af       ?Read@CFile@@UAEIPAXI@Z    004364af f   nafxcw:filecore.obj
 0001:000354e9       ?Write@CFile@@UAEXPBXI@Z   004364e9 f   nafxcw:filecore.obj
 0001:00035534       ?Seek@CFile@@UAEJJI@Z      00436534 f   nafxcw:filecore.obj
 0001:00035563       ?GetPosition@CFile@@UBEKXZ 00436563 f   nafxcw:filecore.obj
 0001:0003558c       ?Flush@CFile@@UAEXXZ       0043658c f   nafxcw:filecore.obj
 0001:000355ad       ?Close@CFile@@UAEXXZ       004365ad f   nafxcw:filecore.obj
 0001:000355ee       ?Abort@CFile@@UAEXXZ       004365ee f   nafxcw:filecore.obj
 0001:0003560e       ?LockRange@CFile@@UAEXKK@Z 0043660e f   nafxcw:filecore.obj
 0001:00035637       ?UnlockRange@CFile@@UAEXKK@Z 00436637 f   nafxcw:filecore.obj
 0001:00035660       ?SetLength@CFile@@UAEXK@Z  00436660 f   nafxcw:filecore.obj
 0001:0003568c       ?GetLength@CFile@@UBEKXZ   0043668c f   nafxcw:filecore.obj
 0001:000356b9       ?GetBufferPtr@CFile@@UAEIIIPAPAX0@Z 004366b9 f   nafxcw:filecore.obj
 0001:000356be       ?Rename@CFile@@SGXPBD0@Z   004366be f   nafxcw:filecore.obj
 0001:000356e0       ?Remove@CFile@@SGXPBD@Z    004366e0 f   nafxcw:filecore.obj
 0001:000356fe       ?CreateInstance@AFX_COM@@QAEJABU_GUID@@PAUIUnknown@@0PAPAX@Z 004366fe f   nafxcw:filecore.obj
 0001:00035740       ?GetClassObject@AFX_COM@@QAEJABU_GUID@@0PAPAX@Z 00436740 f   nafxcw:filecore.obj
 0001:000357dd       ?AfxStringFromCLSID@@YG?AVCString@@ABU_GUID@@@Z 004367dd f   nafxcw:filecore.obj
 0001:0003584c       ?AfxGetInProcServer@@YGHPBDAAVCString@@@Z 0043684c f   nafxcw:filecore.obj
 0001:000358f8       ?AfxResolveShortcut@@YGHPAVCWnd@@PBDPADH@Z 004368f8 f   nafxcw:filecore.obj
 0001:00035a1a       ?AfxFullPath@@YGHPADPBD@Z  00436a1a f   nafxcw:filecore.obj
 0001:00035aea       ?AfxGetRoot@@YGXPBDAAVCString@@@Z 00436aea f   nafxcw:filecore.obj
 0001:00035bb0       ?AfxComparePath@@YGHPBD0@Z 00436bb0 f   nafxcw:filecore.obj
 0001:00035c73       ?AfxGetFileTitle@@YGIPBDPADI@Z 00436c73 f   nafxcw:filecore.obj
 0001:00035cc9       ?AfxGetModuleShortFileName@@YGXPAUHINSTANCE__@@AAVCString@@@Z 00436cc9 f   nafxcw:filecore.obj
 0001:00035d23       ?ThrowOsError@CFileException@@SGXJPBD@Z 00436d23 f   nafxcw:filex.obj
 0001:00035d44       ?GetErrorMessage@CFileException@@UAEHPADIPAI@Z 00436d44 f   nafxcw:filex.obj
 0001:00035de4       ?AfxThrowFileException@@YGXHJPBD@Z 00436de4 f   nafxcw:filex.obj
 0001:00035e4f       ?OsErrorToException@CFileException@@SGHJ@Z 00436e4f f   nafxcw:filex.obj
 0001:000360cd       ?GetFileName@CFile@@UBE?AVCString@@XZ 004370cd f   nafxcw:filest.obj
 0001:0003614f       ?GetFileTitle@CFile@@UBE?AVCString@@XZ 0043714f f   nafxcw:filest.obj
 0001:000361d1       ?GetFilePath@CFile@@UBE?AVCString@@XZ 004371d1 f   nafxcw:filest.obj
 0001:00036200       ?GetStatus@CFile@@QBEHAAUCFileStatus@@@Z 00437200 f   nafxcw:filest.obj
 0001:000362da       ?GetStatus@CFile@@SGHPBDAAUCFileStatus@@@Z 004372da f   nafxcw:filest.obj
 0001:0003638c       ?AfxTimeToFileTime@@YAXABVCTime@@PAU_FILETIME@@@Z 0043738c f   nafxcw:filest.obj
 0001:0003643f       ?_AfxAbbreviateName@@YGXPADHH@Z 0043743f f   nafxcw:filelist.obj
 0001:00036510       ??0CRecentFileList@@QAE@IPBD0HH@Z 00437510 f   nafxcw:filelist.obj
 0001:000365c8       ??_ECRecentFileList@@UAEPAXI@Z 004375c8 f i nafxcw:filelist.obj
 0001:000365c8       ??_GCRecentFileList@@UAEPAXI@Z 004375c8 f i nafxcw:filelist.obj
 0001:000365e4       ??_ECString@@QAEPAXI@Z     004375e4 f i nafxcw:filelist.obj
 0001:0003662f       ??1CRecentFileList@@UAE@XZ 0043762f f   nafxcw:filelist.obj
 0001:0003668c       ?Add@CRecentFileList@@UAEXPBD@Z 0043768c f   nafxcw:filelist.obj
 0001:000366fd       ?Remove@CRecentFileList@@UAEXH@Z 004376fd f   nafxcw:filelist.obj
 0001:00036738       ?GetDisplayName@CRecentFileList@@QBEHAAVCString@@HPBDHH@Z 00437738 f   nafxcw:filelist.obj
 0001:0003683e       ?UpdateMenu@CRecentFileList@@UAEXPAVCCmdUI@@@Z 0043783e f   nafxcw:filelist.obj
 0001:00036a7f       ?WriteList@CRecentFileList@@UAEXXZ 00437a7f f   nafxcw:filelist.obj
 0001:00036afd       ?ReadList@CRecentFileList@@UAEXXZ 00437afd f   nafxcw:filelist.obj
 0001:00036b9b       ?AfxWinMain@@YGHPAUHINSTANCE__@@0PADH@Z 00437b9b f   nafxcw:winmain.obj
 0001:00036c11       ??0CDC@@QAE@XZ             00437c11 f   nafxcw:wingdi.obj
 0001:00036c25       ??_GCDC@@UAEPAXI@Z         00437c25 f i nafxcw:wingdi.obj
 0001:00036c25       ??_ECDC@@UAEPAXI@Z         00437c25 f i nafxcw:wingdi.obj
 0001:00036c41       ?afxMapHDC@@YGPAVCHandleMap@@H@Z 00437c41 f   nafxcw:wingdi.obj
 0001:00036cb3       ?FromHandle@CDC@@SGPAV1@PAUHDC__@@@Z 00437cb3 f   nafxcw:wingdi.obj
 0001:00036cc8       ?Attach@CDC@@QAEHPAUHDC__@@@Z 00437cc8 f   nafxcw:wingdi.obj
 0001:00036cff       ?Detach@CDC@@QAEPAUHDC__@@XZ 00437cff f   nafxcw:wingdi.obj
 0001:00036d30       ??1CDC@@UAE@XZ             00437d30 f   nafxcw:wingdi.obj
 0001:00036d66       ?SetAttribDC@CDC@@UAEXPAUHDC__@@@Z 00437d66 f   nafxcw:wingdi.obj
 0001:00036d70       ?SetOutputDC@CDC@@UAEXPAUHDC__@@@Z 00437d70 f   nafxcw:wingdi.obj
 0001:00036d7a       ?ReleaseAttribDC@CDC@@UAEXXZ 00437d7a f   nafxcw:wingdi.obj
 0001:00036d7f       ?ReleaseOutputDC@CDC@@UAEXXZ 00437d7f f   nafxcw:wingdi.obj
 0001:00036d84       ?SaveDC@CDC@@UAEHXZ        00437d84 f   nafxcw:wingdi.obj
 0001:00036db5       ?RestoreDC@CDC@@UAEHH@Z    00437db5 f   nafxcw:wingdi.obj
 0001:00036df3       ?SelectStockObject@CDC@@UAEPAVCGdiObject@@H@Z 00437df3 f   nafxcw:wingdi.obj
 0001:00036e2f       ?SelectObject@CDC@@QAEPAVCBrush@@PAV2@@Z 00437e2f f   nafxcw:wingdi.obj
 0001:00036e2f       ?SelectObject@CDC@@QAEPAVCPen@@PAV2@@Z 00437e2f f   nafxcw:wingdi.obj
 0001:00036e2f       ?SelectObject@CDC@@UAEPAVCFont@@PAV2@@Z 00437e2f f   nafxcw:wingdi.obj
 0001:00036e75       ?SetBkColor@CDC@@UAEKK@Z   00437e75 f   nafxcw:wingdi.obj
 0001:00036ea4       ?SetBkMode@CDC@@QAEHH@Z    00437ea4 f   nafxcw:wingdi.obj
 0001:00036ed2       ?SetPolyFillMode@CDC@@QAEHH@Z 00437ed2 f   nafxcw:wingdi.obj
 0001:00036f00       ?SetROP2@CDC@@QAEHH@Z      00437f00 f   nafxcw:wingdi.obj
 0001:00036f2e       ?SetStretchBltMode@CDC@@QAEHH@Z 00437f2e f   nafxcw:wingdi.obj
 0001:00036f5c       ?SetTextColor@CDC@@UAEKK@Z 00437f5c f   nafxcw:wingdi.obj
 0001:00036f8b       ?SetMapMode@CDC@@UAEHH@Z   00437f8b f   nafxcw:wingdi.obj
 0001:00036fb9       ?SetViewportOrg@CDC@@UAE?AVCPoint@@HH@Z 00437fb9 f   nafxcw:wingdi.obj
 0001:00037005       ?OffsetViewportOrg@CDC@@UAE?AVCPoint@@HH@Z 00438005 f   nafxcw:wingdi.obj
 0001:00037051       ?SetViewportExt@CDC@@UAE?AVCSize@@HH@Z 00438051 f   nafxcw:wingdi.obj
 0001:0003709d       ?ScaleViewportExt@CDC@@UAE?AVCSize@@HHHH@Z 0043809d f   nafxcw:wingdi.obj
 0001:000370f5       ?SetWindowOrg@CDC@@QAE?AVCPoint@@HH@Z 004380f5 f   nafxcw:wingdi.obj
 0001:00037141       ?SetWindowExt@CDC@@UAE?AVCSize@@HH@Z 00438141 f   nafxcw:wingdi.obj
 0001:0003718d       ?ScaleWindowExt@CDC@@UAE?AVCSize@@HHHH@Z 0043818d f   nafxcw:wingdi.obj
 0001:000371e5       ?GetClipBox@CDC@@UBEHPAUtagRECT@@@Z 004381e5 f   nafxcw:wingdi.obj
 0001:000371f5       ?SelectClipRgn@CDC@@QAEHPAVCRgn@@@Z 004381f5 f   nafxcw:wingdi.obj
 0001:00037235       ?ExcludeClipRect@CDC@@QAEHPBUtagRECT@@@Z 00438235 f   nafxcw:wingdi.obj
 0001:00037277       ?IntersectClipRect@CDC@@QAEHPBUtagRECT@@@Z 00438277 f   nafxcw:wingdi.obj
 0001:000372b9       ?MoveTo@CDC@@QAE?AVCPoint@@HH@Z 004382b9 f   nafxcw:wingdi.obj
 0001:00037305       ?LineTo@CDC@@QAEHHH@Z      00438305 f   nafxcw:wingdi.obj
 0001:0003733a       ?SetTextAlign@CDC@@QAEII@Z 0043833a f   nafxcw:wingdi.obj
 0001:0003736f       ?GetLayout@CDC@@QBEKXZ     0043836f f   nafxcw:wingdi.obj
 0001:000373a5       ?SetLayout@CDC@@QAEKK@Z    004383a5 f   nafxcw:wingdi.obj
 0001:000373eb       ?ScreenToClient@CWnd@@QBEXPAUtagRECT@@@Z 004383eb f   nafxcw:wingdi.obj
 0001:00037427       ?ClientToScreen@CWnd@@QBEXPAUtagRECT@@@Z 00438427 f   nafxcw:wingdi.obj
 0001:00037463       ?LPtoDP@CDC@@QBEXPAUtagSIZE@@@Z 00438463 f   nafxcw:wingdi.obj
 0001:000374cc       ?DPtoLP@CDC@@QBEXPAUtagSIZE@@@Z 004384cc f   nafxcw:wingdi.obj
 0001:00037535       ??0CClientDC@@QAE@PAVCWnd@@@Z 00438535 f   nafxcw:wingdi.obj
 0001:0003758b       ??_ECClientDC@@UAEPAXI@Z   0043858b f i nafxcw:wingdi.obj
 0001:0003758b       ??_GCClientDC@@UAEPAXI@Z   0043858b f i nafxcw:wingdi.obj
 0001:000375a7       ??1CClientDC@@UAE@XZ       004385a7 f   nafxcw:wingdi.obj
 0001:000375e9       ??0CWindowDC@@QAE@PAVCWnd@@@Z 004385e9 f   nafxcw:wingdi.obj
 0001:0003763f       ??_GCWindowDC@@UAEPAXI@Z   0043863f f i nafxcw:wingdi.obj
 0001:0003763f       ??_ECWindowDC@@UAEPAXI@Z   0043863f f i nafxcw:wingdi.obj
 0001:0003765b       ??1CWindowDC@@UAE@XZ       0043865b f   nafxcw:wingdi.obj
 0001:0003769d       ??0CPaintDC@@QAE@PAVCWnd@@@Z 0043869d f   nafxcw:wingdi.obj
 0001:000376f3       ??_ECPaintDC@@UAEPAXI@Z    004386f3 f i nafxcw:wingdi.obj
 0001:000376f3       ??_GCPaintDC@@UAEPAXI@Z    004386f3 f i nafxcw:wingdi.obj
 0001:0003770f       ??1CPaintDC@@UAE@XZ        0043870f f   nafxcw:wingdi.obj
 0001:00037756       ?afxMapHGDIOBJ@@YGPAVCHandleMap@@H@Z 00438756 f   nafxcw:wingdi.obj
 0001:000377c8       ?FromHandle@CGdiObject@@SGPAV1@PAX@Z 004387c8 f   nafxcw:wingdi.obj
 0001:000377dd       ?Attach@CGdiObject@@QAEHPAX@Z 004387dd f   nafxcw:wingdi.obj
 0001:0003780a       ?Detach@CGdiObject@@QAEPAXXZ 0043880a f   nafxcw:wingdi.obj
 0001:00037834       ?DeleteObject@CGdiObject@@QAEHXZ 00438834 f   nafxcw:wingdi.obj
 0001:0003784a       ??0CBrush@@QAE@K@Z         0043884a f   nafxcw:wingdi.obj
 0001:00037894       ?AfxThrowResourceException@@YGXXZ 00438894 f   nafxcw:wingdi.obj
 0001:000378ad       ?AfxThrowUserException@@YGXXZ 004388ad f   nafxcw:wingdi.obj
 0001:000378c6       ??0CDocument@@QAE@XZ       004388c6 f   nafxcw:doccore.obj
 0001:00037920       ??1CDocument@@UAE@XZ       00438920 f   nafxcw:doccore.obj
 0001:00037986       ?OnFinalRelease@CDocument@@UAEXXZ 00438986 f   nafxcw:doccore.obj
 0001:0003798b       ?DisconnectViews@CDocument@@QAEXXZ 0043898b f   nafxcw:doccore.obj
 0001:000379ac       ?SetTitle@CDocument@@UAEXPBD@Z 004389ac f   nafxcw:doccore.obj
 0001:000379c9       ?OnChangedViewList@CDocument@@UAEXXZ 004389c9 f   nafxcw:doccore.obj
 0001:000379e2       ?UpdateFrameCounts@CDocument@@UAEXXZ 004389e2 f   nafxcw:doccore.obj
 0001:00037acf       ?CanCloseFrame@CDocument@@UAEHPAVCFrameWnd@@@Z 00438acf f   nafxcw:doccore.obj
 0001:00037b18       ?PreCloseFrame@CDocument@@UAEXPAVCFrameWnd@@@Z 00438b18 f   nafxcw:doccore.obj
 0001:00037b1b       ?SetPathName@CDocument@@UAEXPBDH@Z 00438b1b f   nafxcw:doccore.obj
 0001:00037b97       ?OnFileClose@CDocument@@IAEXXZ 00438b97 f   nafxcw:doccore.obj
 0001:00037baf       ?OnFileSave@CDocument@@IAEXXZ 00438baf f   nafxcw:doccore.obj
 0001:00037bb7       ?OnFileSaveAs@CDocument@@IAEXXZ 00438bb7 f   nafxcw:doccore.obj
 0001:00037bc4       ?DoFileSave@CDocument@@UAEHXZ 00438bc4 f   nafxcw:doccore.obj
 0001:00037bff       ?DoSave@CDocument@@UAEHPBDH@Z 00438bff f   nafxcw:doccore.obj
 0001:00037d80       ?SaveModified@CDocument@@UAEHXZ 00438d80 f   nafxcw:doccore.obj
 0001:00037e7f       ?GetDefaultMenu@CDocument@@UAEPAUHMENU__@@XZ 00438e7f f   nafxcw:doccore.obj
 0001:00037e7f       ?GetDefaultAccelerator@CDocument@@UAEPAUHACCEL__@@XZ 00438e7f f   nafxcw:doccore.obj
 0001:00037e82       ?ReportSaveLoadException@CDocument@@UAEXPBDPAVCException@@HI@Z 00438e82 f   nafxcw:doccore.obj
 0001:00037fee       ?GetTempName@CMirrorFile@@SA?AVCString@@PBDH@Z 00438fee f   nafxcw:doccore.obj
 0001:00038094       ?Open@CMirrorFile@@UAEHPBDIPAVCFileException@@@Z 00439094 f   nafxcw:doccore.obj
 0001:0003823b       ?Abort@CMirrorFile@@UAEXXZ 0043923b f   nafxcw:doccore.obj
 0001:00038254       ?Close@CMirrorFile@@UAEXXZ 00439254 f   nafxcw:doccore.obj
 0001:00038432       ?GetFile@CDocument@@UAEPAVCFile@@PBDIPAVCFileException@@@Z 00439432 f   nafxcw:doccore.obj
 0001:000384a4       ??_GCMirrorFile@@UAEPAXI@Z 004394a4 f i nafxcw:doccore.obj
 0001:000384a4       ??_ECMirrorFile@@UAEPAXI@Z 004394a4 f i nafxcw:doccore.obj
 0001:000384c0       ??1CMirrorFile@@UAE@XZ     004394c0 f i nafxcw:doccore.obj
 0001:000384f5       ?ReleaseFile@CDocument@@UAEXPAVCFile@@H@Z 004394f5 f   nafxcw:doccore.obj
 0001:0003851e       ?OnNewDocument@CDocument@@UAEHXZ 0043951e f   nafxcw:doccore.obj
 0001:00038543       ?OnOpenDocument@CDocument@@UAEHPBD@Z 00439543 f   nafxcw:doccore.obj
 0001:0003870d       ?OnSaveDocument@CDocument@@UAEHPBD@Z 0043970d f   nafxcw:doccore.obj
 0001:000388b3       ?OnCloseDocument@CDocument@@UAEXXZ 004398b3 f   nafxcw:doccore.obj
 0001:0003890b       ?AddView@CDocument@@QAEXPAVCView@@@Z 0043990b f   nafxcw:doccore.obj
 0001:0003892b       ?RemoveView@CDocument@@QAEXPAVCView@@@Z 0043992b f   nafxcw:doccore.obj
 0001:0003895a       ?GetFirstViewPosition@CDocument@@UBEPAU__POSITION@@XZ 0043995a f   nafxcw:doccore.obj
 0001:0003895e       ?GetNextView@CDocument@@UBEPAVCView@@AAPAU__POSITION@@@Z 0043995e f   nafxcw:doccore.obj
 0001:00038972       ?OnCmdMsg@CDocument@@UAEHIHPAXPAUAFX_CMDHANDLERINFO@@@Z 00439972 f   nafxcw:doccore.obj
 0001:000389b5       ??0CArchive@@QAE@PAVCFile@@IHPAX@Z 004399b5 f   nafxcw:arccore.obj
 0001:00038a91       ??1CArchive@@QAE@XZ        00439a91 f   nafxcw:arccore.obj
 0001:00038ad7       ?Abort@CArchive@@QAEXXZ    00439ad7 f   nafxcw:arccore.obj
 0001:00038b19       ?Close@CArchive@@QAEXXZ    00439b19 f   nafxcw:arccore.obj
 0001:00038b27       ?Read@CArchive@@QAEIPAXI@Z 00439b27 f   nafxcw:arccore.obj
 0001:00038c36       ?Write@CArchive@@QAEXPBXI@Z 00439c36 f   nafxcw:arccore.obj
 0001:00038cc6       ?Flush@CArchive@@QAEXXZ    00439cc6 f   nafxcw:arccore.obj
 0001:00038d42       ?FillBuffer@CArchive@@QAEXI@Z 00439d42 f   nafxcw:arccore.obj
 0001:00038e04       ?OnAppExit@CWinApp@@IAEXXZ 00439e04 f   nafxcw:appui.obj
 0001:00038e17       ??0CSingleDocTemplate@@QAE@IPAUCRuntimeClass@@00@Z 00439e17 f   nafxcw:docsingl.obj
 0001:00038e3f       ??_ECSingleDocTemplate@@UAEPAXI@Z 00439e3f f i nafxcw:docsingl.obj
 0001:00038e3f       ??_GCSingleDocTemplate@@UAEPAXI@Z 00439e3f f i nafxcw:docsingl.obj
 0001:00038e5b       ??1CSingleDocTemplate@@UAE@XZ 00439e5b f   nafxcw:docsingl.obj
 0001:00038e66       ?GetFirstDocPosition@CSingleDocTemplate@@UBEPAU__POSITION@@XZ 00439e66 f   nafxcw:docsingl.obj
 0001:00038e6e       ?GetNextDoc@CSingleDocTemplate@@UBEPAVCDocument@@AAPAU__POSITION@@@Z 00439e6e f   nafxcw:docsingl.obj
 0001:00038e82       ?AddDocument@CSingleDocTemplate@@UAEXPAVCDocument@@@Z 00439e82 f   nafxcw:docsingl.obj
 0001:00038e98       ?RemoveDocument@CSingleDocTemplate@@UAEXPAVCDocument@@@Z 00439e98 f   nafxcw:docsingl.obj
 0001:00038eac       ?OpenDocumentFile@CSingleDocTemplate@@UAEPAVCDocument@@PBDH@Z 00439eac f   nafxcw:docsingl.obj
 0001:00039059       ?SetDefaultTitle@CSingleDocTemplate@@UAEXPAVCDocument@@@Z 0043a059 f   nafxcw:docsingl.obj
 0001:000390ba       ??0CView@@IAE@XZ           0043a0ba f   nafxcw:viewcore.obj
 0001:000390ca       ??1CView@@UAE@XZ           0043a0ca f   nafxcw:viewcore.obj
 0001:0003911d       ?PreCreateWindow@CView@@MAEHAAUtagCREATESTRUCTA@@@Z 0043a11d f   nafxcw:viewcore.obj
 0001:0003915c       ?OnCreate@CView@@IAEHPAUtagCREATESTRUCTA@@@Z 0043a15c f   nafxcw:viewcore.obj
 0001:0003918c       ?OnDestroy@CView@@IAEXXZ   0043a18c f   nafxcw:viewcore.obj
 0001:000391bb       ?PostNcDestroy@CView@@MAEXXZ 0043a1bb f   nafxcw:viewcore.obj
 0001:000391c7       ?CalcWindowRect@CView@@UAEXPAUtagRECT@@I@Z 0043a1c7 f   nafxcw:viewcore.obj
 0001:0003922f       ?OnCmdMsg@CView@@UAEHIHPAXPAUAFX_CMDHANDLERINFO@@@Z 0043a22f f   nafxcw:viewcore.obj
 0001:000392ac       ?OnPaint@CView@@IAEXXZ     0043a2ac f   nafxcw:viewcore.obj
 0001:00039300       ?OnInitialUpdate@CView@@UAEXXZ 0043a300 f   nafxcw:viewcore.obj
 0001:0003930e       ?OnUpdate@CView@@MAEXPAV1@JPAVCObject@@@Z 0043a30e f   nafxcw:viewcore.obj
 0001:0003931e       ?OnPrint@CView@@MAEXPAVCDC@@PAUCPrintInfo@@@Z 0043a31e f   nafxcw:viewcore.obj
 0001:0003932d       ?IsSelected@CView@@UBEHPBVCObject@@@Z 0043a32d f   nafxcw:viewcore.obj
 0001:00039332       ?OnActivateView@CView@@MAEXHPAV1@0@Z 0043a332 f   nafxcw:viewcore.obj
 0001:00039350       ?OnMouseActivate@CView@@IAEHPAVCWnd@@II@Z 0043a350 f   nafxcw:viewcore.obj
 0001:000393c1       ?OnScroll@CView@@UAEHIIH@Z 0043a3c1 f   nafxcw:viewcore.obj
 0001:000393c1       ?OnScrollBy@CView@@UAEHVCSize@@H@Z 0043a3c1 f   nafxcw:viewcore.obj
 0001:000393c6       ?OnDragScroll@CView@@UAEKKVCPoint@@@Z 0043a3c6 f   nafxcw:viewcore.obj
 0001:000393ce       ?OnDrop@CView@@UAEHPAVCOleDataObject@@KVCPoint@@@Z 0043a3ce f   nafxcw:viewcore.obj
 0001:000393ce       ?OnDragOver@CView@@UAEKPAVCOleDataObject@@KVCPoint@@@Z 0043a3ce f   nafxcw:viewcore.obj
 0001:000393ce       ?OnDragEnter@CView@@UAEKPAVCOleDataObject@@KVCPoint@@@Z 0043a3ce f   nafxcw:viewcore.obj
 0001:000393d3       ?OnDropEx@CView@@UAEKPAVCOleDataObject@@KKVCPoint@@@Z 0043a3d3 f   nafxcw:viewcore.obj
 0001:000393d9       ?DeleteContents@CDocument@@UAEXXZ 0043a3d9 f   nafxcw:viewcore.obj
 0001:000393d9       ?OnIdle@CDocument@@UAEXXZ  0043a3d9 f   nafxcw:viewcore.obj
 0001:000393d9       ?OnDragLeave@CView@@UAEXXZ 0043a3d9 f   nafxcw:viewcore.obj
 0001:000393da       ?GetParentSplitter@CView@@SGPAVCSplitterWnd@@PBVCWnd@@H@Z 0043a3da f   nafxcw:viewcore.obj
 0001:00039438       ?GetScrollBarCtrl@CView@@UBEPAVCScrollBar@@H@Z 0043a438 f   nafxcw:viewcore.obj
 0001:000394ad       ?OnUpdateSplitCmd@CView@@IAEXPAVCCmdUI@@@Z 0043a4ad f   nafxcw:viewcore.obj
 0001:000394d5       ?OnSplitCmd@CView@@IAEHI@Z 0043a4d5 f   nafxcw:viewcore.obj
 0001:000394f1       ?OnUpdateNextPaneMenu@CView@@IAEXPAVCCmdUI@@@Z 0043a4f1 f   nafxcw:viewcore.obj
 0001:0003952f       ?OnNextPaneCmd@CView@@IAEHI@Z 0043a52f f   nafxcw:viewcore.obj
 0001:00039559       ?OnPrepareDC@CView@@UAEXPAVCDC@@PAUCPrintInfo@@@Z 0043a559 f   nafxcw:viewcore.obj
 0001:0003957e       ?OnPreparePrinting@CView@@MAEHPAUCPrintInfo@@@Z 0043a57e f   nafxcw:viewcore.obj
 0001:00039584       ?OnEndPrinting@CView@@MAEXPAVCDC@@PAUCPrintInfo@@@Z 0043a584 f   nafxcw:viewcore.obj
 0001:00039584       ?OnBeginPrinting@CView@@MAEXPAVCDC@@PAUCPrintInfo@@@Z 0043a584 f   nafxcw:viewcore.obj
 0001:00039584       ?OnActivateFrame@CView@@MAEXIPAVCFrameWnd@@@Z 0043a584 f   nafxcw:viewcore.obj
 0001:00039587       ?OnEndPrintPreview@CView@@MAEXPAVCDC@@PAUCPrintInfo@@UtagPOINT@@PAVCPreviewView@@@Z 0043a587 f   nafxcw:viewcore.obj
 0001:0003962a       ?AfxCustomLogFont@@YGHIPAUtagLOGFONTA@@@Z 0043a62a f   nafxcw:winutil.obj
 0001:000396a2       ?_AfxIsComboBoxControl@@YGHPAUHWND__@@I@Z 0043a6a2 f   nafxcw:winutil.obj
 0001:000396ec       ?_AfxCompareClassName@@YGHPAUHWND__@@PBD@Z 0043a6ec f   nafxcw:winutil.obj
 0001:00039717       ?_AfxChildWindowFromPoint@@YGPAUHWND__@@PAU1@UtagPOINT@@@Z 0043a717 f   nafxcw:winutil.obj
 0001:0003978c       ?AfxSetWindowText@@YGXPAUHWND__@@PBD@Z 0043a78c f   nafxcw:winutil.obj
 0001:000397e4       ?AfxDeleteObject@@YGXPAPAX@Z 0043a7e4 f   nafxcw:winutil.obj
 0001:000397fd       ?AfxCancelModes@@YGXPAUHWND__@@@Z 0043a7fd f   nafxcw:winutil.obj
 0001:00039874       ?AfxGlobalFree@@YGXPAX@Z   0043a874 f   nafxcw:winutil.obj
 0001:000398aa       ?AfxCriticalNewHandler@@YAHI@Z 0043a8aa f   nafxcw:winutil.obj
 0001:000398fc       ?OpenDocumentFile@CDocManager@@UAEPAVCDocument@@PBD@Z 0043a8fc f   nafxcw:docmgr.obj
 0001:00039a3d       ?GetOpenDocumentCount@CDocManager@@UAEHXZ 0043aa3d f   nafxcw:docmgr.obj
 0001:00039a83       ?GetErrorMessage@CArchiveException@@UAEHPADIPAI@Z 0043aa83 f   nafxcw:arcex.obj
 0001:00039b23       ?AfxThrowArchiveException@@YGXHPBD@Z 0043ab23 f   nafxcw:arcex.obj
 0001:00039b88       ??0CDocTemplate@@IAE@IPAUCRuntimeClass@@00@Z 0043ab88 f   nafxcw:doctempl.obj
 0001:00039c85       ?LoadTemplate@CDocTemplate@@UAEXXZ 0043ac85 f   nafxcw:doctempl.obj
 0001:00039d2d       ??1CDocTemplate@@UAE@XZ    0043ad2d f   nafxcw:doctempl.obj
 0001:00039d88       ?GetDocString@CDocTemplate@@UBEHAAVCString@@W4DocStringIndex@1@@Z 0043ad88 f   nafxcw:doctempl.obj
 0001:00039d9e       ?AddDocument@CDocTemplate@@UAEXPAVCDocument@@@Z 0043ad9e f   nafxcw:doctempl.obj
 0001:00039da8       ?RemoveDocument@CDocTemplate@@UAEXPAVCDocument@@@Z 0043ada8 f   nafxcw:doctempl.obj
 0001:00039db3       ?MatchDocType@CDocTemplate@@UAE?AW4Confidence@1@PBDAAPAVCDocument@@@Z 0043adb3 f   nafxcw:doctempl.obj
 0001:00039e68       ?CreateNewDocument@CDocTemplate@@UAEPAVCDocument@@XZ 0043ae68 f   nafxcw:doctempl.obj
 0001:00039e8f       ?CreateNewFrame@CDocTemplate@@UAEPAVCFrameWnd@@PAVCDocument@@PAV2@@Z 0043ae8f f   nafxcw:doctempl.obj
 0001:00039ef8       ?InitialUpdateFrame@CDocTemplate@@UAEXPAVCFrameWnd@@PAVCDocument@@H@Z 0043aef8 f   nafxcw:doctempl.obj
 0001:00039f0c       ?SaveAllModified@CDocTemplate@@UAEHXZ 0043af0c f   nafxcw:doctempl.obj
 0001:00039f48       ?CloseAllDocuments@CDocTemplate@@UAEXH@Z 0043af48 f   nafxcw:doctempl.obj
 0001:00039f78       ?OnIdle@CDocTemplate@@UAEXXZ 0043af78 f   nafxcw:doctempl.obj
 0001:00039fa9       ?OnCmdMsg@CDocTemplate@@UAEHIHPAXPAUAFX_CMDHANDLERINFO@@@Z 0043afa9 f   nafxcw:doctempl.obj
 0001:00039ff4       ?GetMessageMap@CScrollView@@MBEPBUAFX_MSGMAP@@XZ 0043aff4 f   nafxcw:viewscrl.obj
 0001:00039ffa       ?_AfxGetMouseScrollLines@@YGIXZ 0043affa f   nafxcw:viewscrl.obj
 0001:0003a137       ??0CScrollView@@IAE@XZ     0043b137 f   nafxcw:viewscrl.obj
 0001:0003a15e       ??_ECScrollView@@UAEPAXI@Z 0043b15e f i nafxcw:viewscrl.obj
 0001:0003a15e       ??_GCScrollView@@UAEPAXI@Z 0043b15e f i nafxcw:viewscrl.obj
 0001:0003a17a       ??1CScrollView@@UAE@XZ     0043b17a f   nafxcw:viewscrl.obj
 0001:0003a185       ?OnPrepareDC@CScrollView@@UAEXPAVCDC@@PAUCPrintInfo@@@Z 0043b185 f   nafxcw:viewscrl.obj
 0001:0003a264       ?SetScaleToFitSize@CScrollView@@QAEXUtagSIZE@@@Z 0043b264 f   nafxcw:viewscrl.obj
 0001:0003a2ef       ?SetScrollSizes@CScrollView@@QAEXHUtagSIZE@@ABU2@1@Z 0043b2ef f   nafxcw:viewscrl.obj
 0001:0003a421       ?GetDeviceScrollPosition@CScrollView@@QBE?AVCPoint@@XZ 0043b421 f   nafxcw:viewscrl.obj
 0001:0003a49a       ?ScrollToDevicePosition@CScrollView@@IAEXUtagPOINT@@@Z 0043b49a f   nafxcw:viewscrl.obj
 0001:0003a4ec       ?OnSize@CScrollView@@QAEXIHH@Z 0043b4ec f   nafxcw:viewscrl.obj
 0001:0003a514       ?CenterOnPoint@CScrollView@@IAEXVCPoint@@@Z 0043b514 f   nafxcw:viewscrl.obj
 0001:0003a5b0       ?GetScrollBarSizes@CScrollView@@IAEXAAVCSize@@@Z 0043b5b0 f   nafxcw:viewscrl.obj
 0001:0003a60a       ?GetTrueClientSize@CScrollView@@IAEHAAVCSize@@0@Z 0043b60a f   nafxcw:viewscrl.obj
 0001:0003a67f       ?GetScrollBarState@CScrollView@@IAEXVCSize@@AAV2@1AAVCPoint@@H@Z 0043b67f f   nafxcw:viewscrl.obj
 0001:0003a744       ?UpdateBars@CScrollView@@IAEXXZ 0043b744 f   nafxcw:viewscrl.obj
 0001:0003a8b9       ?CalcWindowRect@CScrollView@@UAEXPAUtagRECT@@I@Z 0043b8b9 f   nafxcw:viewscrl.obj
 0001:0003a940       ?OnHScroll@CScrollView@@QAEXIIPAVCScrollBar@@@Z 0043b940 f   nafxcw:viewscrl.obj
 0001:0003a984       ?OnVScroll@CScrollView@@QAEXIIPAVCScrollBar@@@Z 0043b984 f   nafxcw:viewscrl.obj
 0001:0003a9cc       ?OnMouseWheel@CScrollView@@QAEHIFVCPoint@@@Z 0043b9cc f   nafxcw:viewscrl.obj
 0001:0003aa00       ?DoMouseWheel@CScrollView@@QAEHIFVCPoint@@@Z 0043ba00 f   nafxcw:viewscrl.obj
 0001:0003ab2b       ?OnScroll@CScrollView@@UAEHIIH@Z 0043bb2b f   nafxcw:viewscrl.obj
 0001:0003abfb       ?OnScrollBy@CScrollView@@UAEHVCSize@@H@Z 0043bbfb f   nafxcw:viewscrl.obj
 0001:0003acf7       ?PrepareEditCtrl@CDataExchange@@QAEPAUHWND__@@H@Z 0043bcf7 f   nafxcw:dlgdata.obj
 0001:0003ad0e       ?PrepareCtrl@CDataExchange@@QAEPAUHWND__@@H@Z 0043bd0e f   nafxcw:dlgdata.obj
 0001:0003ad3d       ?Fail@CDataExchange@@QAEXXZ 0043bd3d f   nafxcw:dlgdata.obj
 0001:0003ad72       ?_AfxSimpleScanf@@YGHPBD0PAD@Z 0043bd72 f   nafxcw:dlgdata.obj
 0001:0003ae17       ?_Afx_DDX_TextWithFormat@@YAXPAVCDataExchange@@HPBDIZZ 0043be17 f   nafxcw:dlgdata.obj
 0001:0003ae87       ?DDX_Text@@YGXPAVCDataExchange@@HAAH@Z 0043be87 f   nafxcw:dlgdata.obj
 0001:0003aeb6       ?DDX_Text@@YGXPAVCDataExchange@@HAAJ@Z 0043beb6 f   nafxcw:dlgdata.obj
 0001:0003aee5       ?_AfxFailMinMaxWithFormat@@YGXPAVCDataExchange@@JJPBDI@Z 0043bee5 f   nafxcw:dlgdata.obj
 0001:0003af75       ?DDV_MinMaxLong@@YGXPAVCDataExchange@@JJJ@Z 0043bf75 f   nafxcw:dlgdata.obj
 0001:0003af75       ?DDV_MinMaxInt@@YGXPAVCDataExchange@@HHH@Z 0043bf75 f   nafxcw:dlgdata.obj
 0001:0003afa1       ?DDX_Control@@YGXPAVCDataExchange@@HAAVCWnd@@@Z 0043bfa1 f   nafxcw:dlgdata.obj
 0001:0003afed       ?EnableModeless@CWinApp@@QAEXH@Z 0043bfed f   nafxcw:appui1.obj
 0001:0003b01b       ?DoMessageBox@CWinApp@@UAEHPBDII@Z 0043c01b f   nafxcw:appui1.obj
 0001:0003b102       ?AfxMessageBox@@YGHPBDII@Z 0043c102 f   nafxcw:appui1.obj
 0001:0003b13a       ?AfxMessageBox@@YGHIII@Z   0043c13a f   nafxcw:appui1.obj
 0001:0003b193       ?GetSafeOwner_@CWnd@@SGPAUHWND__@@PAU2@PAPAU2@@Z 0043c193 f   nafxcw:appui1.obj
 0001:0003b22f       ?GetRoutingFrame_@CCmdTarget@@KGPAVCFrameWnd@@XZ 0043c22f f   nafxcw:appui1.obj
 0001:0003b23b       ?AddDocTemplate@CWinApp@@QAEXPAVCDocTemplate@@@Z 0043c23b f   nafxcw:appui2.obj
 0001:0003b297       ?GetFirstDocTemplatePosition@CWinApp@@QBEPAU__POSITION@@XZ 0043c297 f   nafxcw:appui2.obj
 0001:0003b2a9       ?GetNextDocTemplate@CWinApp@@QBEPAVCDocTemplate@@AAPAU__POSITION@@@Z 0043c2a9 f   nafxcw:appui2.obj
 0001:0003b2bb       ?_AfxSimpleFloatParse@@YGHPBDAAN@Z 0043c2bb f   nafxcw:dlgfloat.obj
 0001:0003b31c       ?AfxTextFloatFormat@@YGXPAVCDataExchange@@HPAXNH@Z 0043c31c f   nafxcw:dlgfloat.obj
 0001:0003b3b0       ?DDX_Text@@YGXPAVCDataExchange@@HAAN@Z 0043c3b0 f   nafxcw:dlgfloat.obj
 0001:0003b3ce       ?_AfxFailMinMaxReal@@YGXPAVCDataExchange@@NNHI@Z 0043c3ce f   nafxcw:dlgfloat.obj
 0001:0003b470       ?DDV_MinMaxDouble@@YGXPAVCDataExchange@@ABNNN@Z 0043c470 f   nafxcw:dlgfloat.obj
 0001:0003b4ad       ?CommandToIndex@CStatusBar@@QBEHI@Z 0043c4ad f   nafxcw:barstat.obj
 0001:0003b4d5       ?GetPaneStyle@CStatusBar@@QBEIH@Z 0043c4d5 f   nafxcw:barstat.obj
 0001:0003b4e6       ?SetPaneStyle@CStatusBar@@QAEXHI@Z 0043c4e6 f   nafxcw:barstat.obj
 0001:0003b538       ?SetPaneText@CStatusBar@@QAEHHPBDH@Z 0043c538 f   nafxcw:barstat.obj
 0001:0003b5f5       ?CalcFixedLayout@CStatusBar@@UAE?AVCSize@@HH@Z 0043c5f5 f   nafxcw:barstat.obj
 0001:0003b6b8       ?GetMessageMap@CStatusBar@@MBEPBUAFX_MSGMAP@@XZ 0043c6b8 f   nafxcw:barstat.obj
 0001:0003b6be       ?OnNcHitTest@CStatusBar@@IAEIVCPoint@@@Z 0043c6be f   nafxcw:barstat.obj
 0001:0003b6d2       ?OnNcCalcSize@CStatusBar@@IAEXHPAUtagNCCALCSIZE_PARAMS@@@Z 0043c6d2 f   nafxcw:barstat.obj
 0001:0003b714       ?OnBarStyleChange@CStatusBar@@UAEXKK@Z 0043c714 f   nafxcw:barstat.obj
 0001:0003b737       ?OnNcPaint@CToolBar@@IAEXXZ 0043c737 f   nafxcw:barstat.obj
 0001:0003b737       ?OnNcPaint@CStatusBar@@IAEXXZ 0043c737 f   nafxcw:barstat.obj
 0001:0003b737       ?OnNcPaint@CDockBar@@IAEXXZ 0043c737 f   nafxcw:barstat.obj
 0001:0003b73c       ?OnChildNotify@CStatusBar@@MAEHIIJPAJ@Z 0043c73c f   nafxcw:barstat.obj
 0001:0003b76a       ?OnPaint@CStatusBar@@IAEXXZ 0043c76a f   nafxcw:barstat.obj
 0001:0003b77f       ?OnSize@CStatusBar@@IAEXIHH@Z 0043c77f f   nafxcw:barstat.obj
 0001:0003b796       ?OnWindowPosChanging@CDockBar@@IAEXPAUtagWINDOWPOS@@@Z 0043c796 f   nafxcw:barstat.obj
 0001:0003b796       ?OnWindowPosChanging@CStatusBar@@IAEXPAUtagWINDOWPOS@@@Z 0043c796 f   nafxcw:barstat.obj
 0001:0003b7b6       ?OnSetText@CStatusBar@@IAEJIJ@Z 0043c7b6 f   nafxcw:barstat.obj
 0001:0003b7e2       ?OnGetText@CStatusBar@@IAEJIJ@Z 0043c7e2 f   nafxcw:barstat.obj
 0001:0003b836       ?OnGetTextLength@CStatusBar@@IAEJIJ@Z 0043c836 f   nafxcw:barstat.obj
 0001:0003b85a       ?OnSetMinHeight@CStatusBar@@IAEJIJ@Z 0043c85a f   nafxcw:barstat.obj
 0001:0003b86d       ?Enable@CStatusCmdUI@@UAEXH@Z 0043c86d f   nafxcw:barstat.obj
 0001:0003b8a6       ?SetCheck@CStatusCmdUI@@UAEXH@Z 0043c8a6 f   nafxcw:barstat.obj
 0001:0003b8d4       ?SetText@CStatusCmdUI@@UAEXPBD@Z 0043c8d4 f   nafxcw:barstat.obj
 0001:0003b8e8       ?OnUpdateCmdUI@CStatusBar@@UAEXPAVCFrameWnd@@H@Z 0043c8e8 f   nafxcw:barstat.obj
 0001:0003b95c       ?AfxLoadSysColorBitmap@@YGPAUHBITMAP__@@PAUHINSTANCE__@@PAUHRSRC__@@H@Z 0043c95c f   nafxcw:bartool.obj
 0001:0003bac8       ?_GetButton@CToolBar@@IBEXHPAU_TBBUTTON@@@Z 0043cac8 f   nafxcw:bartool.obj
 0001:0003bae7       ?_SetButton@CToolBar@@IAEXHPAU_TBBUTTON@@@Z 0043cae7 f   nafxcw:bartool.obj
 0001:0003bbd6       ?GetItemID@CToolBar@@QBEIH@Z 0043cbd6 f   nafxcw:bartool.obj
 0001:0003bbef       ?GetItemRect@CToolBar@@UBEXHPAUtagRECT@@@Z 0043cbef f   nafxcw:bartool.obj
 0001:0003bc29       ?Layout@CToolBar@@IAEXXZ   0043cc29 f   nafxcw:bartool.obj
 0001:0003bc79       ?GetButtonStyle@CToolBar@@QBEIH@Z 0043cc79 f   nafxcw:bartool.obj
 0001:0003bc9c       ?SetButtonStyle@CToolBar@@QAEXHI@Z 0043cc9c f   nafxcw:bartool.obj
 0001:0003bce9       ?CalcSize@CToolBar@@IAE?AVCSize@@PAU_TBBUTTON@@H@Z 0043cce9 f   nafxcw:bartool.obj
 0001:0003be0b       ?WrapToolBar@CToolBar@@IAEHPAU_TBBUTTON@@HH@Z 0043ce0b f   nafxcw:bartool.obj
 0001:0003bee5       ?SizeToolBar@CToolBar@@IAEXPAU_TBBUTTON@@HHH@Z 0043cee5 f   nafxcw:bartool.obj
 0001:0003c042       ?CalcLayout@CToolBar@@IAE?AVCSize@@KH@Z 0043d042 f   nafxcw:bartool.obj
 0001:0003c36c       ?CalcFixedLayout@CToolBar@@UAE?AVCSize@@HH@Z 0043d36c f   nafxcw:bartool.obj
 0001:0003c3a4       ?CalcDynamicLayout@CToolBar@@UAE?AVCSize@@HK@Z 0043d3a4 f   nafxcw:bartool.obj
 0001:0003c405       ?OnToolHitTest@CToolBar@@UBEHVCPoint@@PAUtagTOOLINFOA@@@Z 0043d405 f   nafxcw:bartool.obj
 0001:0003c4d4       ?GetMessageMap@CToolBar@@MBEPBUAFX_MSGMAP@@XZ 0043d4d4 f   nafxcw:bartool.obj
 0001:0003c4da       ?OnEraseBkgnd@CToolBar@@IAEHPAVCDC@@@Z 0043d4da f   nafxcw:bartool.obj
 0001:0003c4e2       ?OnNcHitTest@CToolBar@@IAEIVCPoint@@@Z 0043d4e2 f   nafxcw:bartool.obj
 0001:0003c4e8       ?OnNcCalcSize@CToolBar@@IAEXHPAUtagNCCALCSIZE_PARAMS@@@Z 0043d4e8 f   nafxcw:bartool.obj
 0001:0003c549       ?OnBarStyleChange@CToolBar@@UAEXKK@Z 0043d549 f   nafxcw:bartool.obj
 0001:0003c57c       ?OnWindowPosChanging@CToolBar@@IAEXPAUtagWINDOWPOS@@@Z 0043d57c f   nafxcw:bartool.obj
 0001:0003c5b7       ?OnPaint@CToolBar@@IAEXXZ  0043d5b7 f   nafxcw:bartool.obj
 0001:0003c5d1       ?OnSetButtonSize@CToolBar@@IAEJIJ@Z 0043d5d1 f   nafxcw:bartool.obj
 0001:0003c5e4       ?OnSetBitmapSize@CToolBar@@IAEJIJ@Z 0043d5e4 f   nafxcw:bartool.obj
 0001:0003c5f7       ?OnSetSizeHelper@CToolBar@@IAEJAAVCSize@@J@Z 0043d5f7 f   nafxcw:bartool.obj
 0001:0003c663       ?OnPreserveZeroBorderHelper@CToolBar@@IAEJIJ@Z 0043d663 f   nafxcw:bartool.obj
 0001:0003c6b2       ?OnSysColorChange@CToolBar@@IAEXXZ 0043d6b2 f   nafxcw:bartool.obj
 0001:0003c6de       ?Enable@CToolCmdUI@@UAEXH@Z 0043d6de f   nafxcw:bartool.obj
 0001:0003c71c       ?SetCheck@CToolCmdUI@@UAEXH@Z 0043d71c f   nafxcw:bartool.obj
 0001:0003c75e       ?DoPaint@CDockBar@@UAEXPAVCDC@@@Z 0043d75e f   nafxcw:bartool.obj
 0001:0003c75e       ?SetText@CToolCmdUI@@UAEXPBD@Z 0043d75e f   nafxcw:bartool.obj
 0001:0003c75e       ?DrawItem@CStatusBar@@UAEXPAUtagDRAWITEMSTRUCT@@@Z 0043d75e f   nafxcw:bartool.obj
 0001:0003c761       ?OnUpdateCmdUI@CToolBar@@UAEXPAVCFrameWnd@@H@Z 0043d761 f   nafxcw:bartool.obj
 0001:0003c80b       ?GetMessageMap@CDockBar@@MBEPBUAFX_MSGMAP@@XZ 0043d80b f   nafxcw:bardock.obj
 0001:0003c811       ??0CDockBar@@QAE@H@Z       0043d811 f   nafxcw:bardock.obj
 0001:0003c88c       ??_ECDockBar@@UAEPAXI@Z    0043d88c f i nafxcw:bardock.obj
 0001:0003c88c       ??_GCDockBar@@UAEPAXI@Z    0043d88c f i nafxcw:bardock.obj
 0001:0003c8a8       ??1CDockBar@@UAE@XZ        0043d8a8 f   nafxcw:bardock.obj
 0001:0003c914       ?Create@CDockBar@@QAEHPAVCWnd@@KI@Z 0043d914 f   nafxcw:bardock.obj
 0001:0003c95b       ?IsDockBar@CDockBar@@UBEHXZ 0043d95b f   nafxcw:bardock.obj
 0001:0003c95f       ?GetDockedCount@CDockBar@@QBEHXZ 0043d95f f   nafxcw:bardock.obj
 0001:0003c98c       ?GetDockedVisibleCount@CDockBar@@UBEHXZ 0043d98c f   nafxcw:bardock.obj
 0001:0003c9c7       ?DockControlBar@CDockBar@@QAEXPAVCControlBar@@PBUtagRECT@@@Z 0043d9c7 f   nafxcw:bardock.obj
 0001:0003cbf2       ?ReDockControlBar@CDockBar@@QAEXPAVCControlBar@@PBUtagRECT@@@Z 0043dbf2 f   nafxcw:bardock.obj
 0001:0003cdd9       ?RemovePlaceHolder@CDockBar@@QAEXPAVCControlBar@@@Z 0043ddd9 f   nafxcw:bardock.obj
 0001:0003ce3a       ?RemoveControlBar@CDockBar@@QAEHPAVCControlBar@@HH@Z 0043de3a f   nafxcw:bardock.obj
 0001:0003cf48       ?CalcFixedLayout@CDockBar@@UAE?AVCSize@@HH@Z 0043df48 f   nafxcw:bardock.obj
 0001:0003d3db       ?OnSizeParent@CDockBar@@IAEJIJ@Z 0043e3db f   nafxcw:bardock.obj
 0001:0003d441       ?OnNcCalcSize@CDockBar@@IAEXHPAUtagNCCALCSIZE_PARAMS@@@Z 0043e441 f   nafxcw:bardock.obj
 0001:0003d487       ?OnPaint@CDockBar@@IAEXXZ  0043e487 f   nafxcw:bardock.obj
 0001:0003d4e7       ?FindBar@CDockBar@@QAEHPAVCControlBar@@H@Z 0043e4e7 f   nafxcw:bardock.obj
 0001:0003d515       ?ShowAll@CDockBar@@QAEXH@Z 0043e515 f   nafxcw:bardock.obj
 0001:0003d556       ?GetDockedControlBar@CDockBar@@IBEPAVCControlBar@@H@Z 0043e556 f   nafxcw:bardock.obj
 0001:0003d572       ?Insert@CDockBar@@IAEHPAVCControlBar@@VCRect@@VCPoint@@@Z 0043e572 f   nafxcw:bardock.obj
 0001:0003d6ae       ?OnUpdateCmdUI@CDockBar@@MAEXPAVCFrameWnd@@H@Z 0043e6ae f   nafxcw:bardock.obj
 0001:0003d6b1       ?EnableDocking@CControlBar@@QAEXK@Z 0043e6b1 f   nafxcw:bardock.obj
 0001:0003d710       ?GetMessageMap@CMiniDockFrameWnd@@MBEPBUAFX_MSGMAP@@XZ 0043e710 f   nafxcw:bardock.obj
 0001:0003d716       ?OnMouseActivate@CMiniDockFrameWnd@@QAEHPAVCWnd@@II@Z 0043e716 f   nafxcw:bardock.obj
 0001:0003d731       ??0CMiniDockFrameWnd@@QAE@XZ 0043e731 f   nafxcw:bardock.obj
 0001:0003d774       ??_GCMiniDockFrameWnd@@UAEPAXI@Z 0043e774 f i nafxcw:bardock.obj
 0001:0003d774       ??_ECMiniDockFrameWnd@@UAEPAXI@Z 0043e774 f i nafxcw:bardock.obj
 0001:0003d790       ??1CMiniDockFrameWnd@@UAE@XZ 0043e790 f i nafxcw:bardock.obj
 0001:0003d7c8       ?Create@CMiniDockFrameWnd@@UAEHPAVCWnd@@K@Z 0043e7c8 f   nafxcw:bardock.obj
 0001:0003d92d       ?RecalcLayout@CMiniDockFrameWnd@@UAEXH@Z 0043e92d f   nafxcw:bardock.obj
 0001:0003d975       ?OnClose@CMiniDockFrameWnd@@QAEXXZ 0043e975 f   nafxcw:bardock.obj
 0001:0003d983       ?OnNcLButtonDown@CMiniDockFrameWnd@@QAEXIVCPoint@@@Z 0043e983 f   nafxcw:bardock.obj
 0001:0003da29       ?OnNcLButtonDblClk@CMiniDockFrameWnd@@QAEXIVCPoint@@@Z 0043ea29 f   nafxcw:bardock.obj
 0001:0003da7a       ?OnFileNew@CWinApp@@IAEXXZ 0043ea7a f   nafxcw:appdlg.obj
 0001:0003da8a       ?OnFileOpen@CWinApp@@IAEXXZ 0043ea8a f   nafxcw:appdlg.obj
 0001:0003da95       ?DoPromptFileName@CWinApp@@QAEHAAVCString@@IKHPAVCDocTemplate@@@Z 0043ea95 f   nafxcw:appdlg.obj
 0001:0003dab6       ?HideApplication@CWinApp@@QAEXXZ 0043eab6 f   nafxcw:appui.obj
 0001:0003dae8       ?DoWaitCursor@CWinApp@@UAEXH@Z 0043eae8 f   nafxcw:appui.obj
 0001:0003db47       ?SaveAllModified@CWinApp@@UAEHXZ 0043eb47 f   nafxcw:appui.obj
 0001:0003db5a       ?AddToRecentFileList@CWinApp@@UAEXPBD@Z 0043eb5a f   nafxcw:appui.obj
 0001:0003db70       ?OpenDocumentFile@CWinApp@@UAEPAVCDocument@@PBD@Z 0043eb70 f   nafxcw:appui.obj
 0001:0003db82       ?CloseAllDocuments@CWinApp@@QAEXH@Z 0043eb82 f   nafxcw:appui.obj
 0001:0003db98       ?OnUpdateRecentFileMenu@CWinApp@@IAEXPAVCCmdUI@@@Z 0043eb98 f   nafxcw:appui.obj
 0001:0003dbba       ?OnDDECommand@CWinApp@@UAEHPAD@Z 0043ebba f   nafxcw:appui.obj
 0001:0003dbd4       ?OnOpenRecentFile@CWinApp@@IAEHI@Z 0043ebd4 f   nafxcw:appui.obj
 0001:0003dc07       ?WriteProfileInt@CWinApp@@QAEHPBD0H@Z 0043ec07 f   nafxcw:appui3.obj
 0001:0003dc7c       ?WriteProfileStringA@CWinApp@@QAEHPBD00@Z 0043ec7c f   nafxcw:appui3.obj
 0001:0003dd1c       ?AfxFormatStrings@@YGXAAVCString@@IPBQBDH@Z 0043ed1c f   nafxcw:apphelp.obj
 0001:0003dd56       ?AfxFormatStrings@@YGXAAVCString@@PBDPBQBDH@Z 0043ed56 f   nafxcw:apphelp.obj
 0001:0003de55       ?AfxFormatString1@@YGXAAVCString@@IPBD@Z 0043ee55 f   nafxcw:apphelp.obj
 0001:0003de6c       ?AfxFormatString2@@YGXAAVCString@@IPBD1@Z 0043ee6c f   nafxcw:apphelp.obj
 0001:0003de92       ?_AfxAppendFilterSuffix@@YGXAAVCString@@AAUtagOFNA@@PAVCDocTemplate@@PAV1@@Z 0043ee92 f   nafxcw:docmgr.obj
 0001:0003df69       ?GetMessageMap@CNewTypeDlg@@MBEPBUAFX_MSGMAP@@XZ 0043ef69 f   nafxcw:docmgr.obj
 0001:0003df6f       ?OnInitDialog@CNewTypeDlg@@MAEHXZ 0043ef6f f   nafxcw:docmgr.obj
 0001:0003e07d       ?OnOK@CNewTypeDlg@@MAEXXZ  0043f07d f   nafxcw:docmgr.obj
 0001:0003e0c5       ?AddDocTemplate@CDocManager@@UAEXPAVCDocTemplate@@@Z 0043f0c5 f   nafxcw:docmgr.obj
 0001:0003e12a       ?GetFirstDocTemplatePosition@CDocManager@@UBEPAU__POSITION@@XZ 0043f12a f   nafxcw:docmgr.obj
 0001:0003e12e       ?GetNextDocTemplate@CDocManager@@UBEPAVCDocTemplate@@AAPAU__POSITION@@@Z 0043f12e f   nafxcw:docmgr.obj
 0001:0003e13e       ?SaveAllModified@CDocManager@@UAEHXZ 0043f13e f   nafxcw:docmgr.obj
 0001:0003e15d       ?CloseAllDocuments@CDocManager@@UAEXH@Z 0043f15d f   nafxcw:docmgr.obj
 0001:0003e17b       ?DoPromptFileName@CDocManager@@UAEHAAVCString@@IKHPAVCDocTemplate@@@Z 0043f17b f   nafxcw:docmgr.obj
 0001:0003e31d       ?GetDocumentCount@CDocManager@@IAEHXZ 0043f31d f   nafxcw:docmgr.obj
 0001:0003e35f       ?OnDDECommand@CDocManager@@UAEHPAD@Z 0043f35f f   nafxcw:docmgr.obj
 0001:0003e943       ?OnFileNew@CDocManager@@UAEXXZ 0043f943 f   nafxcw:docmgr.obj
 0001:0003e9e8       ??1CNewTypeDlg@@UAE@XZ     0043f9e8 f i nafxcw:docmgr.obj
 0001:0003e9f3       ??_GCNewTypeDlg@@UAEPAXI@Z 0043f9f3 f i nafxcw:docmgr.obj
 0001:0003e9f3       ??_ECNewTypeDlg@@UAEPAXI@Z 0043f9f3 f i nafxcw:docmgr.obj
 0001:0003ea0f       ?OnFileOpen@CDocManager@@UAEXXZ 0043fa0f f   nafxcw:docmgr.obj
 0001:0003ea6b       ??1CControlBar@@UAE@XZ     0043fa6b f   nafxcw:barcore.obj
 0001:0003eaf0       ?PostNcDestroy@CControlBar@@UAEXXZ 0043faf0 f   nafxcw:barcore.obj
 0001:0003eb02       ?CalcFixedLayout@CControlBar@@UAE?AVCSize@@HH@Z 0043fb02 f   nafxcw:barcore.obj
 0001:0003eb34       ?CalcDynamicLayout@CControlBar@@UAE?AVCSize@@HK@Z 0043fb34 f   nafxcw:barcore.obj
 0001:0003eb67       ?IsDockBar@CControlBar@@UBEHXZ 0043fb67 f   nafxcw:barcore.obj
 0001:0003eb6a       ?ResetTimer@CControlBar@@QAEXII@Z 0043fb6a f   nafxcw:barcore.obj
 0001:0003eba0       ?OnTimer@CControlBar@@QAEXI@Z 0043fba0 f   nafxcw:barcore.obj
 0001:0003ed10       ?SetStatusText@CControlBar@@UAEHH@Z 0043fd10 f   nafxcw:barcore.obj
 0001:0003eda7       ?PreTranslateMessage@CControlBar@@UAEHPAUtagMSG@@@Z 0043fda7 f   nafxcw:barcore.obj
 0001:0003efa0       ?WindowProc@CControlBar@@UAEJIIJ@Z 0043ffa0 f   nafxcw:barcore.obj
 0001:0003f066       ?OnHelpHitTest@CControlBar@@QAEJIJ@Z 00440066 f   nafxcw:barcore.obj
 0001:0003f0a9       ?OnWindowPosChanging@CControlBar@@QAEXPAUtagWINDOWPOS@@@Z 004400a9 f   nafxcw:barcore.obj
 0001:0003f1aa       ?OnCreate@CControlBar@@QAEHPAUtagCREATESTRUCTA@@@Z 004401aa f   nafxcw:barcore.obj
 0001:0003f1fd       ?OnDestroy@CControlBar@@QAEXXZ 004401fd f   nafxcw:barcore.obj
 0001:0003f233       ?DestroyWindow@CControlBar@@UAEHXZ 00440233 f   nafxcw:barcore.obj
 0001:0003f25e       ?OnMouseActivate@CControlBar@@QAEHPAVCWnd@@II@Z 0044025e f   nafxcw:barcore.obj
 0001:0003f27f       ?OnPaint@CControlBar@@QAEXXZ 0044027f f   nafxcw:barcore.obj
 0001:0003f2d1       ?EraseNonClient@CControlBar@@QAEXXZ 004402d1 f   nafxcw:barcore.obj
 0001:0003f39e       ?OnCtlColor@CControlBar@@QAEPAUHBRUSH__@@PAVCDC@@PAVCWnd@@I@Z 0044039e f   nafxcw:barcore.obj
 0001:0003f3f6       ?OnLButtonDown@CControlBar@@QAEXIVCPoint@@@Z 004403f6 f   nafxcw:barcore.obj
 0001:0003f43c       ?OnLButtonDblClk@CControlBar@@QAEXIVCPoint@@@Z 0044043c f   nafxcw:barcore.obj
 0001:0003f46e       ?OnIdleUpdateCmdUI@CControlBar@@QAEJIJ@Z 0044046e f   nafxcw:barcore.obj
 0001:0003f516       ?OnInitialUpdate@CControlBar@@QAEXXZ 00440516 f   nafxcw:barcore.obj
 0001:0003f520       ?RecalcDelayShow@CControlBar@@UAEKPAUAFX_SIZEPARENTPARAMS@@@Z 00440520 f   nafxcw:barcore.obj
 0001:0003f590       ?OnSizeParent@CControlBar@@QAEJIJ@Z 00440590 f   nafxcw:barcore.obj
 0001:0003f6c5       ?DelayShow@CControlBar@@UAEXH@Z 004406c5 f   nafxcw:barcore.obj
 0001:0003f6f9       ?IsVisible@CControlBar@@UBEHXZ 004406f9 f   nafxcw:barcore.obj
 0001:0003f717       ?DoPaint@CControlBar@@UAEXPAVCDC@@@Z 00440717 f   nafxcw:barcore.obj
 0001:0003f74e       ?DrawBorders@CControlBar@@QAEXPAVCDC@@AAVCRect@@@Z 0044074e f   nafxcw:barcore.obj
 0001:0003f8fc       ?DrawGripper@CControlBar@@QAEXPAVCDC@@ABVCRect@@@Z 004408fc f   nafxcw:barcore.obj
 0001:0003f975       ?CalcInsideRect@CControlBar@@QBEXAAVCRect@@H@Z 00440975 f   nafxcw:barcore.obj
 0001:0003fa18       ?_AfxAdjustRectangle@@YGXAAVCRect@@VCPoint@@@Z 00440a18 f   nafxcw:dockcont.obj
 0001:0003fa59       ??0CDockContext@@QAE@PAVCControlBar@@@Z 00440a59 f   nafxcw:dockcont.obj
 0001:0003fabe       ??1CDockContext@@QAE@XZ    00440abe f   nafxcw:dockcont.obj
 0001:0003fad9       ?StartDrag@CDockContext@@UAEXVCPoint@@@Z 00440ad9 f   nafxcw:dockcont.obj
 0001:0003fe2c       ?Move@CDockContext@@QAEXVCPoint@@@Z 00440e2c f   nafxcw:dockcont.obj
 0001:0003fea8       ?OnKey@CDockContext@@QAEXHH@Z 00440ea8 f   nafxcw:dockcont.obj
 0001:0003fedc       ?EndDrag@CDockContext@@QAEXXZ 00440edc f   nafxcw:dockcont.obj
 0001:0003ffe7       ?StartResize@CDockContext@@UAEXHVCPoint@@@Z 00440fe7 f   nafxcw:dockcont.obj
 0001:00040134       ?Stretch@CDockContext@@QAEXVCPoint@@@Z 00441134 f   nafxcw:dockcont.obj
 0001:0004029c       ?EndResize@CDockContext@@QAEXXZ 0044129c f   nafxcw:dockcont.obj
 0001:000402df       ?ToggleDocking@CDockContext@@UAEXXZ 004412df f   nafxcw:dockcont.obj
 0001:000403b8       ?InitLoop@CDockContext@@QAEXXZ 004413b8 f   nafxcw:dockcont.obj
 0001:00040479       ?CancelLoop@CDockContext@@QAEXXZ 00441479 f   nafxcw:dockcont.obj
 0001:000404c2       ?DrawFocusRect@CDockContext@@QAEXH@Z 004414c2 f   nafxcw:dockcont.obj
 0001:000405d8       ?UpdateState@CDockContext@@QAEXPAHH@Z 004415d8 f   nafxcw:dockcont.obj
 0001:0004062a       ?CanDock@CDockContext@@QAEKXZ 0044162a f   nafxcw:dockcont.obj
 0001:00040741       ?GetDockBar@CDockContext@@QAEPAVCDockBar@@K@Z 00441741 f   nafxcw:dockcont.obj
 0001:00040789       ?Track@CDockContext@@QAEHXZ 00441789 f   nafxcw:dockcont.obj
 0001:000408a4       ??_GCMemFile@@UAEPAXI@Z    004418a4 f i nafxcw:filemem.obj
 0001:000408a4       ??_ECMemFile@@UAEPAXI@Z    004418a4 f i nafxcw:filemem.obj
 0001:000408c0       ??0CMemFile@@QAE@PAEII@Z   004418c0 f   nafxcw:filemem.obj
 0001:000408fc       ??1CMemFile@@UAE@XZ        004418fc f   nafxcw:filemem.obj
 0001:00040948       ?Alloc@CMemFile@@MAEPAEK@Z 00441948 f   nafxcw:filemem.obj
 0001:00040955       ?Realloc@CMemFile@@MAEPAEPAEK@Z 00441955 f   nafxcw:filemem.obj
 0001:00040967       ?Memcpy@CMemFile@@MAEPAEPAEPBEI@Z 00441967 f   nafxcw:filemem.obj
 0001:0004098c       ?Free@CMemFile@@MAEXPAE@Z  0044198c f   nafxcw:filemem.obj
 0001:00040999       ?GetPosition@CMemFile@@UBEKXZ 00441999 f   nafxcw:filemem.obj
 0001:0004099d       ?GrowFile@CMemFile@@MAEXK@Z 0044199d f   nafxcw:filemem.obj
 0001:000409f6       ?SetLength@CMemFile@@UAEXK@Z 004419f6 f   nafxcw:filemem.obj
 0001:00040a19       ?Read@CMemFile@@UAEIPAXI@Z 00441a19 f   nafxcw:filemem.obj
 0001:00040a5a       ?Write@CMemFile@@UAEXPBXI@Z 00441a5a f   nafxcw:filemem.obj
 0001:00040a9c       ?Seek@CMemFile@@UAEJJI@Z   00441a9c f   nafxcw:filemem.obj
 0001:00040ae2       ?Flush@CMemFile@@UAEXXZ    00441ae2 f   nafxcw:filemem.obj
 0001:00040ae3       ?Close@CMemFile@@UAEXXZ    00441ae3 f   nafxcw:filemem.obj
 0001:00040b0d       ?Abort@CMemFile@@UAEXXZ    00441b0d f   nafxcw:filemem.obj
 0001:00040b12       ?LockRange@CMemFile@@UAEXKK@Z 00441b12 f   nafxcw:filemem.obj
 0001:00040b12       ?UnlockRange@CMemFile@@UAEXKK@Z 00441b12 f   nafxcw:filemem.obj
 0001:00040b1a       ?Duplicate@CMemFile@@UBEPAVCFile@@XZ 00441b1a f   nafxcw:filemem.obj
 0001:00040b22       ?GetBufferPtr@CMemFile@@UAEIIIPAPAX0@Z 00441b22 f   nafxcw:filemem.obj
 0001:00040bc9       ??0CDialogBar@@QAE@XZ      00441bc9 f   nafxcw:bardlg.obj
 0001:00040be9       ??_ECDialogBar@@UAEPAXI@Z  00441be9 f i nafxcw:bardlg.obj
 0001:00040be9       ??_GCDialogBar@@UAEPAXI@Z  00441be9 f i nafxcw:bardlg.obj
 0001:00040c05       ??1CDialogBar@@UAE@XZ      00441c05 f   nafxcw:bardlg.obj
 0001:00040c3d       ?Create@CDialogBar@@QAEHPAVCWnd@@PBDII@Z 00441c3d f   nafxcw:bardlg.obj
 0001:00040d36       ?CalcFixedLayout@CDialogBar@@UAE?AVCSize@@HH@Z 00441d36 f   nafxcw:bardlg.obj
 0001:00040d7a       ?OnUpdateCmdUI@CDialogBar@@UAEXPAVCFrameWnd@@H@Z 00441d7a f   nafxcw:bardlg.obj
 0001:00040d8a       ?GetMessageMap@CDialogBar@@MBEPBUAFX_MSGMAP@@XZ 00441d8a f   nafxcw:bardlg.obj
 0001:00040d90       ?HandleInitDialog@CDialogBar@@IAEJIJ@Z 00441d90 f   nafxcw:bardlg.obj
 0001:00040dcb       ?SetOccDialogInfo@CDialogBar@@MAEHPAU_AFX_OCC_DIALOG_INFO@@@Z 00441dcb f   nafxcw:bardlg.obj
 0001:00040ddb       ??1CButton@@UAE@XZ         00441ddb f   nafxcw:winctrl1.obj
 0001:00040e13       ?OnChildNotify@CButton@@MAEHIIJPAJ@Z 00441e13 f   nafxcw:winctrl1.obj
 0001:00040e41       ??1CListBox@@UAE@XZ        00441e41 f   nafxcw:winctrl1.obj
 0001:00040e79       ?DrawItem@CListBox@@UAEXPAUtagDRAWITEMSTRUCT@@@Z 00441e79 f   nafxcw:winctrl1.obj
 0001:00040e79       ?MeasureItem@CListBox@@UAEXPAUtagMEASUREITEMSTRUCT@@@Z 00441e79 f   nafxcw:winctrl1.obj
 0001:00040e79       ?DrawItem@CButton@@UAEXPAUtagDRAWITEMSTRUCT@@@Z 00441e79 f   nafxcw:winctrl1.obj
 0001:00040e79       ?DeleteItem@CListBox@@UAEXPAUtagDELETEITEMSTRUCT@@@Z 00441e79 f   nafxcw:winctrl1.obj
 0001:00040e7c       ?CompareItem@CListBox@@UAEHPAUtagCOMPAREITEMSTRUCT@@@Z 00441e7c f   nafxcw:winctrl1.obj
 0001:00040e81       ?VKeyToItem@CListBox@@UAEHII@Z 00441e81 f   nafxcw:winctrl1.obj
 0001:00040e81       ?CharToItem@CListBox@@UAEHII@Z 00441e81 f   nafxcw:winctrl1.obj
 0001:00040e89       ?OnChildNotify@CListBox@@MAEHIIJPAJ@Z 00441e89 f   nafxcw:winctrl1.obj
 0001:00040f8f       ?GetMessageMap@CFrameWnd@@MBEPBUAFX_MSGMAP@@XZ 00441f8f f   nafxcw:winfrm.obj
 0001:00040f95       ??0CFrameWnd@@QAE@XZ       00441f95 f   nafxcw:winfrm.obj
 0001:00041057       ??_ECFrameWnd@@UAEPAXI@Z   00442057 f i nafxcw:winfrm.obj
 0001:00041057       ??_GCFrameWnd@@UAEPAXI@Z   00442057 f i nafxcw:winfrm.obj
 0001:00041073       ??1CFrameWnd@@UAE@XZ       00442073 f   nafxcw:winfrm.obj
 0001:000410f3       ?AddFrameWnd@CFrameWnd@@IAEXXZ 004420f3 f   nafxcw:winfrm.obj
 0001:00041117       ?RemoveFrameWnd@CFrameWnd@@IAEXXZ 00442117 f   nafxcw:winfrm.obj
 0001:0004113b       ?LoadAccelTable@CFrameWnd@@QAEHPBD@Z 0044213b f   nafxcw:winfrm.obj
 0001:00041161       ?GetDefaultAccelerator@CFrameWnd@@UAEPAUHACCEL__@@XZ 00442161 f   nafxcw:winfrm.obj
 0001:00041185       ?PreTranslateMessage@CFrameWnd@@UAEHPAUtagMSG@@@Z 00442185 f   nafxcw:winfrm.obj
 0001:000411fc       ?PostNcDestroy@CFrameWnd@@MAEXXZ 004421fc f   nafxcw:winfrm.obj
 0001:00041208       ?OnPaletteChanged@CFrameWnd@@IAEXPAVCWnd@@@Z 00442208 f   nafxcw:winfrm.obj
 0001:00041224       ?OnQueryNewPalette@CFrameWnd@@IAEHXZ 00442224 f   nafxcw:winfrm.obj
 0001:00041245       ?ExitHelpMode@CFrameWnd@@UAEXXZ 00442245 f   nafxcw:winfrm.obj
 0001:000412b0       ?OnSetCursor@CFrameWnd@@IAEHPAVCWnd@@II@Z 004422b0 f   nafxcw:winfrm.obj
 0001:000412da       ?OnCommandHelp@CFrameWnd@@IAEJIJ@Z 004422da f   nafxcw:winfrm.obj
 0001:00041332       ?OnHelpHitTest@CFrameWnd@@IAEJIJ@Z 00442332 f   nafxcw:winfrm.obj
 0001:00041348       ?OnCommand@CFrameWnd@@MAEHIJ@Z 00442348 f   nafxcw:winfrm.obj
 0001:000413bf       ?AfxIsDescendant@@YGHPAUHWND__@@0@Z 004423bf f   nafxcw:winfrm.obj
 0001:000413df       ?BeginModalState@CFrameWnd@@UAEXXZ 004423df f   nafxcw:winfrm.obj
 0001:000414fb       ?EndModalState@CFrameWnd@@UAEXXZ 004424fb f   nafxcw:winfrm.obj
 0001:0004156a       ?ShowOwnedWindows@CFrameWnd@@QAEXH@Z 0044256a f   nafxcw:winfrm.obj
 0001:00041602       ?OnEnable@CFrameWnd@@IAEXH@Z 00442602 f   nafxcw:winfrm.obj
 0001:000416b8       ?NotifyFloatingWindows@CFrameWnd@@QAEXK@Z 004426b8 f   nafxcw:winfrm.obj
 0001:00041762       ?PreCreateWindow@CFrameWnd@@MAEHAAUtagCREATESTRUCTA@@@Z 00442762 f   nafxcw:winfrm.obj
 0001:000417a6       ?Create@CFrameWnd@@QAEHPBD0KABUtagRECT@@PAVCWnd@@0KPAUCCreateContext@@@Z 004427a6 f   nafxcw:winfrm.obj
 0001:0004183e       ?CreateView@CFrameWnd@@QAEPAVCWnd@@PAUCCreateContext@@I@Z 0044283e f   nafxcw:winfrm.obj
 0001:000418b6       ?OnCreateClient@CFrameWnd@@MAEHPAUtagCREATESTRUCTA@@PAUCCreateContext@@@Z 004428b6 f   nafxcw:winfrm.obj
 0001:000418d8       ?OnCreate@CFrameWnd@@IAEHPAUtagCREATESTRUCTA@@@Z 004428d8 f   nafxcw:winfrm.obj
 0001:000418e7       ?OnCreateHelper@CFrameWnd@@IAEHPAUtagCREATESTRUCTA@@PAUCCreateContext@@@Z 004428e7 f   nafxcw:winfrm.obj
 0001:00041936       ?GetIconWndClass@CFrameWnd@@IAEPBDKI@Z 00442936 f   nafxcw:winfrm.obj
 0001:000419b9       ?LoadFrame@CFrameWnd@@UAEHIKPAVCWnd@@PAUCCreateContext@@@Z 004429b9 f   nafxcw:winfrm.obj
 0001:00041a83       ?OnUpdateFrameMenu@CFrameWnd@@UAEXPAUHMENU__@@@Z 00442a83 f   nafxcw:winfrm.obj
 0001:00041ab9       ?InitialUpdateFrame@CFrameWnd@@QAEXPAVCDocument@@H@Z 00442ab9 f   nafxcw:winfrm.obj
 0001:00041b7f       ?OnClose@CFrameWnd@@IAEXXZ 00442b7f f   nafxcw:winfrm.obj
 0001:00041c76       ?OnDestroy@CFrameWnd@@IAEXXZ 00442c76 f   nafxcw:winfrm.obj
 0001:00041cc9       ?RemoveControlBar@CFrameWnd@@QAEXPAVCControlBar@@@Z 00442cc9 f   nafxcw:winfrm.obj
 0001:00041cea       ?OnCmdMsg@CFrameWnd@@UAEHIHPAXPAUAFX_CMDHANDLERINFO@@@Z 00442cea f   nafxcw:winfrm.obj
 0001:00041d92       ?OnHScroll@CFrameWnd@@IAEXIIPAVCScrollBar@@@Z 00442d92 f   nafxcw:winfrm.obj
 0001:00041dbb       ?OnVScroll@CFrameWnd@@IAEXIIPAVCScrollBar@@@Z 00442dbb f   nafxcw:winfrm.obj
 0001:00041de4       ?OnActivateTopLevel@CFrameWnd@@IAEJIJ@Z 00442de4 f   nafxcw:winfrm.obj
 0001:00041e72       ?OnActivate@CFrameWnd@@IAEXIPAVCWnd@@H@Z 00442e72 f   nafxcw:winfrm.obj
 0001:00041f46       ?OnNcActivate@CFrameWnd@@IAEHH@Z 00442f46 f   nafxcw:winfrm.obj
 0001:00041f7d       ?OnSysCommand@CFrameWnd@@IAEXIJ@Z 00442f7d f   nafxcw:winfrm.obj
 0001:00042012       ?OnDropFiles@CFrameWnd@@IAEXPAUHDROP__@@@Z 00443012 f   nafxcw:winfrm.obj
 0001:00042084       ?OnQueryEndSession@CFrameWnd@@IAEHXZ 00443084 f   nafxcw:winfrm.obj
 0001:000420a9       ?OnEndSession@CFrameWnd@@IAEXH@Z 004430a9 f   nafxcw:winfrm.obj
 0001:000420e1       ?OnDDEInitiate@CFrameWnd@@IAEJIJ@Z 004430e1 f   nafxcw:winfrm.obj
 0001:000421a4       ?OnDDEExecute@CFrameWnd@@IAEJIJ@Z 004431a4 f   nafxcw:winfrm.obj
 0001:0004223f       ?OnDDETerminate@CFrameWnd@@IAEJIJ@Z 0044323f f   nafxcw:winfrm.obj
 0001:0004225a       ?GetActiveView@CFrameWnd@@QBEPAVCView@@XZ 0044325a f   nafxcw:winfrm.obj
 0001:00042261       ?SetActiveView@CFrameWnd@@QAEXPAVCView@@H@Z 00443261 f   nafxcw:winfrm.obj
 0001:000422bb       ?OnSetFocus@CFrameWnd@@IAEXPAVCWnd@@@Z 004432bb f   nafxcw:winfrm.obj
 0001:000422d6       ?GetActiveDocument@CFrameWnd@@UAEPAVCDocument@@XZ 004432d6 f   nafxcw:winfrm.obj
 0001:000422e6       ?ShowControlBar@CFrameWnd@@QAEXPAVCControlBar@@HH@Z 004432e6 f   nafxcw:winfrm.obj
 0001:000423e1       ?OnInitMenu@CFrameWnd@@IAEXPAVCMenu@@@Z 004433e1 f   nafxcw:winfrm.obj
 0001:000423ff       ?OnInitMenuPopup@CFrameWnd@@IAEXPAVCMenu@@IH@Z 004433ff f   nafxcw:winfrm.obj
 0001:00042580       ?OnMenuSelect@CFrameWnd@@IAEXIIPAUHMENU__@@@Z 00443580 f   nafxcw:winfrm.obj
 0001:00042691       ?GetMessageString@CFrameWnd@@UBEXIAAVCString@@@Z 00443691 f   nafxcw:winfrm.obj
 0001:000426d5       ?OnPopMessageString@CFrameWnd@@IAEJIJ@Z 004436d5 f   nafxcw:winfrm.obj
 0001:000426f8       ?OnSetMessageString@CFrameWnd@@IAEJIJ@Z 004436f8 f   nafxcw:winfrm.obj
 0001:000427bd       ?OnHelpPromptAddr@CFrameWnd@@IAEJIJ@Z 004437bd f   nafxcw:winfrm.obj
 0001:000427c3       ?GetMessageBar@CFrameWnd@@UAEPAVCWnd@@XZ 004437c3 f   nafxcw:winfrm.obj
 0001:000427d3       ?OnEnterIdle@CFrameWnd@@IAEXIPAVCWnd@@@Z 004437d3 f   nafxcw:winfrm.obj
 0001:00042804       ?SetMessageText@CFrameWnd@@QAEXI@Z 00443804 f   nafxcw:winfrm.obj
 0001:0004281b       ?DestroyDockBars@CFrameWnd@@QAEXXZ 0044381b f   nafxcw:winfrm.obj
 0001:000428a6       ?GetControlBar@CFrameWnd@@QAEPAVCControlBar@@I@Z 004438a6 f   nafxcw:winfrm.obj
 0001:000428da       ?OnUpdateControlBarMenu@CFrameWnd@@QAEXPAVCCmdUI@@@Z 004438da f   nafxcw:winfrm.obj
 0001:0004290f       ?OnBarCheck@CFrameWnd@@QAEHI@Z 0044390f f   nafxcw:winfrm.obj
 0001:00042948       ?OnToolTipText@CFrameWnd@@IAEHIPAUtagNMHDR@@PAJ@Z 00443948 f   nafxcw:winfrm.obj
 0001:00042a1f       ?OnUpdateKeyIndicator@CFrameWnd@@IAEXPAVCCmdUI@@@Z 00443a1f f   nafxcw:winfrm.obj
 0001:00042a80       ?OnUpdateContextHelp@CFrameWnd@@IAEXPAVCCmdUI@@@Z 00443a80 f   nafxcw:winfrm.obj
 0001:00042aaf       ?OnUpdateFrameTitle@CFrameWnd@@UAEXH@Z 00443aaf f   nafxcw:winfrm.obj
 0001:00042af3       ?UpdateFrameTitleForDocument@CFrameWnd@@QAEXPBD@Z 00443af3 f   nafxcw:winfrm.obj
 0001:00042bf0       ?OnSetPreviewMode@CFrameWnd@@UAEXHPAUCPrintPreviewState@@@Z 00443bf0 f   nafxcw:winfrm.obj
 0001:00042e0b       ?DelayUpdateFrameMenu@CFrameWnd@@UAEXPAUHMENU__@@@Z 00443e0b f   nafxcw:winfrm.obj
 0001:00042e1f       ?OnIdleUpdateCmdUI@CFrameWnd@@IAEXXZ 00443e1f f   nafxcw:winfrm.obj
 0001:00042e8e       ?GetActiveFrame@CFrameWnd@@UAEPAV1@XZ 00443e8e f   nafxcw:winfrm.obj
 0001:00042e91       ?RecalcLayout@CFrameWnd@@UAEXH@Z 00443e91 f   nafxcw:winfrm.obj
 0001:00042f7e       ?NegotiateBorderSpace@CFrameWnd@@UAEHIPAUtagRECT@@@Z 00443f7e f   nafxcw:winfrm.obj
 0001:00042ff8       ?OnSize@CFrameWnd@@IAEXIHH@Z 00443ff8 f   nafxcw:winfrm.obj
 0001:00043017       ?OnEraseBkgnd@CFrameWnd@@IAEHPAVCDC@@@Z 00444017 f   nafxcw:winfrm.obj
 0001:0004302d       ?OnRegisteredMouseWheel@CFrameWnd@@IAEJIJ@Z 0044402d f   nafxcw:winfrm.obj
 0001:000430d0       ?ActivateFrame@CFrameWnd@@UAEXH@Z 004440d0 f   nafxcw:winfrm.obj
 0001:00043120       ?BringToTop@CFrameWnd@@IAEXH@Z 00444120 f   nafxcw:winfrm.obj
 0001:0004314f       ?GetDockingFrame@CControlBar@@QBEPAVCFrameWnd@@XZ 0044414f f   nafxcw:winfrm.obj
 0001:00043160       ?IsFloating@CControlBar@@QBEHXZ 00444160 f   nafxcw:winfrm.obj
 0001:0004318a       ?CreateFloatingFrame@CFrameWnd@@QAEPAVCMiniDockFrameWnd@@K@Z 0044418a f   nafxcw:winfrm2.obj
 0001:000431c3       ?EnableDocking@CFrameWnd@@QAEXK@Z 004441c3 f   nafxcw:winfrm2.obj
 0001:00043258       ?DockControlBar@CFrameWnd@@QAEXPAVCControlBar@@IPBUtagRECT@@@Z 00444258 f   nafxcw:winfrm2.obj
 0001:00043280       ?DockControlBar@CFrameWnd@@QAEXPAVCControlBar@@PAVCDockBar@@PBUtagRECT@@@Z 00444280 f   nafxcw:winfrm2.obj
 0001:000432d5       ?ReDockControlBar@CFrameWnd@@QAEXPAVCControlBar@@PAVCDockBar@@PBUtagRECT@@@Z 004442d5 f   nafxcw:winfrm2.obj
 0001:0004335a       ?FloatControlBar@CFrameWnd@@QAEXPAVCControlBar@@VCPoint@@K@Z 0044435a f   nafxcw:winfrm2.obj
 0001:00043457       ?CanDock@CFrameWnd@@QAEKVCRect@@KPAPAVCDockBar@@@Z 00444457 f   nafxcw:winfrm2.obj
 0001:000434ff       ?AfxOleCanExitApp@@YGHXZ   004444ff f   nafxcw:olelock.obj
 0001:0004350f       ?AfxOleSetUserCtrl@@YGXH@Z 0044450f f   nafxcw:olelock.obj
 0001:0004351e       ?AfxOleGetUserCtrl@@YGHXZ  0044451e f   nafxcw:olelock.obj
 0001:00043527       ?AfxWingdixTerm@@YAXXZ     00444527 f   nafxcw:wingdix.obj
 0001:00043548       ?DPtoHIMETRIC@CDC@@QBEXPAUtagSIZE@@@Z 00444548 f   nafxcw:wingdix.obj
 0001:000435d6       ?HIMETRICtoDP@CDC@@QBEXPAUtagSIZE@@@Z 004445d6 f   nafxcw:wingdix.obj
 0001:00043664       ?GetHalftoneBrush@CDC@@SGPAVCBrush@@XZ 00444664 f   nafxcw:wingdix.obj
 0001:000436d7       ?DrawDragRect@CDC@@QAEXPBUtagRECT@@UtagSIZE@@01PAVCBrush@@2@Z 004446d7 f   nafxcw:wingdix.obj
 0001:000439db       ?FillSolidRect@CDC@@QAEXHHHHK@Z 004449db f   nafxcw:wingdix.obj
 0001:00043a27       ?Draw3dRect@CDC@@QAEXHHHHKK@Z 00444a27 f   nafxcw:wingdix.obj
 0001:00043a91       ?_AfxWinminiTerm@@YAXXZ    00444a91 f   nafxcw:winmini.obj
 0001:00043abc       ?GetMessageMap@CMiniFrameWnd@@MBEPBUAFX_MSGMAP@@XZ 00444abc f   nafxcw:winmini.obj
 0001:00043ac2       ??0CMiniFrameWnd@@QAE@XZ   00444ac2 f   nafxcw:winmini.obj
 0001:00043b0c       ??_ECMiniFrameWnd@@UAEPAXI@Z 00444b0c f i nafxcw:winmini.obj
 0001:00043b0c       ??_GCMiniFrameWnd@@UAEPAXI@Z 00444b0c f i nafxcw:winmini.obj
 0001:00043b28       ?Initialize@CMiniFrameWnd@@SAXXZ 00444b28 f   nafxcw:winmini.obj
 0001:00043c94       ??1CMiniFrameWnd@@UAE@XZ   00444c94 f   nafxcw:winmini.obj
 0001:00043cde       ?CreateEx@CMiniFrameWnd@@QAEHKPBD0KABUtagRECT@@PAVCWnd@@I@Z 00444cde f   nafxcw:winmini.obj
 0001:00043d51       ?OnNcCreate@CMiniFrameWnd@@QAEHPAUtagCREATESTRUCTA@@@Z 00444d51 f   nafxcw:winmini.obj
 0001:00043dd9       ?PreCreateWindow@CMiniFrameWnd@@MAEHAAUtagCREATESTRUCTA@@@Z 00444dd9 f   nafxcw:winmini.obj
 0001:00043e12       ?OnGetMinMaxInfo@CMiniFrameWnd@@QAEXPAUtagMINMAXINFO@@@Z 00444e12 f   nafxcw:winmini.obj
 0001:00043e5a       ?OnNcActivate@CMiniFrameWnd@@QAEHH@Z 00444e5a f   nafxcw:winmini.obj
 0001:00043eab       ?OnNcCalcSize@CMiniFrameWnd@@QAEXHPAUtagNCCALCSIZE_PARAMS@@@Z 00444eab f   nafxcw:winmini.obj
 0001:00043f11       ?OnNcHitTest@CMiniFrameWnd@@QAEIVCPoint@@@Z 00444f11 f   nafxcw:winmini.obj
 0001:00044210       ?OnNcLButtonDown@CMiniFrameWnd@@QAEXIVCPoint@@@Z 00445210 f   nafxcw:winmini.obj
 0001:00044255       ?OnMouseMove@CMiniFrameWnd@@QAEXIVCPoint@@@Z 00445255 f   nafxcw:winmini.obj
 0001:000442dc       ?OnLButtonUp@CMiniFrameWnd@@QAEXIVCPoint@@@Z 004452dc f   nafxcw:winmini.obj
 0001:0004433c       ?InvertSysMenu@CMiniFrameWnd@@IAEXXZ 0044533c f   nafxcw:winmini.obj
 0001:000443d4       ?_AfxDrawFrame@@YGXPAVCDC@@PBUtagRECT@@HHAAVCBrush@@@Z 004453d4 f   nafxcw:winmini.obj
 0001:00044491       ?OnNcPaint@CMiniFrameWnd@@QAEXXZ 00445491 f   nafxcw:winmini.obj
 0001:000449eb       ?OnSysCommand@CMiniFrameWnd@@QAEXIJ@Z 004459eb f   nafxcw:winmini.obj
 0001:00044a53       ?CalcWindowRect@CMiniFrameWnd@@UAEXPAUtagRECT@@I@Z 00445a53 f   nafxcw:winmini.obj
 0001:00044abb       ?CalcBorders@CMiniFrameWnd@@SGXPAUtagRECT@@KK@Z 00445abb f   nafxcw:winmini.obj
 0001:00044b27       ?OnGetText@CMiniFrameWnd@@QAEJIJ@Z 00445b27 f   nafxcw:winmini.obj
 0001:00044b62       ?OnGetTextLength@CMiniFrameWnd@@QAEJIJ@Z 00445b62 f   nafxcw:winmini.obj
 0001:00044b7e       ?OnSetText@CMiniFrameWnd@@QAEJIJ@Z 00445b7e f   nafxcw:winmini.obj
 0001:00044c05       ?OnFloatStatus@CMiniFrameWnd@@QAEJIJ@Z 00445c05 f   nafxcw:winmini.obj
 0001:00044caf       ?OnQueryCenterWnd@CMiniFrameWnd@@QAEJIJ@Z 00445caf f   nafxcw:winmini.obj
 0001:00044cd5       ?GetRuntimeClass@CDialog@@UBEPAUCRuntimeClass@@XZ 00445cd5 f   nafxcw:dlgcore.obj
 0001:00044cdb       ?GetRuntimeClass@CButton@@UBEPAUCRuntimeClass@@XZ 00445cdb f   nafxcw:winctrl1.obj
 0001:00044ce1       ?GetRuntimeClass@CListBox@@UBEPAUCRuntimeClass@@XZ 00445ce1 f   nafxcw:winctrl1.obj
 0001:00044ce7       ?CreateObject@CWnd@@SGPAVCObject@@XZ 00445ce7 f   nafxcw:wincore.obj
 0001:00044d19       ?GetRuntimeClass@CWnd@@UBEPAUCRuntimeClass@@XZ 00445d19 f   nafxcw:wincore.obj
 0001:00044d1f       ?CreateObject@CTempWnd@@SGPAVCObject@@XZ 00445d1f f   nafxcw:wincore.obj
 0001:00044d5f       ??_GCTempWnd@@UAEPAXI@Z    00445d5f f i nafxcw:wincore.obj
 0001:00044d5f       ??_ECTempWnd@@UAEPAXI@Z    00445d5f f i nafxcw:wincore.obj
 0001:00044d7f       ??1CTempWnd@@UAE@XZ        00445d7f f i nafxcw:wincore.obj
 0001:00044d84       ?GetRuntimeClass@CTempWnd@@UBEPAUCRuntimeClass@@XZ 00445d84 f   nafxcw:wincore.obj
 0001:00044dca       ?CreateObject@?$CThreadLocal@V_AFX_THREAD_STATE@@@@SGPAVCNoTrackObject@@XZ 00445dca f i nafxcw:wincore.obj
 0001:00044dfe       ?CreateObject@?$CProcessLocal@V_AFX_WIN_STATE@@@@SGPAVCNoTrackObject@@XZ 00445dfe f i nafxcw:wincore.obj
 0001:00044e2f       ?CreateObject@?$CProcessLocal@V_AFX_CTL3D_STATE@@@@SGPAVCNoTrackObject@@XZ 00445e2f f i nafxcw:wincore.obj
 0001:00044e44       ??_E_AFX_CTL3D_STATE@@UAEPAXI@Z 00445e44 f i nafxcw:wincore.obj
 0001:00044e44       ??_G_AFX_CTL3D_STATE@@UAEPAXI@Z 00445e44 f i nafxcw:wincore.obj
 0001:00044e5f       ?_AfxLoadDotBitmap@@YGXXZ  00445e5f f   nafxcw:cmdtarg.obj
 0001:00044f3f       ?GetRuntimeClass@CCmdTarget@@UBEPAUCRuntimeClass@@XZ 00445f3f f   nafxcw:cmdtarg.obj
 0001:00044f45       ?GetRuntimeClass@CProgressCtrl@@UBEPAUCRuntimeClass@@XZ 00445f45 f   nafxcw:winctrl2.obj
 0001:00044f8b       ?GetRuntimeClass@CResourceException@@UBEPAUCRuntimeClass@@XZ 00445f8b f   nafxcw:wingdi.obj
 0001:00044fc3       ?GetRuntimeClass@CUserException@@UBEPAUCRuntimeClass@@XZ 00445fc3 f   nafxcw:wingdi.obj
 0001:00044ffb       ?CreateObject@CDC@@SGPAVCObject@@XZ 00445ffb f   nafxcw:wingdi.obj
 0001:00045012       ?GetRuntimeClass@CDC@@UBEPAUCRuntimeClass@@XZ 00446012 f   nafxcw:wingdi.obj
 0001:00045018       ?GetRuntimeClass@CClientDC@@UBEPAUCRuntimeClass@@XZ 00446018 f   nafxcw:wingdi.obj
 0001:0004501e       ?GetRuntimeClass@CWindowDC@@UBEPAUCRuntimeClass@@XZ 0044601e f   nafxcw:wingdi.obj
 0001:00045024       ?GetRuntimeClass@CPaintDC@@UBEPAUCRuntimeClass@@XZ 00446024 f   nafxcw:wingdi.obj
 0001:0004502a       ?CreateObject@CGdiObject@@SGPAVCObject@@XZ 0044602a f   nafxcw:wingdi.obj
 0001:00045044       ?GetRuntimeClass@CGdiObject@@UBEPAUCRuntimeClass@@XZ 00446044 f   nafxcw:wingdi.obj
 0001:0004504a       ?GetRuntimeClass@CPen@@UBEPAUCRuntimeClass@@XZ 0044604a f   nafxcw:wingdi.obj
 0001:00045050       ?GetRuntimeClass@CBrush@@UBEPAUCRuntimeClass@@XZ 00446050 f   nafxcw:wingdi.obj
 0001:00045056       ?GetRuntimeClass@CFont@@UBEPAUCRuntimeClass@@XZ 00446056 f   nafxcw:wingdi.obj
 0001:0004505c       ?GetRuntimeClass@CRgn@@UBEPAUCRuntimeClass@@XZ 0044605c f   nafxcw:wingdi.obj
 0001:00045062       ?CreateObject@CTempDC@@SGPAVCObject@@XZ 00446062 f   nafxcw:wingdi.obj
 0001:00045088       ??_GCTempDC@@UAEPAXI@Z     00446088 f i nafxcw:wingdi.obj
 0001:00045088       ??_ECTempDC@@UAEPAXI@Z     00446088 f i nafxcw:wingdi.obj
 0001:000450a8       ??1CTempDC@@UAE@XZ         004460a8 f i nafxcw:wingdi.obj
 0001:000450ad       ?GetRuntimeClass@CTempDC@@UBEPAUCRuntimeClass@@XZ 004460ad f   nafxcw:wingdi.obj
 0001:000450b3       ?CreateObject@CTempGdiObject@@SGPAVCObject@@XZ 004460b3 f   nafxcw:wingdi.obj
 0001:000450cf       ??_ECTempGdiObject@@UAEPAXI@Z 004460cf f i nafxcw:wingdi.obj
 0001:000450cf       ??_GCTempGdiObject@@UAEPAXI@Z 004460cf f i nafxcw:wingdi.obj
 0001:000450ef       ??1CTempGdiObject@@UAE@XZ  004460ef f i nafxcw:wingdi.obj
 0001:00045118       ?GetRuntimeClass@CTempGdiObject@@UBEPAUCRuntimeClass@@XZ 00446118 f   nafxcw:wingdi.obj
 0001:0004519e       ?ProcessShellCommand@CWinApp@@QAEHAAVCCommandLineInfo@@@Z 0044619e f   nafxcw:appui2.obj
 0001:000452df       ?Unregister@CWinApp@@QAEHXZ 004462df f   nafxcw:appui2.obj
 0001:0004540e       ?DelRegTree@CWinApp@@QAEJPAUHKEY__@@ABVCString@@@Z 0044640e f   nafxcw:appui2.obj
 0001:0004541e       ?AfxDelRegTreeHelper@@YGJPAUHKEY__@@ABVCString@@@Z 0044641e f   nafxcw:appui2.obj
 0001:000454f0       ?UnregisterShellFileTypes@CWinApp@@IAEXXZ 004464f0 f   nafxcw:appui2.obj
 0001:000454fb       ??0_AFX_THREAD_STATE@@QAE@XZ 004464fb f   nafxcw:afxstate.obj
 0001:00045512       ??_E_AFX_THREAD_STATE@@UAEPAXI@Z 00446512 f i nafxcw:afxstate.obj
 0001:00045512       ??_G_AFX_THREAD_STATE@@UAEPAXI@Z 00446512 f i nafxcw:afxstate.obj
 0001:0004552d       ??1_AFX_THREAD_STATE@@UAE@XZ 0044652d f   nafxcw:afxstate.obj
 0001:000455a1       ?AfxGetThreadState@@YGPAV_AFX_THREAD_STATE@@XZ 004465a1 f   nafxcw:afxstate.obj
 0001:000455d2       ??0AFX_MODULE_STATE@@QAE@H@Z 004465d2 f   nafxcw:afxstate.obj
 0001:00045635       ??_GAFX_MODULE_STATE@@UAEPAXI@Z 00446635 f i nafxcw:afxstate.obj
 0001:00045635       ??_EAFX_MODULE_STATE@@UAEPAXI@Z 00446635 f i nafxcw:afxstate.obj
 0001:00045650       ??1AFX_MODULE_STATE@@UAE@XZ 00446650 f   nafxcw:afxstate.obj
 0001:000456c5       ??0AFX_MODULE_THREAD_STATE@@QAE@XZ 004466c5 f   nafxcw:afxstate.obj
 0001:000456e4       ??_EAFX_MODULE_THREAD_STATE@@UAEPAXI@Z 004466e4 f i nafxcw:afxstate.obj
 0001:000456e4       ??_GAFX_MODULE_THREAD_STATE@@UAEPAXI@Z 004466e4 f i nafxcw:afxstate.obj
 0001:000456ff       ??1AFX_MODULE_THREAD_STATE@@UAE@XZ 004466ff f   nafxcw:afxstate.obj
 0001:000457ce       ?AfxGetModuleState@@YGPAVAFX_MODULE_STATE@@XZ 004467ce f   nafxcw:afxstate.obj
 0001:000457f4       ?AfxGetModuleThreadState@@YGPAVAFX_MODULE_THREAD_STATE@@XZ 004467f4 f   nafxcw:afxstate.obj
 0001:0004580b       ?Unlock@CTypeLibCache@@QAEXXZ 0044680b f   nafxcw:afxstate.obj
 0001:00045840       ?CreateObject@?$CThreadLocal@VAFX_MODULE_THREAD_STATE@@@@SGPAVCNoTrackObject@@XZ 00446840 f i nafxcw:afxstate.obj
 0001:00045856       ?CreateObject@?$CProcessLocal@V_AFX_BASE_MODULE_STATE@@@@SGPAVCNoTrackObject@@XZ 00446856 f i nafxcw:afxstate.obj
 0001:0004587e       ??_E_AFX_BASE_MODULE_STATE@@UAEPAXI@Z 0044687e f i nafxcw:afxstate.obj
 0001:0004587e       ??_G_AFX_BASE_MODULE_STATE@@UAEPAXI@Z 0044687e f i nafxcw:afxstate.obj
 0001:00045899       ??1_AFX_BASE_MODULE_STATE@@UAE@XZ 00446899 f i nafxcw:afxstate.obj
 0001:0004589e       ??0CWinThread@@QAE@P6AIPAX@Z0@Z 0044689e f   nafxcw:thrdcore.obj
 0001:000458e2       ??_GCWinThread@@UAEPAXI@Z  004468e2 f i nafxcw:thrdcore.obj
 0001:000458e2       ??_ECWinThread@@UAEPAXI@Z  004468e2 f i nafxcw:thrdcore.obj
 0001:000458fe       ??0CWinThread@@QAE@XZ      004468fe f   nafxcw:thrdcore.obj
 0001:0004593b       ?CommonConstruct@CWinThread@@QAEXXZ 0044693b f   nafxcw:thrdcore.obj
 0001:0004596d       ?GetRuntimeClass@CWinThread@@UBEPAUCRuntimeClass@@XZ 0044696d f   nafxcw:thrdcore.obj
 0001:00045973       ?CreateObject@?$CThreadLocal@V_AFX_CTL3D_THREAD@@@@SGPAVCNoTrackObject@@XZ 00446973 f i nafxcw:thrdcore.obj
 0001:00045988       ??_G_AFX_CTL3D_THREAD@@UAEPAXI@Z 00446988 f i nafxcw:thrdcore.obj
 0001:00045988       ??_E_AFX_CTL3D_THREAD@@UAEPAXI@Z 00446988 f i nafxcw:thrdcore.obj
 0001:000459a3       ?GetRuntimeClass@CMonthCalCtrl@@UBEPAUCRuntimeClass@@XZ 004469a3 f   nafxcw:winctrl5.obj
 0001:000459a9       ?CreateObject@CFrameWnd@@SGPAVCObject@@XZ 004469a9 f   nafxcw:winfrm.obj
 0001:000459de       ?GetRuntimeClass@CFrameWnd@@UBEPAUCRuntimeClass@@XZ 004469de f   nafxcw:winfrm.obj
 0001:000459e4       ??0CStatusBar@@QAE@XZ      004469e4 f   nafxcw:barstat.obj
 0001:00045a21       ??_GCStatusBar@@UAEPAXI@Z  00446a21 f i nafxcw:barstat.obj
 0001:00045a21       ??_ECStatusBar@@UAEPAXI@Z  00446a21 f i nafxcw:barstat.obj
 0001:00045a3d       ??1CStatusBar@@UAE@XZ      00446a3d f   nafxcw:barstat.obj
 0001:00045a78       ?Create@CStatusBar@@QAEHPAVCWnd@@KI@Z 00446a78 f   nafxcw:barstat.obj
 0001:00045a8e       ?CreateEx@CStatusBar@@QAEHPAVCWnd@@KKI@Z 00446a8e f   nafxcw:barstat.obj
 0001:00045afe       ?PreCreateWindow@CStatusBar@@UAEHAAUtagCREATESTRUCTA@@@Z 00446afe f   nafxcw:barstat.obj
 0001:00045b2d       ?SetIndicators@CStatusBar@@QAEHPBIH@Z 00446b2d f   nafxcw:barstat.obj
 0001:00045c66       ?AllocElements@CStatusBar@@QAEHHH@Z 00446c66 f   nafxcw:barstat.obj
 0001:00045cca       ?CalcInsideRect@CStatusBar@@QBEXAAVCRect@@H@Z 00446cca f   nafxcw:barstat.obj
 0001:00045d3a       ?UpdateAllPanes@CStatusBar@@IAEXHH@Z 00446d3a f   nafxcw:barstat.obj
 0001:00045e74       ?GetRuntimeClass@CStatusBar@@UBEPAUCRuntimeClass@@XZ 00446e74 f   nafxcw:barstat.obj
 0001:00045e7a       ?_AfxGetComCtlVersion@@YGKXZ 00446e7a f   nafxcw:bartool.obj
 0001:00045ee8       ?_AfxGetDropDownWidth@@YGHXZ 00446ee8 f   nafxcw:bartool.obj
 0001:00045f69       ??0CToolBar@@QAE@XZ        00446f69 f   nafxcw:bartool.obj
 0001:00045fca       ??_ECToolBar@@UAEPAXI@Z    00446fca f i nafxcw:bartool.obj
 0001:00045fca       ??_GCToolBar@@UAEPAXI@Z    00446fca f i nafxcw:bartool.obj
 0001:00045fe6       ??1CToolBar@@UAE@XZ        00446fe6 f   nafxcw:bartool.obj
 0001:0004603a       ?CreateEx@CToolBar@@QAEHPAVCWnd@@KKVCRect@@I@Z 0044703a f   nafxcw:bartool.obj
 0001:000460de       ?OnNcCreate@CToolBar@@IAEHPAUtagCREATESTRUCTA@@@Z 004470de f   nafxcw:bartool.obj
 0001:0004611d       ?SetSizes@CToolBar@@QAEXUtagSIZE@@0@Z 0044711d f   nafxcw:bartool.obj
 0001:000461a4       ?LoadToolBar@CToolBar@@QAEHPBD@Z 004471a4 f   nafxcw:bartool.obj
 0001:00046268       ?LoadBitmapA@CToolBar@@QAEHPBD@Z 00447268 f   nafxcw:bartool.obj
 0001:000462b0       ?AddReplaceBitmap@CToolBar@@QAEHPAUHBITMAP__@@@Z 004472b0 f   nafxcw:bartool.obj
 0001:00046354       ?SetButtons@CToolBar@@QAEHPBIH@Z 00447354 f   nafxcw:bartool.obj
 0001:00046479       ?GetRuntimeClass@CToolBar@@UBEPAUCRuntimeClass@@XZ 00447479 f   nafxcw:bartool.obj
 0001:0004647f       ?GetRuntimeClass@CDockBar@@UBEPAUCRuntimeClass@@XZ 0044747f f   nafxcw:bardock.obj
 0001:00046485       ?CreateObject@CMiniDockFrameWnd@@SGPAVCObject@@XZ 00447485 f   nafxcw:bardock.obj
 0001:000464ba       ?GetRuntimeClass@CMiniDockFrameWnd@@UBEPAUCRuntimeClass@@XZ 004474ba f   nafxcw:bardock.obj
 0001:000464c0       ??0_AFX_WIN_STATE@@QAE@XZ  004474c0 f   nafxcw:appcore.obj
 0001:000464c9       ??_G_AFX_WIN_STATE@@UAEPAXI@Z 004474c9 f i nafxcw:appcore.obj
 0001:000464c9       ??_E_AFX_WIN_STATE@@UAEPAXI@Z 004474c9 f i nafxcw:appcore.obj
 0001:000464e4       ??0CWinApp@@QAE@PBD@Z      004474e4 f   nafxcw:appcore.obj
 0001:000465ce       ??_GCWinApp@@UAEPAXI@Z     004475ce f i nafxcw:appcore.obj
 0001:000465ce       ??_ECWinApp@@UAEPAXI@Z     004475ce f i nafxcw:appcore.obj
 0001:000465ea       ?InitApplication@CWinApp@@UAEHXZ 004475ea f   nafxcw:appcore.obj
 0001:0004662a       ?InitInstance@CWinApp@@UAEHXZ 0044762a f   nafxcw:appcore.obj
 0001:0004662e       ?LoadStdProfileSettings@CWinApp@@IAEXI@Z 0044762e f   nafxcw:appcore.obj
 0001:000466aa       ?ParseCommandLine@CWinApp@@QAEXAAVCCommandLineInfo@@@Z 004476aa f   nafxcw:appcore.obj
 0001:000466fd       ??0CCommandLineInfo@@QAE@XZ 004476fd f   nafxcw:appcore.obj
 0001:0004673c       ??_GCCommandLineInfo@@UAEPAXI@Z 0044773c f i nafxcw:appcore.obj
 0001:0004673c       ??_ECCommandLineInfo@@UAEPAXI@Z 0044773c f i nafxcw:appcore.obj
 0001:00046758       ??1CCommandLineInfo@@UAE@XZ 00447758 f   nafxcw:appcore.obj
 0001:000467af       ?ParseParam@CCommandLineInfo@@UAEXPBDHH@Z 004477af f   nafxcw:appcore.obj
 0001:000467d8       ?ParseParamFlag@CCommandLineInfo@@IAEXPBD@Z 004477d8 f   nafxcw:appcore.obj
 0001:00046896       ?ParseParamNotFlag@CCommandLineInfo@@IAEXPBD@Z 00447896 f   nafxcw:appcore.obj
 0001:000468e6       ?ParseLast@CCommandLineInfo@@IAEXH@Z 004478e6 f   nafxcw:appcore.obj
 0001:00046915       ??1CWinApp@@UAE@XZ         00447915 f   nafxcw:appcore.obj
 0001:00046a4b       ?SaveStdProfileSettings@CWinApp@@IAEXXZ 00447a4b f   nafxcw:appcore.obj
 0001:00046a7b       ?ExitInstance@CWinApp@@UAEHXZ 00447a7b f   nafxcw:appcore.obj
 0001:00046ab1       ?GetRuntimeClass@CWinApp@@UBEPAUCRuntimeClass@@XZ 00447ab1 f   nafxcw:appcore.obj
 0001:00046ad8       ?GetRuntimeClass@CSingleDocTemplate@@UBEPAUCRuntimeClass@@XZ 00447ad8 f   nafxcw:docsingl.obj
 0001:00046ade       ?SetRegistryKey@CWinApp@@IAEXPBD@Z 00447ade f   nafxcw:appui3.obj
 0001:00046b19       ?GetAppRegistryKey@CWinApp@@QAEPAUHKEY__@@XZ 00447b19 f   nafxcw:appui3.obj
 0001:00046bad       ?GetSectionKey@CWinApp@@QAEPAUHKEY__@@PBD@Z 00447bad f   nafxcw:appui3.obj
 0001:00046bf3       ?GetProfileIntA@CWinApp@@QAEIPBD0H@Z 00447bf3 f   nafxcw:appui3.obj
 0001:00046c5f       ?GetProfileStringA@CWinApp@@QAE?AVCString@@PBD00@Z 00447c5f f   nafxcw:appui3.obj
 0001:00046d70       ?Enable3dControlsStatic@CWinApp@@IAEHXZ 00447d70 f   nafxcw:app3ds.obj
 0001:00046e21       ?CreateObject@CPreviewView@@SGPAVCObject@@XZ 00447e21 f   nafxcw:viewprev.obj
 0001:00046e56       ?GetRuntimeClass@CPreviewView@@UBEPAUCRuntimeClass@@XZ 00447e56 f   nafxcw:viewprev.obj
 0001:00046e5c       ?GetRuntimeClass@CMemoryException@@UBEPAUCRuntimeClass@@XZ 00447e5c f   nafxcw:except.obj
 0001:00046e94       ?GetRuntimeClass@CNotSupportedException@@UBEPAUCRuntimeClass@@XZ 00447e94 f   nafxcw:except.obj
 0001:00046ecc       ?AddHead@CSimpleList@@QAEXPAX@Z 00447ecc f   nafxcw:afxtls.obj
 0001:00046edf       ?Remove@CSimpleList@@QAEHPAX@Z 00447edf f   nafxcw:afxtls.obj
 0001:00046f25       ??2CNoTrackObject@@SGPAXI@Z 00447f25 f   nafxcw:afxtls.obj
 0001:00046f43       ??3CNoTrackObject@@SGXPAX@Z 00447f43 f   nafxcw:afxtls.obj
 0001:00046f57       ??0CThreadSlotData@@QAE@XZ 00447f57 f   nafxcw:afxtls.obj
 0001:00046f99       ??1CThreadSlotData@@QAE@XZ 00447f99 f   nafxcw:afxtls.obj
 0001:00046ff0       ?AllocSlot@CThreadSlotData@@QAEHXZ 00447ff0 f   nafxcw:afxtls.obj
 0001:00047102       ?FreeSlot@CThreadSlotData@@QAEXH@Z 00448102 f   nafxcw:afxtls.obj
 0001:0004715f       ?SetValue@CThreadSlotData@@QAEXHPAX@Z 0044815f f   nafxcw:afxtls.obj
 0001:00047249       ??_GCThreadData@@UAEPAXI@Z 00448249 f i nafxcw:afxtls.obj
 0001:00047249       ??_ECThreadData@@UAEPAXI@Z 00448249 f i nafxcw:afxtls.obj
 0001:00047264       ??1CThreadData@@UAE@XZ     00448264 f i nafxcw:afxtls.obj
 0001:00047265       ?DeleteValues@CThreadSlotData@@QAEXPAUCThreadData@@PAUHINSTANCE__@@@Z 00448265 f   nafxcw:afxtls.obj
 0001:000472fe       ?DeleteValues@CThreadSlotData@@QAEXPAUHINSTANCE__@@H@Z 004482fe f   nafxcw:afxtls.obj
 0001:00047357       ?GetData@CThreadLocalObject@@QAEPAVCNoTrackObject@@P6GPAV2@XZ@Z 00448357 f   nafxcw:afxtls.obj
 0001:000473ce       ?GetDataNA@CThreadLocalObject@@QAEPAVCNoTrackObject@@XZ 004483ce f   nafxcw:afxtls.obj
 0001:000473fb       ??1CThreadLocalObject@@QAE@XZ 004483fb f   nafxcw:afxtls.obj
 0001:00047419       ?GetData@CProcessLocalObject@@QAEPAVCNoTrackObject@@P6GPAV2@XZ@Z 00448419 f   nafxcw:afxtls.obj
 0001:00047474       ??1CProcessLocalObject@@QAE@XZ 00448474 f   nafxcw:afxtls.obj
 0001:00047499       ?AfxTermLocalData@@YGXPAUHINSTANCE__@@H@Z 00448499 f   nafxcw:afxtls.obj
 0001:000474b3       ?AfxTlsRelease@@YGXXZ      004484b3 f   nafxcw:afxtls.obj
 0001:000474db       ?GetRuntimeClass@CMapPtrToPtr@@UBEPAUCRuntimeClass@@XZ 004484db f   nafxcw:map_pp.obj
 0001:000474e1       ??1_AFX_CTL3D_STATE@@UAE@XZ 004484e1 f   nafxcw:app3d.obj
 0001:00047522       ??1_AFX_CTL3D_THREAD@@UAE@XZ 00448522 f   nafxcw:app3d.obj
 0001:00047558       ?AfxGetCtl3dState@@YGPAV_AFX_CTL3D_STATE@@XZ 00448558 f   nafxcw:app3d.obj
 0001:00047589       ??1?$CThreadLocal@VAFX_MODULE_THREAD_STATE@@@@QAE@XZ 00448589 f i nafxcw:app3d.obj
 0001:00047589       ??1?$CThreadLocal@V_AFX_THREAD_STATE@@@@QAE@XZ 00448589 f i nafxcw:app3d.obj
 0001:00047589       ??1?$CThreadLocal@V_AFX_CTL3D_THREAD@@@@QAE@XZ 00448589 f i nafxcw:app3d.obj
 0001:000475af       ??1?$CProcessLocal@V_AFX_OLE_STATE@@@@QAE@XZ 004485af f i nafxcw:app3d.obj
 0001:000475af       ??1?$CProcessLocal@V_AFX_WIN_STATE@@@@QAE@XZ 004485af f i nafxcw:app3d.obj
 0001:000475af       ??1?$CProcessLocal@V_AFX_CTL3D_STATE@@@@QAE@XZ 004485af f i nafxcw:app3d.obj
 0001:000475af       ??1?$CProcessLocal@V_AFX_BASE_MODULE_STATE@@@@QAE@XZ 004485af f i nafxcw:app3d.obj
 0001:000475de       ?AfxEnableWin40Compatibility@@YGXXZ 004485de f   nafxcw:auxdata.obj
 0001:0004760e       ?AfxEnableWin31Compatibility@@YGXXZ 0044860e f   nafxcw:auxdata.obj
 0001:00047630       ??0AUX_DATA@@QAE@XZ        00448630 f   nafxcw:auxdata.obj
 0001:000476cb       ?_AfxInitDBCS@@YGHXZ       004486cb f   nafxcw:afxdbcs.obj
 0001:000476fe       ?CreateObject@CMenu@@SGPAVCObject@@XZ 004486fe f   nafxcw:winmenu.obj
 0001:00047718       ?GetRuntimeClass@CMenu@@UBEPAUCRuntimeClass@@XZ 00448718 f   nafxcw:winmenu.obj
 0001:0004771e       ?CreateObject@CTempMenu@@SGPAVCObject@@XZ 0044871e f   nafxcw:winmenu.obj
 0001:0004773a       ??_GCTempMenu@@UAEPAXI@Z   0044873a f i nafxcw:winmenu.obj
 0001:0004773a       ??_ECTempMenu@@UAEPAXI@Z   0044873a f i nafxcw:winmenu.obj
 0001:0004775a       ??1CTempMenu@@UAE@XZ       0044875a f i nafxcw:winmenu.obj
 0001:00047783       ?GetRuntimeClass@CTempMenu@@UBEPAUCRuntimeClass@@XZ 00448783 f   nafxcw:winmenu.obj
 0001:000477c9       ?AfxCriticalInit@@YGHXZ    004487c9 f   nafxcw:afxcrit.obj
 0001:0004780e       ?AfxCriticalTerm@@YGXXZ    0044880e f   nafxcw:afxcrit.obj
 0001:0004785c       ?AfxLockGlobals@@YGXH@Z    0044885c f   nafxcw:afxcrit.obj
 0001:000478cc       ?AfxUnlockGlobals@@YGXH@Z  004488cc f   nafxcw:afxcrit.obj
 0001:000478ed       ?GetRuntimeClass@COleDispatchException@@UBEPAUCRuntimeClass@@XZ 004488ed f   nafxcw:oledisp1.obj
 0001:000478f3       ?_AfxDeleteRegKey@@YGHPBD@Z 004488f3 f   nafxcw:docmgr.obj
 0001:00047989       ?_AfxSetRegKey@@YGHPBD00@Z 00448989 f   nafxcw:docmgr.obj
 0001:00047a0a       ??0CDocManager@@QAE@XZ     00448a0a f   nafxcw:docmgr.obj
 0001:00047a3e       ??_ECDocManager@@UAEPAXI@Z 00448a3e f i nafxcw:docmgr.obj
 0001:00047a3e       ??_GCDocManager@@UAEPAXI@Z 00448a3e f i nafxcw:docmgr.obj
 0001:00047a5a       ?UnregisterShellFileTypes@CDocManager@@QAEXXZ 00448a5a f   nafxcw:docmgr.obj
 0001:00047cc1       ?RegisterShellFileTypes@CDocManager@@UAEXH@Z 00448cc1 f   nafxcw:docmgr.obj
 0001:000480fe       ?GetRuntimeClass@CDocManager@@UBEPAUCRuntimeClass@@XZ 004490fe f   nafxcw:docmgr.obj
 0001:00048104       ?GetRuntimeClass@CPtrList@@UBEPAUCRuntimeClass@@XZ 00449104 f   nafxcw:list_p.obj
 0001:0004810a       ?AfxBSTR2CString@@YGXPAVCString@@PAG@Z 0044910a f   nafxcw:olecnvrt.obj
 0001:0004814f       ?AfxBSTR2ABSTR@@YGPAGPAG@Z 0044914f f   nafxcw:olecnvrt.obj
 0001:0004819c       ?GetRuntimeClass@COleException@@UBEPAUCRuntimeClass@@XZ 0044919c f   nafxcw:olemisc.obj
 0001:000481a2       ??0CControlBar@@IAE@XZ     004491a2 f   nafxcw:barcore.obj
 0001:000481ee       ?SetBorders@CControlBar@@QAEXHHHH@Z 004491ee f   nafxcw:barcore.obj
 0001:0004820d       ?PreCreateWindow@CControlBar@@UAEHAAUtagCREATESTRUCTA@@@Z 0044920d f   nafxcw:barcore.obj
 0001:00048280       ?SetBarStyle@CControlBar@@QAEXK@Z 00449280 f   nafxcw:barcore.obj
 0001:000482ae       ?OnBarStyleChange@CControlBar@@UAEXKK@Z 004492ae f   nafxcw:barcore.obj
 0001:000482b1       ?AllocElements@CControlBar@@QAEHHH@Z 004492b1 f   nafxcw:barcore.obj
 0001:000482ea       ?GetRuntimeClass@CMapStringToPtr@@UBEPAUCRuntimeClass@@XZ 004492ea f   nafxcw:map_sp.obj
 0001:000482f0       ?CreateObject@CMiniFrameWnd@@SGPAVCObject@@XZ 004492f0 f   nafxcw:winmini.obj
 0001:00048325       ?GetRuntimeClass@CMiniFrameWnd@@UBEPAUCRuntimeClass@@XZ 00449325 f   nafxcw:winmini.obj
 0001:0004832b       ?GetRuntimeClass@CPtrArray@@UBEPAUCRuntimeClass@@XZ 0044932b f   nafxcw:array_p.obj
 0001:00048331       ?GetRuntimeClass@CFile@@UBEPAUCRuntimeClass@@XZ 00449331 f   nafxcw:filecore.obj
 0001:00048337       ?GetRuntimeClass@CFileException@@UBEPAUCRuntimeClass@@XZ 00449337 f   nafxcw:filex.obj
 0001:0004833d       ?GetRuntimeClass@CArchiveException@@UBEPAUCRuntimeClass@@XZ 0044933d f   nafxcw:arcex.obj
 0001:00048343       ?GetRuntimeClass@CPrintDialog@@UBEPAUCRuntimeClass@@XZ 00449343 f   nafxcw:dlgprnt.obj
 0001:00048349       ?GetRuntimeClass@CMemFile@@UBEPAUCRuntimeClass@@XZ 00449349 f   nafxcw:filemem.obj
 0001:0004834f       ?GetRuntimeClass@CScrollView@@UBEPAUCRuntimeClass@@XZ 0044934f f   nafxcw:viewscrl.obj
 0001:00048355       ?GetRuntimeClass@CDialogBar@@UBEPAUCRuntimeClass@@XZ 00449355 f   nafxcw:bardlg.obj
 0001:0004835b       ?GetRuntimeClass@CPreviewDC@@UBEPAUCRuntimeClass@@XZ 0044935b f   nafxcw:dcprev.obj
 0001:00048361       ?GetRuntimeClass@CFileDialog@@UBEPAUCRuntimeClass@@XZ 00449361 f   nafxcw:dlgfile.obj
 0001:00048376       ??0OLE_DATA@@QAE@XZ        00449376 f   nafxcw:oleinit.obj
 0001:000483fc       ?AfxOleInit@@YGHXZ         004493fc f   nafxcw:oleinit.obj
 0001:00048499       ?AfxOleTerm@@YGXH@Z        00449499 f   nafxcw:oleinit.obj
 0001:000484f4       ?AfxOleTermOrFreeLib@@YGXHH@Z 004494f4 f   nafxcw:oleinit.obj
 0001:00048543       ?GetRuntimeClass@CToolTipCtrl@@UBEPAUCRuntimeClass@@XZ 00449543 f   nafxcw:tooltip.obj
 0001:00048549       ?AfxWinInit@@YGHPAUHINSTANCE__@@0PADH@Z 00449549 f   nafxcw:appinit.obj
 0001:000485ac       ?SetCurrentHandles@CWinApp@@QAEXXZ 004495ac f   nafxcw:appinit.obj
 0001:000486c9       ?AfxGetFileName@@YGIPBDPADI@Z 004496c9 f   nafxcw:appinit.obj
 0001:0004871f       ??0COleMessageFilter@@QAE@XZ 0044971f f   nafxcw:olemsgf.obj
 0001:00048761       ??_GCOleMessageFilter@@UAEPAXI@Z 00449761 f i nafxcw:olemsgf.obj
 0001:00048761       ??_ECOleMessageFilter@@UAEPAXI@Z 00449761 f i nafxcw:olemsgf.obj
 0001:0004877d       ?Register@COleMessageFilter@@QAEHXZ 0044977d f   nafxcw:olemsgf.obj
 0001:0004879c       ?GetRuntimeClass@COleBusyDialog@@UBEPAUCRuntimeClass@@XZ 0044979c f   nafxcw:oledlgs2.obj
 0001:000487a2       ??0_AFX_OLE_STATE@@QAE@XZ  004497a2 f   nafxcw:oledata.obj
 0001:000487ab       ??_E_AFX_OLE_STATE@@UAEPAXI@Z 004497ab f i nafxcw:oledata.obj
 0001:000487ab       ??_G_AFX_OLE_STATE@@UAEPAXI@Z 004497ab f i nafxcw:oledata.obj
 0001:000487c6       ??1_AFX_OLE_STATE@@UAE@XZ  004497c6 f   nafxcw:oledata.obj
 0001:000487ee       ?_AfxRelease@@YGKPAPAUIUnknown@@@Z 004497ee f   nafxcw:oleunk.obj
 0001:0004880a       ?ExternalAddRef@CCmdTarget@@QAEKXZ 0044980a f   nafxcw:oleunk.obj
 0001:00048823       ?InternalRelease@CCmdTarget@@QAEKXZ 00449823 f   nafxcw:oleunk.obj
 0001:0004884d       ?ExternalRelease@CCmdTarget@@QAEKXZ 0044984d f   nafxcw:oleunk.obj
 0001:00048860       ?GetInterface@CCmdTarget@@QAEPAUIUnknown@@PBX@Z 00449860 f   nafxcw:oleunk.obj
 0001:0004890e       ?QueryAggregates@CCmdTarget@@QAEPAUIUnknown@@PBX@Z 0044990e f   nafxcw:oleunk.obj
 0001:0004896e       ?InternalQueryInterface@CCmdTarget@@QAEKPBXPAPAX@Z 0044996e f   nafxcw:oleunk.obj
 0001:000489b0       ?ExternalQueryInterface@CCmdTarget@@QAEKPBXPAPAX@Z 004499b0 f   nafxcw:oleunk.obj
 0001:000489d6       ?AfxThrowOleException@@YGXJ@Z 004499d6 f   nafxcw:olemisc.obj
 0001:00048a28       ?GetErrorMessage@COleException@@UAEHPADIPAI@Z 00449a28 f   nafxcw:olemisc.obj
 0001:00048a7e       ?AfxOleHookProc@@YGIPAUHWND__@@IIJ@Z 00449a7e f   nafxcw:oledlgs2.obj
 0001:00048ac9       ??0COleDialog@@QAE@PAVCWnd@@@Z 00449ac9 f   nafxcw:oledlgs2.obj
 0001:00048ae1       ?MapResult@COleDialog@@QAEHI@Z 00449ae1 f   nafxcw:oledlgs2.obj
 0001:00048aff       ??0COleBusyDialog@@QAE@PAUHTASK__@@HKPAVCWnd@@@Z 00449aff f   nafxcw:oledlgs2.obj
 0001:00048b53       ??_ECOleBusyDialog@@UAEPAXI@Z 00449b53 f i nafxcw:oledlgs2.obj
 0001:00048b53       ??_GCOleBusyDialog@@UAEPAXI@Z 00449b53 f i nafxcw:oledlgs2.obj
 0001:00048b6f       ??1COleBusyDialog@@UAE@XZ  00449b6f f   nafxcw:oledlgs2.obj
 0001:00048b7a       ?DoModal@COleBusyDialog@@UAEHXZ 00449b7a f   nafxcw:oledlgs2.obj
 0001:00048c0a       ??0CEnumArray@@QAE@IPBXIH@Z 00449c0a f   nafxcw:oleenum.obj
 0001:00048c49       ??_GCEnumArray@@UAEPAXI@Z  00449c49 f i nafxcw:oleenum.obj
 0001:00048c49       ??_ECEnumArray@@UAEPAXI@Z  00449c49 f i nafxcw:oleenum.obj
 0001:00048c65       ??1CEnumArray@@UAE@XZ      00449c65 f   nafxcw:oleenum.obj
 0001:00048cb3       ?OnNext@CEnumArray@@MAEHPAX@Z 00449cb3 f   nafxcw:oleenum.obj
 0001:00048ce3       ?OnSkip@CEnumArray@@MAEHXZ 00449ce3 f   nafxcw:oleenum.obj
 0001:00048cfb       ?OnReset@CEnumArray@@MAEXXZ 00449cfb f   nafxcw:oleenum.obj
 0001:00048d00       ?OnClone@CEnumArray@@MAEPAV1@XZ 00449d00 f   nafxcw:oleenum.obj
 0001:00048d46       ?AddRef@XEnumVOID@CEnumArray@@UAGKXZ 00449d46 f   nafxcw:oleenum.obj
 0001:00048d55       ?Release@XEnumVOID@CEnumArray@@UAGKXZ 00449d55 f   nafxcw:oleenum.obj
 0001:00048d64       ?QueryInterface@XEnumVOID@CEnumArray@@UAGJABU_GUID@@PAPAX@Z 00449d64 f   nafxcw:oleenum.obj
 0001:00048d7b       ?Next@XEnumVOID@CEnumArray@@UAGJKPAXPAK@Z 00449d7b f   nafxcw:oleenum.obj
 0001:00048e03       ?Skip@XEnumVOID@CEnumArray@@UAGJK@Z 00449e03 f   nafxcw:oleenum.obj
 0001:00048e61       ?Reset@XEnumVOID@CEnumArray@@UAGJXZ 00449e61 f   nafxcw:oleenum.obj
 0001:00048e73       ?Clone@XEnumVOID@CEnumArray@@UAGJPAPAUIEnumVOID@@@Z 00449e73 f   nafxcw:oleenum.obj
 0001:00048eeb       ?FlushClipboard@COleDataSource@@SGXXZ 00449eeb f   nafxcw:oledobj2.obj
 0001:00048efb       ?GetClipboardOwner@COleDataSource@@SGPAV1@XZ 00449efb f   nafxcw:oledobj2.obj
 0001:00048f36       ?CreateObject@?$CProcessLocal@V_AFX_OLE_STATE@@@@SGPAVCNoTrackObject@@XZ 00449f36 f i nafxcw:oledobj2.obj
 0001:00048f67       ?BeginBusyState@COleMessageFilter@@UAEXXZ 00449f67 f   nafxcw:olemsgf.obj
 0001:00048f6b       ?EndBusyState@COleMessageFilter@@UAEXXZ 00449f6b f   nafxcw:olemsgf.obj
 0001:00048f77       ?OnMessagePending@COleMessageFilter@@UAEHPBUtagMSG@@@Z 00449f77 f   nafxcw:olemsgf.obj
 0001:00048fbf       ?IsSignificantMessage@COleMessageFilter@@UAEHPAUtagMSG@@@Z 00449fbf f   nafxcw:olemsgf.obj
 0001:00049015       ?OnBusyDialog@COleMessageFilter@@UAEHPAUHTASK__@@@Z 0044a015 f   nafxcw:olemsgf.obj
 0001:00049090       ?OnNotRespondingDialog@COleMessageFilter@@UAEHPAUHTASK__@@@Z 0044a090 f   nafxcw:olemsgf.obj
 0001:0004910c       ?GetInterfaceMap@COleMessageFilter@@MBEPBUAFX_INTERFACEMAP@@XZ 0044a10c f   nafxcw:olemsgf.obj
 0001:00049112       ?AddRef@XMessageFilter@COleMessageFilter@@UAGKXZ 0044a112 f   nafxcw:olemsgf.obj
 0001:00049121       ?Release@XMessageFilter@COleMessageFilter@@UAGKXZ 0044a121 f   nafxcw:olemsgf.obj
 0001:00049130       ?QueryInterface@XMessageFilter@COleMessageFilter@@UAGJABU_GUID@@PAPAX@Z 0044a130 f   nafxcw:olemsgf.obj
 0001:00049147       ?HandleInComingCall@XMessageFilter@COleMessageFilter@@UAGKKPAUHTASK__@@KPAUtagINTERFACEINFO@@@Z 0044a147 f   nafxcw:olemsgf.obj
 0001:000491a9       ?RetryRejectedCall@XMessageFilter@COleMessageFilter@@UAGKPAUHTASK__@@KK@Z 0044a1a9 f   nafxcw:olemsgf.obj
 0001:000491ec       ?MessagePending@XMessageFilter@COleMessageFilter@@UAGKPAUHTASK__@@KK@Z 0044a1ec f   nafxcw:olemsgf.obj
 0001:000492c1       ??0COleDispatchDriver@@QAE@XZ 0044a2c1 f   nafxcw:oledisp2.obj
 0001:000492ce       ?AttachDispatch@COleDispatchDriver@@QAEXPAUIDispatch@@H@Z 0044a2ce f   nafxcw:oledisp2.obj
 0001:000492e7       ?ReleaseDispatch@COleDispatchDriver@@QAEXXZ 0044a2e7 f   nafxcw:oledisp2.obj
 0001:00049301       ?InvokeHelperV@COleDispatchDriver@@QAEXJGGPAXPBEPAD@Z 0044a301 f   nafxcw:oledisp2.obj
 0001:00049828       ?AllocSysString@CString@@QBEPAGXZ 0044a828 f   nafxcw:oledisp1.obj
 0001:00049871       ?GetStackSize@CCmdTarget@@KGIPBEG@Z 0044a871 f   nafxcw:oledisp1.obj
 0001:000498b4       ?PushStackArgs@CCmdTarget@@IAEJPAEPBEPAXGPAUtagDISPPARAMS@@PAIPAUtagVARIANT@@@Z 0044a8b4 f   nafxcw:oledisp1.obj
 0001:00049b33       ?CallMemberFunc@CCmdTarget@@IAEJPBUAFX_DISPMAP_ENTRY@@GPAUtagVARIANT@@PAUtagDISPPARAMS@@PAI@Z 0044ab33 f   nafxcw:oledisp1.obj
 0001:00049ddb       ??1COleDispatchException@@UAE@XZ 0044addb f   nafxcw:oledisp1.obj
 0001:00049e26       ??_GCOleDispatchException@@UAEPAXI@Z 0044ae26 f i nafxcw:oledisp1.obj
 0001:00049e26       ??_ECOleDispatchException@@UAEPAXI@Z 0044ae26 f i nafxcw:oledisp1.obj
 0001:00049e42       ?Process@COleDispatchException@@SGXPAUtagEXCEPINFO@@PBVCException@@@Z 0044ae42 f   nafxcw:oledisp1.obj
 0001:0004a07e       ??0COleDispatchException@@QAE@PBDIG@Z 0044b07e f   nafxcw:oledisp1.obj
 0001:0004a10c       ?GetErrorMessage@COleDispatchException@@UAEHPADIPAI@Z 0044b10c f   nafxcw:oledisp1.obj
 0001:0004a12e       __AfxDispatchCall@12       0044b12e f   nafxcw:olecall.obj
 0001:0004a13f       ?GetPrinterDeviceDefaults@CWinApp@@QAEHPAUtagPDA@@@Z 0044b13f f   nafxcw:appprnt.obj
 0001:0004a18e       ?UpdatePrinterSelection@CWinApp@@IAEXH@Z 0044b18e f   nafxcw:appprnt.obj
 0001:0004a397       ??1CPrintDialog@@UAE@XZ    0044b397 f i nafxcw:appprnt.obj
 0001:0004a39c       ?DoPrintDialog@CWinApp@@QAEHPAVCPrintDialog@@@Z 0044b39c f   nafxcw:appprnt.obj
 0001:0004a451       ?OnFilePrintSetup@CWinApp@@IAEXXZ 0044b451 f   nafxcw:appprnt.obj
 0001:0004a4a6       ??0CPrintPreviewState@@QAE@XZ 0044b4a6 f   nafxcw:viewprev.obj
 0001:0004a4c8       ?OnFilePrintPreview@CView@@IAEXXZ 0044b4c8 f   nafxcw:viewprev.obj
 0001:0004a513       ?DoPrintPreview@CView@@QAEHIPAV1@PAUCRuntimeClass@@PAUCPrintPreviewState@@@Z 0044b513 f   nafxcw:viewprev.obj
 0001:0004a6c7       ?_AfxPreviewCloseProc@@YGHPAVCFrameWnd@@@Z 0044b6c7 f   nafxcw:viewprev.obj
 0001:0004a6e1       ?GetMessageMap@CPreviewView@@MBEPBUAFX_MSGMAP@@XZ 0044b6e1 f   nafxcw:viewprev.obj
 0001:0004a6e7       ??0CPreviewView@@QAE@XZ    0044b6e7 f   nafxcw:viewprev.obj
 0001:0004a78a       ??_GCPreviewView@@UAEPAXI@Z 0044b78a f i nafxcw:viewprev.obj
 0001:0004a78a       ??_ECPreviewView@@UAEPAXI@Z 0044b78a f i nafxcw:viewprev.obj
 0001:0004a7a6       ??0PAGE_INFO@CPreviewView@@QAE@XZ 0044b7a6 f   nafxcw:viewprev.obj
 0001:0004a7a9       ??1CPreviewView@@UAE@XZ    0044b7a9 f   nafxcw:viewprev.obj
 0001:0004a852       ?OnCreate@CPreviewView@@IAEHPAUtagCREATESTRUCTA@@@Z 0044b852 f   nafxcw:viewprev.obj
 0001:0004a876       ?SetPrintView@CPreviewView@@QAEHPAVCView@@@Z 0044b876 f   nafxcw:viewprev.obj
 0001:0004aab9       ?OnSize@CPreviewView@@IAEXIHH@Z 0044bab9 f   nafxcw:viewprev.obj
 0001:0004ab1f       ?OnActivateView@CPreviewView@@MAEXHPAVCView@@0@Z 0044bb1f f   nafxcw:viewprev.obj
 0001:0004ab6e       ?OnPreviewClose@CPreviewView@@IAEXXZ 0044bb6e f   nafxcw:viewprev.obj
 0001:0004abb2       ?CalcScaleRatio@CPreviewView@@MAE?AVCSize@@V2@0@Z 0044bbb2 f   nafxcw:viewprev.obj
 0001:0004abe1       ?PositionPage@CPreviewView@@MAEXI@Z 0044bbe1 f   nafxcw:viewprev.obj
 0001:0004ac97       ?CalcPageDisplaySize@CPreviewView@@IAE?AVCSize@@XZ 0044bc97 f   nafxcw:viewprev.obj
 0001:0004ad1b       ?SetScaledSize@CPreviewView@@IAEXI@Z 0044bd1b f   nafxcw:viewprev.obj
 0001:0004ae5d       ?OnPrepareDC@CPreviewView@@UAEXPAVCDC@@PAUCPrintInfo@@@Z 0044be5d f   nafxcw:viewprev.obj
 0001:0004ae91       ?OnEraseBkgnd@CPreviewView@@IAEHPAVCDC@@@Z 0044be91 f   nafxcw:viewprev.obj
 0001:0004af21       ?OnDraw@CPreviewView@@MAEXPAVCDC@@@Z 0044bf21 f   nafxcw:viewprev.obj
 0001:0004b304       ?OnHScroll@CPreviewView@@IAEXIIPAVCScrollBar@@@Z 0044c304 f   nafxcw:viewprev.obj
 0001:0004b321       ?OnVScroll@CPreviewView@@IAEXIIPAVCScrollBar@@@Z 0044c321 f   nafxcw:viewprev.obj
 0001:0004b40c       ?OnNumPageChange@CPreviewView@@IAEXXZ 0044c40c f   nafxcw:viewprev.obj
 0001:0004b44b       ?OnNextPage@CPreviewView@@IAEXXZ 0044c44b f   nafxcw:viewprev.obj
 0001:0004b45b       ?OnPrevPage@CPreviewView@@IAEXXZ 0044c45b f   nafxcw:viewprev.obj
 0001:0004b46b       ?OnPreviewPrint@CPreviewView@@IAEXXZ 0044c46b f   nafxcw:viewprev.obj
 0001:0004b48e       ?FindPageRect@CPreviewView@@IAEHAAVCPoint@@AAI@Z 0044c48e f   nafxcw:viewprev.obj
 0001:0004b558       ?OnLButtonDown@CPreviewView@@IAEXIVCPoint@@@Z 0044c558 f   nafxcw:viewprev.obj
 0001:0004b596       ?SetZoomState@CPreviewView@@IAEXIIVCPoint@@@Z 0044c596 f   nafxcw:viewprev.obj
 0001:0004b5ba       ?OnZoomIn@CPreviewView@@IAEXXZ 0044c5ba f   nafxcw:viewprev.obj
 0001:0004b5d6       ?OnZoomOut@CPreviewView@@IAEXXZ 0044c5d6 f   nafxcw:viewprev.obj
 0001:0004b5f1       ?DoZoom@CPreviewView@@IAEXIVCPoint@@@Z 0044c5f1 f   nafxcw:viewprev.obj
 0001:0004b760       ?SetCurrentPage@CPreviewView@@IAEXIH@Z 0044c760 f   nafxcw:viewprev.obj
 0001:0004b7f2       ?OnDisplayPageNumber@CPreviewView@@MAEXII@Z 0044c7f2 f   nafxcw:viewprev.obj
 0001:0004b8ab       ?OnUpdateNumPageChange@CPreviewView@@IAEXPAVCCmdUI@@@Z 0044c8ab f   nafxcw:viewprev.obj
 0001:0004b94f       ?OnUpdateNextPage@CPreviewView@@IAEXPAVCCmdUI@@@Z 0044c94f f   nafxcw:viewprev.obj
 0001:0004b986       ?OnUpdatePrevPage@CPreviewView@@IAEXPAVCCmdUI@@@Z 0044c986 f   nafxcw:viewprev.obj
 0001:0004b9af       ?OnUpdateZoomIn@CPreviewView@@IAEXPAVCCmdUI@@@Z 0044c9af f   nafxcw:viewprev.obj
 0001:0004b9cb       ?OnUpdateZoomOut@CPreviewView@@IAEXPAVCCmdUI@@@Z 0044c9cb f   nafxcw:viewprev.obj
 0001:0004b9e6       ?OnSetCursor@CPreviewView@@IAEHPAVCWnd@@II@Z 0044c9e6 f   nafxcw:viewprev.obj
 0001:0004ba6e       ?_AfxAbortProc@@YGHPAUHDC__@@H@Z 0044ca6e f   nafxcw:viewprnt.obj
 0001:0004bac0       ?OnInitDialog@CPrintingDialog@@UAEHXZ 0044cac0 f   nafxcw:viewprnt.obj
 0001:0004bae4       ?OnCancel@CPrintingDialog@@UAEXXZ 0044cae4 f   nafxcw:viewprnt.obj
 0001:0004bb06       ?DoPreparePrinting@CView@@QAEHPAUCPrintInfo@@@Z 0044cb06 f   nafxcw:viewprnt.obj
 0001:0004bbf2       ?OnFilePrint@CView@@IAEXXZ 0044cbf2 f   nafxcw:viewprnt.obj
 0001:0004c261       ??0CPrintingDialog@@QAE@PAVCWnd@@@Z 0044d261 f i nafxcw:viewprnt.obj
 0001:0004c2b4       ??1CPrintingDialog@@UAE@XZ 0044d2b4 f i nafxcw:viewprnt.obj
 0001:0004c2bf       ??_GCPrintingDialog@@UAEPAXI@Z 0044d2bf f i nafxcw:viewprnt.obj
 0001:0004c2bf       ??_ECPrintingDialog@@UAEPAXI@Z 0044d2bf f i nafxcw:viewprnt.obj
 0001:0004c2db       ??1CFileDialog@@UAE@XZ     0044d2db f i nafxcw:viewprnt.obj
 0001:0004c313       ??0CPrintInfo@@QAE@XZ      0044d313 f   nafxcw:viewprnt.obj
 0001:0004c39b       ??1CPrintInfo@@QAE@XZ      0044d39b f   nafxcw:viewprnt.obj
 0001:0004c3f6       ?_AfxMultMultDivDiv@@YGJHHHHH@Z 0044d3f6 f   nafxcw:dcprev.obj
 0001:0004c555       ??0CPreviewDC@@QAE@XZ      0044d555 f   nafxcw:dcprev.obj
 0001:0004c581       ??_ECPreviewDC@@UAEPAXI@Z  0044d581 f i nafxcw:dcprev.obj
 0001:0004c581       ??_GCPreviewDC@@UAEPAXI@Z  0044d581 f i nafxcw:dcprev.obj
 0001:0004c59d       ?SetOutputDC@CPreviewDC@@UAEXPAUHDC__@@@Z 0044d59d f   nafxcw:dcprev.obj
 0001:0004c5ec       ?ReleaseOutputDC@CPreviewDC@@UAEXXZ 0044d5ec f   nafxcw:dcprev.obj
 0001:0004c604       ?SetAttribDC@CPreviewDC@@UAEXPAUHDC__@@@Z 0044d604 f   nafxcw:dcprev.obj
 0001:0004c62b       ??1CPreviewDC@@UAE@XZ      0044d62b f   nafxcw:dcprev.obj
 0001:0004c667       ?SetScaleRatio@CPreviewDC@@QAEXHH@Z 0044d667 f   nafxcw:dcprev.obj
 0001:0004c690       ?SaveDC@CPreviewDC@@UAEHXZ 0044d690 f   nafxcw:dcprev.obj
 0001:0004c6df       ?RestoreDC@CPreviewDC@@UAEHH@Z 0044d6df f   nafxcw:dcprev.obj
 0001:0004c724       ?MirrorAttributes@CPreviewDC@@IAEXXZ 0044d724 f   nafxcw:dcprev.obj
 0001:0004c7fe       ?SelectStockObject@CPreviewDC@@UAEPAVCGdiObject@@H@Z 0044d7fe f   nafxcw:dcprev.obj
 0001:0004c86e       ?MirrorFont@CPreviewDC@@IAEXXZ 0044d86e f   nafxcw:dcprev.obj
 0001:0004c9f3       ?SelectObject@CPreviewDC@@UAEPAVCFont@@PAV2@@Z 0044d9f3 f   nafxcw:dcprev.obj
 0001:0004ca32       ?SetBkColor@CPreviewDC@@UAEKK@Z 0044da32 f   nafxcw:dcprev.obj
 0001:0004ca63       ?SetTextColor@CPreviewDC@@UAEKK@Z 0044da63 f   nafxcw:dcprev.obj
 0001:0004ca94       ?SetMapMode@CPreviewDC@@UAEHH@Z 0044da94 f   nafxcw:dcprev.obj
 0001:0004cab7       ?SetViewportOrg@CPreviewDC@@UAE?AVCPoint@@HH@Z 0044dab7 f   nafxcw:dcprev.obj
 0001:0004caec       ?OffsetViewportOrg@CPreviewDC@@UAE?AVCPoint@@HH@Z 0044daec f   nafxcw:dcprev.obj
 0001:0004cb21       ?SetViewportExt@CPreviewDC@@UAE?AVCSize@@HH@Z 0044db21 f   nafxcw:dcprev.obj
 0001:0004cb58       ?ScaleViewportExt@CPreviewDC@@UAE?AVCSize@@HHHH@Z 0044db58 f   nafxcw:dcprev.obj
 0001:0004cb95       ?SetWindowExt@CPreviewDC@@UAE?AVCSize@@HH@Z 0044db95 f   nafxcw:dcprev.obj
 0001:0004cbcc       ?ScaleWindowExt@CPreviewDC@@UAE?AVCSize@@HHHH@Z 0044dbcc f   nafxcw:dcprev.obj
 0001:0004cc09       ?_AfxComputeNextTab@@YGHHIPAHHH@Z 0044dc09 f   nafxcw:dcprev.obj
 0001:0004cc3d       ?ComputeDeltas@CPreviewDC@@IAE?AVCSize@@AAHPBDAAIHIPAHHPAD30@Z 0044dc3d f   nafxcw:dcprev.obj
 0001:0004ceab       ?TextOutA@CPreviewDC@@UAEHHHPBDH@Z 0044deab f   nafxcw:dcprev.obj
 0001:0004cec8       ?ExtTextOutA@CPreviewDC@@UAEHHHIPBUtagRECT@@PBDIPAH@Z 0044dec8 f   nafxcw:dcprev.obj
 0001:0004cfd3       ?TabbedTextOutA@CPreviewDC@@UAE?AVCSize@@HHPBDHHPAHH@Z 0044dfd3 f   nafxcw:dcprev.obj
 0001:0004d0ed       ?DrawTextA@CPreviewDC@@UAEHPBDHPAUtagRECT@@I@Z 0044e0ed f   nafxcw:dcprev.obj
 0001:0004d133       ?GrayStringA@CPreviewDC@@UAEHPAVCBrush@@P6GHPAUHDC__@@JH@ZJHHHHH@Z 0044e133 f   nafxcw:dcprev.obj
 0001:0004d14b       ?Escape@CPreviewDC@@UAEHHHPBDPAX@Z 0044e14b f   nafxcw:dcprev.obj
 0001:0004d1d9       ?MirrorMappingMode@CPreviewDC@@IAEXH@Z 0044e1d9 f   nafxcw:dcprev.obj
 0001:0004d2de       ?MirrorViewportOrg@CPreviewDC@@IAEXXZ 0044e2de f   nafxcw:dcprev.obj
 0001:0004d348       ?SetTopLeftOffset@CPreviewDC@@QAEXVCSize@@@Z 0044e348 f   nafxcw:dcprev.obj
 0001:0004d35e       ?ClipToPage@CPreviewDC@@QAEXXZ 0044e35e f   nafxcw:dcprev.obj
 0001:0004d3e0       ?PrinterDPtoScreenDP@CPreviewDC@@QBEXPAUtagPOINT@@@Z 0044e3e0 f   nafxcw:dcprev.obj
 0001:0004d439       ??1CWinThread@@UAE@XZ      0044e439 f   nafxcw:thrdcore.obj
 0001:0004d488       ??1_AFX_WIN_STATE@@UAE@XZ  0044e488 f   nafxcw:appcore.obj
 0001:0004d4b5       ?AfxPostQuitMessage@@YGXH@Z 0044e4b5 f   nafxcw:appcore.obj
 0001:0004d4d8       ??1AUX_DATA@@QAE@XZ        0044e4d8 f   nafxcw:auxdata.obj
 0001:0004d4e2       ??1CDocManager@@UAE@XZ     0044e4e2 f   nafxcw:docmgr.obj
 0001:0004d54d       ??1COleMessageFilter@@UAE@XZ 0044e54d f   nafxcw:olemsgf.obj
 0001:0004d585       ?Revoke@COleMessageFilter@@QAEXXZ 0044e585 f   nafxcw:olemsgf.obj
 0001:0004d59e       ?Revoke@COleObjectFactory@@QAEXXZ 0044e59e f   nafxcw:olefact.obj
 0001:0004d5bf       ?RevokeAll@COleObjectFactory@@SGXXZ 0044e5bf f   nafxcw:olefact.obj
 0001:0004d5ea       ?AfxWinTerm@@YGXXZ         0044e5ea f   nafxcw:appterm.obj
 0002:00000000       ?_C@?1??_Nullstr@?$basic_string@DU?$char_traits@D@std@@V?$allocator@D@2@@std@@CAPBDXZ@4DB 00452000     Data.obj
 0002:00000004       ?npos@?$basic_string@DU?$char_traits@D@std@@V?$allocator@D@2@@std@@2IB 00452004     Data.obj
 0002:00000008       ?messageMap@CDlgIspitiIstiDan@@1UAFX_MSGMAP@@B 00452008     DlgIspitiIstiDan.obj
 0002:00000010       ?_messageEntries@CDlgIspitiIstiDan@@0QBUAFX_MSGMAP_ENTRY@@B 00452010     DlgIspitiIstiDan.obj
 0002:00000028       ??_7CDlgIspitiIstiDan@@6B@ 00452028     DlgIspitiIstiDan.obj
 0002:000000f8       ?messageMap@CDlgOptim@@1UAFX_MSGMAP@@B 004520f8     DlgOptim.obj
 0002:00000100       ?_messageEntries@CDlgOptim@@0QBUAFX_MSGMAP_ENTRY@@B 00452100     DlgOptim.obj
 0002:00000178       ?eventsinkMap@CDlgOptim@@1UAFX_EVENTSINKMAP@@B 00452178     DlgOptim.obj
 0002:00000188       ?_eventsinkEntries@CDlgOptim@@0QBUAFX_EVENTSINKMAP_ENTRY@@B 00452188     DlgOptim.obj
 0002:00000200       ??_7CDlgOptim@@6B@         00452200     DlgOptim.obj
 0002:000002d0       ??_7CScrollbar@@6B@        004522d0     DlgOptim.obj
 0002:00000388       ?clsid@?1??GetClsid@CScrollbar@@QAEABU_GUID@@XZ@4U3@B 00452388     DlgOptim.obj
 0002:00000398       __real@8@4005c800000000000000 00452398     DlgOptim.obj
 0002:000003a0       ?messageMap@CDlgParametriRoka@@1UAFX_MSGMAP@@B 004523a0     DlgParametriRoka.obj
 0002:000003a8       ?_messageEntries@CDlgParametriRoka@@0QBUAFX_MSGMAP_ENTRY@@B 004523a8     DlgParametriRoka.obj
 0002:00000468       ??_7CDlgParametriRoka@@6B@ 00452468     DlgParametriRoka.obj
 0002:00000538       ?messageMap@CDlgParamOptimizacije@@1UAFX_MSGMAP@@B 00452538     DlgParamOptimizacije.obj
 0002:00000540       ?_messageEntries@CDlgParamOptimizacije@@0QBUAFX_MSGMAP_ENTRY@@B 00452540     DlgParamOptimizacije.obj
 0002:00000558       ??_7CDlgParamOptimizacije@@6B@ 00452558     DlgParamOptimizacije.obj
 0002:00000628       ?messageMap@CDlgPopisIspita@@1UAFX_MSGMAP@@B 00452628     DlgPopisIspita.obj
 0002:00000630       ?_messageEntries@CDlgPopisIspita@@0QBUAFX_MSGMAP_ENTRY@@B 00452630     DlgPopisIspita.obj
 0002:00000678       ??_7CDlgPopisIspita@@6B@   00452678     DlgPopisIspita.obj
 0002:00000748       ??_7CMSFlexGrid@@6B@       00452748     DlgPopisIspita.obj
 0002:00000800       ?clsid@?1??GetClsid@CMSFlexGrid@@QAEABU_GUID@@XZ@4U3@B 00452800     DlgPopisIspita.obj
 0002:00000810       ?messageMap@CDlgPregledZelja@@1UAFX_MSGMAP@@B 00452810     DlgPregledZelja.obj
 0002:00000818       ?_messageEntries@CDlgPregledZelja@@0QBUAFX_MSGMAP_ENTRY@@B 00452818     DlgPregledZelja.obj
 0002:00000830       ??_7CDlgPregledZelja@@6B@  00452830     DlgPregledZelja.obj
 0002:00000900       ?messageMap@CDlgVizualniPrikaz@@1UAFX_MSGMAP@@B 00452900     DlgVizualniPrikaz.obj
 0002:00000908       ?_messageEntries@CDlgVizualniPrikaz@@0QBUAFX_MSGMAP_ENTRY@@B 00452908     DlgVizualniPrikaz.obj
 0002:000009c8       ?eventsinkMap@CDlgVizualniPrikaz@@1UAFX_EVENTSINKMAP@@B 004529c8     DlgVizualniPrikaz.obj
 0002:000009d8       ?_eventsinkEntries@CDlgVizualniPrikaz@@0QBUAFX_EVENTSINKMAP_ENTRY@@B 004529d8     DlgVizualniPrikaz.obj
 0002:00000a28       ??_7CDlgVizualniPrikaz@@6B@ 00452a28     DlgVizualniPrikaz.obj
 0002:00000af8       ?classCMainFrame@CMainFrame@@2UCRuntimeClass@@B 00452af8     MainFrm.obj
 0002:00000b10       ?messageMap@CMainFrame@@1UAFX_MSGMAP@@B 00452b10     MainFrm.obj
 0002:00000b18       ?_messageEntries@CMainFrame@@0QBUAFX_MSGMAP_ENTRY@@B 00452b18     MainFrm.obj
 0002:00000b60       ??_7CMainFrame@@6B@        00452b60     MainFrm.obj
 0002:00000c58       ?classCMSFlexGrid@CMSFlexGrid@@2UCRuntimeClass@@B 00452c58     msflexgrid.obj
 0002:00000c70       __real@8@3fff8000000000000000 00452c70     Optimization.obj
 0002:00000c78       __real@8@00000000000000000000 00452c78     Optimization.obj
 0002:00000c80       ?classCOptRokDoc@COptRokDoc@@2UCRuntimeClass@@B 00452c80     OptRokDoc.obj
 0002:00000c98       ?messageMap@COptRokDoc@@1UAFX_MSGMAP@@B 00452c98     OptRokDoc.obj
 0002:00000ca0       ?_messageEntries@COptRokDoc@@0QBUAFX_MSGMAP_ENTRY@@B 00452ca0     OptRokDoc.obj
 0002:00000da8       ??_7COptRokDoc@@6B@        00452da8     OptRokDoc.obj
 0002:00000e58       ?messageMap@COptRokApp@@1UAFX_MSGMAP@@B 00452e58     OptRokova.obj
 0002:00000e60       ?_messageEntries@COptRokApp@@0QBUAFX_MSGMAP_ENTRY@@B 00452e60     OptRokova.obj
 0002:00000ed8       ?messageMap@CAboutDlg@@1UAFX_MSGMAP@@B 00452ed8     OptRokova.obj
 0002:00000ee0       ?_messageEntries@CAboutDlg@@0QBUAFX_MSGMAP_ENTRY@@B 00452ee0     OptRokova.obj
 0002:00000ef8       ??_7COptRokApp@@6B@        00452ef8     OptRokova.obj
 0002:00000f94       ??_7CAboutDlg@@6B@         00452f94     OptRokova.obj
 0002:00001068       ?classCOptRokView@COptRokView@@2UCRuntimeClass@@B 00453068     OptRokView.obj
 0002:00001080       ?messageMap@COptRokView@@1UAFX_MSGMAP@@B 00453080     OptRokView.obj
 0002:00001088       ?_messageEntries@COptRokView@@0QBUAFX_MSGMAP_ENTRY@@B 00453088     OptRokView.obj
 0002:000010e8       ??_7COptRokView@@6B@       004530e8     OptRokView.obj
 0002:000011f0       ?classCScrollbar@CScrollbar@@2UCRuntimeClass@@B 004531f0     scrollbar.obj
 0002:00001208       ?classCDialog@CDialog@@2UCRuntimeClass@@B 00453208     nafxcw:dlgcore.obj
 0002:00001220       ??_C@_07IJJI@CDialog?$AA@  00453220     nafxcw:dlgcore.obj
 0002:00001228       ?messageMap@CDialog@@1UAFX_MSGMAP@@B 00453228     nafxcw:dlgcore.obj
 0002:00001230       ?_messageEntries@CDialog@@0QBUAFX_MSGMAP_ENTRY@@B 00453230     nafxcw:dlgcore.obj
 0002:00001308       ??_C@_04EDLP@Edit?$AA@     00453308     nafxcw:dlgcore.obj
 0002:00001314       ??_7CDialog@@6B@           00453314     nafxcw:dlgcore.obj
 0002:000013e4       ??_C@_04JCAN@Helv?$AA@     004533e4     nafxcw:dlgcore.obj
 0002:000013ec       ??_C@_0O@JHLN@MS?5Sans?5Serif?$AA@ 004533ec     nafxcw:dlgcore.obj
 0002:000013fc       ??_C@_0N@KBJM@MS?5Shell?5Dlg?$AA@ 004533fc     nafxcw:dlgcore.obj
 0002:00001410       ?classCListBox@CListBox@@2UCRuntimeClass@@B 00453410     nafxcw:winctrl1.obj
 0002:00001428       ??_C@_08NBK@CListBox?$AA@  00453428     nafxcw:winctrl1.obj
 0002:00001438       ?classCButton@CButton@@2UCRuntimeClass@@B 00453438     nafxcw:winctrl1.obj
 0002:00001450       ??_C@_07NNHJ@CButton?$AA@  00453450     nafxcw:winctrl1.obj
 0002:0000145c       ??_7CButton@@6B@           0045345c     nafxcw:winctrl1.obj
 0002:0000151c       ??_7CListBox@@6B@          0045351c     nafxcw:winctrl1.obj
 0002:000015f0       ?classCTempWnd@CTempWnd@@2UCRuntimeClass@@B 004535f0     nafxcw:wincore.obj
 0002:00001608       ??_C@_08EHJM@CTempWnd?$AA@ 00453608     nafxcw:wincore.obj
 0002:00001618       ?classCWnd@CWnd@@2UCRuntimeClass@@B 00453618     nafxcw:wincore.obj
 0002:00001630       ??_C@_04MBPC@CWnd?$AA@     00453630     nafxcw:wincore.obj
 0002:00001638       ?messageMap@CWnd@@1UAFX_MSGMAP@@B 00453638     nafxcw:wincore.obj
 0002:00001640       ?_messageEntries@CWnd@@0QBUAFX_MSGMAP_ENTRY@@B 00453640     nafxcw:wincore.obj
 0002:000018e0       ?_afxOldWndProc@@3QBDB     004538e0     nafxcw:wincore.obj
 0002:000018f4       ?_afxWnd@@3QBDB            004538f4     nafxcw:wincore.obj
 0002:00001900       ?_afxWndControlBar@@3QBDB  00453900     nafxcw:wincore.obj
 0002:00001914       ?_afxWndMDIFrame@@3QBDB    00453914     nafxcw:wincore.obj
 0002:00001924       ?_afxWndFrameOrView@@3QBDB 00453924     nafxcw:wincore.obj
 0002:00001938       ?_afxWndOleControl@@3QBDB  00453938     nafxcw:wincore.obj
 0002:0000194c       ??_C@_0BA@LJCP@GetMonitorInfoA?$AA@ 0045394c     nafxcw:wincore.obj
 0002:0000195c       ??_C@_0BE@KPOG@EnumDisplayMonitors?$AA@ 0045395c     nafxcw:wincore.obj
 0002:00001970       ??_C@_0BB@GJCM@MonitorFromPoint?$AA@ 00453970     nafxcw:wincore.obj
 0002:00001984       ??_C@_0BA@GOHF@MonitorFromRect?$AA@ 00453984     nafxcw:wincore.obj
 0002:00001994       ??_C@_0BC@COEH@MonitorFromWindow?$AA@ 00453994     nafxcw:wincore.obj
 0002:000019a8       ??_C@_0BB@NDAA@GetSystemMetrics?$AA@ 004539a8     nafxcw:wincore.obj
 0002:000019bc       ??_C@_06NEIN@USER32?$AA@   004539bc     nafxcw:wincore.obj
 0002:000019c4       ??_C@_07LGIJ@DISPLAY?$AA@  004539c4     nafxcw:wincore.obj
 0002:000019cc       ??_C@_0BF@CBLB@commctrl_DragListMsg?$AA@ 004539cc     nafxcw:wincore.obj
 0002:000019e8       ??_7CWnd@@6B@              004539e8     nafxcw:wincore.obj
 0002:00001aa0       ??_C@_03HEJE@ime?$AA@      00453aa0     nafxcw:wincore.obj
 0002:00001aa4       ??_C@_0BD@JBOB@Afx?3?$CFx?3?$CFx?3?$CFx?3?$CFx?3?$CFx?$AA@ 00453aa4     nafxcw:wincore.obj
 0002:00001ab8       ??_C@_09NEO@Afx?3?$CFx?3?$CFx?$AA@ 00453ab8     nafxcw:wincore.obj
 0002:00001ac8       ??_7CTestCmdUI@@6B@        00453ac8     nafxcw:wincore.obj
 0002:00001ad8       ??_C@_0BF@CELH@InitCommonControlsEx?$AA@ 00453ad8     nafxcw:wincore.obj
 0002:00001af0       ??_C@_0N@BMKC@COMCTL32?4DLL?$AA@ 00453af0     nafxcw:wincore.obj
 0002:00001b04       ??_7CTempWnd@@6B@          00453b04     nafxcw:wincore.obj
 0002:00001bc0       ??_7_AFX_CTL3D_STATE@@6B@  00453bc0     nafxcw:wincore.obj
 0002:00001bc8       ?classCCmdTarget@CCmdTarget@@2UCRuntimeClass@@B 00453bc8     nafxcw:cmdtarg.obj
 0002:00001be0       ??_C@_0L@MION@CCmdTarget?$AA@ 00453be0     nafxcw:cmdtarg.obj
 0002:00001bec       ?_afxDot@@3QBEB            00453bec     nafxcw:cmdtarg.obj
 0002:00001bf8       ?messageMap@CCmdTarget@@1UAFX_MSGMAP@@B 00453bf8     nafxcw:cmdtarg.obj
 0002:00001c00       ?_messageEntries@CCmdTarget@@0QBUAFX_MSGMAP_ENTRY@@B 00453c00     nafxcw:cmdtarg.obj
 0002:00001c18       ?dispatchMap@CCmdTarget@@1UAFX_DISPMAP@@B 00453c18     nafxcw:cmdtarg.obj
 0002:00001c28       ?_dispatchEntries@CCmdTarget@@0QBUAFX_DISPMAP_ENTRY@@B 00453c28     nafxcw:cmdtarg.obj
 0002:00001c48       ?eventsinkMap@CCmdTarget@@1UAFX_EVENTSINKMAP@@B 00453c48     nafxcw:cmdtarg.obj
 0002:00001c58       ?_eventsinkEntries@CCmdTarget@@0QBUAFX_EVENTSINKMAP_ENTRY@@B 00453c58     nafxcw:cmdtarg.obj
 0002:00001c80       ?interfaceMap@CCmdTarget@@1UAFX_INTERFACEMAP@@B 00453c80     nafxcw:cmdtarg.obj
 0002:00001c88       ?_interfaceEntries@CCmdTarget@@0QBUAFX_INTERFACEMAP_ENTRY@@B 00453c88     nafxcw:cmdtarg.obj
 0002:00001c98       ?connectionMap@CCmdTarget@@1UAFX_CONNECTIONMAP@@B 00453c98     nafxcw:cmdtarg.obj
 0002:00001ca0       ?_connectionEntries@CCmdTarget@@0QBUAFX_CONNECTIONMAP_ENTRY@@B 00453ca0     nafxcw:cmdtarg.obj
 0002:00001ca8       ?commandMap@CCmdTarget@@1UAFX_OLECMDMAP@@B 00453ca8     nafxcw:cmdtarg.obj
 0002:00001cb0       ?_commandEntries@CCmdTarget@@0QBUAFX_OLECMDMAP_ENTRY@@B 00453cb0     nafxcw:cmdtarg.obj
 0002:00001cc0       ??_7CCmdUI@@6B@            00453cc0     nafxcw:cmdtarg.obj
 0002:00001cd0       ??_C@_03JFOM@?$CFld?$AA@   00453cd0     nafxcw:dlgdata.obj
 0002:00001cd8       ?classCProgressCtrl@CProgressCtrl@@2UCRuntimeClass@@B 00453cd8     nafxcw:winctrl2.obj
 0002:00001cf0       ??_C@_0O@ECFI@CProgressCtrl?$AA@ 00453cf0     nafxcw:winctrl2.obj
 0002:00001d04       ??_7CGdiObject@@6B@        00453d04     nafxcw:winctrl2.obj
 0002:00001d14       ??_7CRgn@@6B@              00453d14     nafxcw:winctrl2.obj
 0002:00001d20       ??_C@_0BA@PLIN@ToolbarWindow32?$AA@ 00453d20     nafxcw:winctrl2.obj
 0002:00001d30       ??_C@_0BD@BJDK@msctls_statusbar32?$AA@ 00453d30     nafxcw:winctrl2.obj
 0002:00001d48       ??_7CProgressCtrl@@6B@     00453d48     nafxcw:winctrl2.obj
 0002:00001e00       ?interfaceMap@CEnumUnknown@@1UAFX_INTERFACEMAP@@B 00453e00     nafxcw:occcont.obj
 0002:00001e08       ?_interfaceEntries@CEnumUnknown@@0QBUAFX_INTERFACEMAP_ENTRY@@B 00453e08     nafxcw:occcont.obj
 0002:00001e18       ?dispatchMap@COleControlContainer@@1UAFX_DISPMAP@@B 00453e18     nafxcw:occcont.obj
 0002:00001e28       ?_dispatchEntries@COleControlContainer@@0QBUAFX_DISPMAP_ENTRY@@B 00453e28     nafxcw:occcont.obj
 0002:00001e48       ?interfaceMap@COleControlContainer@@1UAFX_INTERFACEMAP@@B 00453e48     nafxcw:occcont.obj
 0002:00001e50       ?_interfaceEntries@COleControlContainer@@0QBUAFX_INTERFACEMAP_ENTRY@@B 00453e50     nafxcw:occcont.obj
 0002:00001e6c       ??_7COleControlContainer@@6B@ 00453e6c     nafxcw:occcont.obj
 0002:00001f00       ??_7XOleContainer@COleControlContainer@@6B@ 00453f00     nafxcw:occcont.obj
 0002:00001f1c       ??_7XOleIPFrame@COleControlContainer@@6B@ 00453f1c     nafxcw:occcont.obj
 0002:00001f5c       ??_7CFont@@6B@             00453f5c     nafxcw:occcont.obj
 0002:00001f6c       ??_7CEnumUnknown@@6B@      00453f6c     nafxcw:occcont.obj
 0002:00001fd0       ?classCTempGdiObject@CTempGdiObject@@2UCRuntimeClass@@B 00453fd0     nafxcw:wingdi.obj
 0002:00001fe8       ??_C@_0P@LOPC@CTempGdiObject?$AA@ 00453fe8     nafxcw:wingdi.obj
 0002:00001ff8       ?classCTempDC@CTempDC@@2UCRuntimeClass@@B 00453ff8     nafxcw:wingdi.obj
 0002:00002010       ??_C@_07LHDN@CTempDC?$AA@  00454010     nafxcw:wingdi.obj
 0002:00002018       ?classCRgn@CRgn@@2UCRuntimeClass@@B 00454018     nafxcw:wingdi.obj
 0002:00002030       ??_C@_04HJNG@CRgn?$AA@     00454030     nafxcw:wingdi.obj
 0002:00002038       ?classCFont@CFont@@2UCRuntimeClass@@B 00454038     nafxcw:wingdi.obj
 0002:00002050       ??_C@_05MCKJ@CFont?$AA@    00454050     nafxcw:wingdi.obj
 0002:00002058       ?classCBrush@CBrush@@2UCRuntimeClass@@B 00454058     nafxcw:wingdi.obj
 0002:00002070       ??_C@_06PNF@CBrush?$AA@    00454070     nafxcw:wingdi.obj
 0002:00002078       ?classCPen@CPen@@2UCRuntimeClass@@B 00454078     nafxcw:wingdi.obj
 0002:00002090       ??_C@_04PAKO@CPen?$AA@     00454090     nafxcw:wingdi.obj
 0002:00002098       ?classCGdiObject@CGdiObject@@2UCRuntimeClass@@B 00454098     nafxcw:wingdi.obj
 0002:000020b0       ??_C@_0L@CNBG@CGdiObject?$AA@ 004540b0     nafxcw:wingdi.obj
 0002:000020c0       ?classCPaintDC@CPaintDC@@2UCRuntimeClass@@B 004540c0     nafxcw:wingdi.obj
 0002:000020d8       ??_C@_08HFDK@CPaintDC?$AA@ 004540d8     nafxcw:wingdi.obj
 0002:000020e8       ?classCWindowDC@CWindowDC@@2UCRuntimeClass@@B 004540e8     nafxcw:wingdi.obj
 0002:00002100       ??_C@_09NFPO@CWindowDC?$AA@ 00454100     nafxcw:wingdi.obj
 0002:00002110       ?classCClientDC@CClientDC@@2UCRuntimeClass@@B 00454110     nafxcw:wingdi.obj
 0002:00002128       ??_C@_09HIEC@CClientDC?$AA@ 00454128     nafxcw:wingdi.obj
 0002:00002138       ?classCDC@CDC@@2UCRuntimeClass@@B 00454138     nafxcw:wingdi.obj
 0002:00002150       ??_C@_03NJOH@CDC?$AA@      00454150     nafxcw:wingdi.obj
 0002:00002158       ?classCUserException@CUserException@@2UCRuntimeClass@@B 00454158     nafxcw:wingdi.obj
 0002:00002170       ??_C@_0P@BHHD@CUserException?$AA@ 00454170     nafxcw:wingdi.obj
 0002:00002180       ?classCResourceException@CResourceException@@2UCRuntimeClass@@B 00454180     nafxcw:wingdi.obj
 0002:00002198       ??_C@_0BD@GMHI@CResourceException?$AA@ 00454198     nafxcw:wingdi.obj
 0002:000021b0       ??_7CDC@@6B@               004541b0     nafxcw:wingdi.obj
 0002:00002224       ??_C@_09EBEO@GetLayout?$AA@ 00454224     nafxcw:wingdi.obj
 0002:00002230       ??_C@_09JDFO@GDI32?4DLL?$AA@ 00454230     nafxcw:wingdi.obj
 0002:0000223c       ??_C@_09GMOM@SetLayout?$AA@ 0045423c     nafxcw:wingdi.obj
 0002:0000224c       ??_7CClientDC@@6B@         0045424c     nafxcw:wingdi.obj
 0002:000022c4       ??_7CWindowDC@@6B@         004542c4     nafxcw:wingdi.obj
 0002:0000233c       ??_7CPaintDC@@6B@          0045433c     nafxcw:wingdi.obj
 0002:000023b4       ??_7CPen@@6B@              004543b4     nafxcw:wingdi.obj
 0002:000023c4       ??_7CBrush@@6B@            004543c4     nafxcw:wingdi.obj
 0002:000023d4       ??_7CTempDC@@6B@           004543d4     nafxcw:wingdi.obj
 0002:0000244c       ??_7CTempGdiObject@@6B@    0045444c     nafxcw:wingdi.obj
 0002:0000245c       ??_7CResourceException@@6B@ 0045445c     nafxcw:wingdi.obj
 0002:00002474       ??_7CUserException@@6B@    00454474     nafxcw:wingdi.obj
 0002:00002488       ??_C@_01PCFE@?2?$AA@       00454488     nafxcw:appui2.obj
 0002:0000248c       ??_C@_09DAOK@Software?2?$AA@ 0045448c     nafxcw:appui2.obj
 0002:0000249c       ??_7_AFX_THREAD_STATE@@6B@ 0045449c     nafxcw:afxstate.obj
 0002:000024a4       ??_7AFX_MODULE_STATE@@6B@  004544a4     nafxcw:afxstate.obj
 0002:000024ac       ??_7AFX_MODULE_THREAD_STATE@@6B@ 004544ac     nafxcw:afxstate.obj
 0002:000024b4       ??_7_AFX_BASE_MODULE_STATE@@6B@ 004544b4     nafxcw:afxstate.obj
 0002:000024b8       ?classCWinThread@CWinThread@@2UCRuntimeClass@@B 004544b8     nafxcw:thrdcore.obj
 0002:000024d0       ??_C@_0L@BKIL@CWinThread?$AA@ 004544d0     nafxcw:thrdcore.obj
 0002:000024e0       ??_7CWinThread@@6B@        004544e0     nafxcw:thrdcore.obj
 0002:00002560       ??_7_AFX_CTL3D_THREAD@@6B@ 00454560     nafxcw:thrdcore.obj
 0002:00002568       ?classCMonthCalCtrl@CMonthCalCtrl@@2UCRuntimeClass@@B 00454568     nafxcw:winctrl5.obj
 0002:00002580       ??_C@_0O@MIA@CMonthCalCtrl?$AA@ 00454580     nafxcw:winctrl5.obj
 0002:00002594       ??_7CMonthCalCtrl@@6B@     00454594     nafxcw:winctrl5.obj
 0002:0000264c       ??_C@_04MLNJ@?$CF?4?$CKg?$AA@ 0045464c     nafxcw:dlgfloat.obj
 0002:00002658       ?classCControlBar@CControlBar@@2UCRuntimeClass@@B 00454658     nafxcw:winfrm.obj
 0002:00002670       ??_C@_0M@GCON@CControlBar?$AA@ 00454670     nafxcw:winfrm.obj
 0002:00002680       ?classCView@CView@@2UCRuntimeClass@@B 00454680     nafxcw:winfrm.obj
 0002:00002698       ??_C@_05KON@CView?$AA@     00454698     nafxcw:winfrm.obj
 0002:000026a0       ?classCFrameWnd@CFrameWnd@@2UCRuntimeClass@@B 004546a0     nafxcw:winfrm.obj
 0002:000026b8       ??_C@_09HNKJ@CFrameWnd?$AA@ 004546b8     nafxcw:winfrm.obj
 0002:000026c8       ?messageMap@CFrameWnd@@1UAFX_MSGMAP@@B 004546c8     nafxcw:winfrm.obj
 0002:000026d0       ?_messageEntries@CFrameWnd@@0QBUAFX_MSGMAP_ENTRY@@B 004546d0     nafxcw:winfrm.obj
 0002:00002b38       ??_C@_0BA@CLBL@MSWHEEL_ROLLMSG?$AA@ 00454b38     nafxcw:winfrm.obj
 0002:00002b4c       ??_7CFrameWnd@@6B@         00454b4c     nafxcw:winfrm.obj
 0002:00002c40       ??_C@_03DMDD@?5?9?5?$AA@   00454c40     nafxcw:winfrm.obj
 0002:00002c44       ??_C@_03JDAJ@?3?$CFd?$AA@  00454c44     nafxcw:winfrm.obj
 0002:00002c48       ?classCStatusBar@CStatusBar@@2UCRuntimeClass@@B 00454c48     nafxcw:barstat.obj
 0002:00002c60       ??_C@_0L@BNMI@CStatusBar?$AA@ 00454c60     nafxcw:barstat.obj
 0002:00002c70       ?messageMap@CStatusBar@@1UAFX_MSGMAP@@B 00454c70     nafxcw:barstat.obj
 0002:00002c78       ?_messageEntries@CStatusBar@@0QBUAFX_MSGMAP_ENTRY@@B 00454c78     nafxcw:barstat.obj
 0002:00002d84       ??_7CStatusBar@@6B@        00454d84     nafxcw:barstat.obj
 0002:00002e6c       ??_7CStatusCmdUI@@6B@      00454e6c     nafxcw:barstat.obj
 0002:00002e80       ?classCToolBar@CToolBar@@2UCRuntimeClass@@B 00454e80     nafxcw:bartool.obj
 0002:00002e98       ??_C@_08NCEL@CToolBar?$AA@ 00454e98     nafxcw:bartool.obj
 0002:00002ea8       ?messageMap@CToolBar@@1UAFX_MSGMAP@@B 00454ea8     nafxcw:bartool.obj
 0002:00002eb0       ?_messageEntries@CToolBar@@0QBUAFX_MSGMAP_ENTRY@@B 00454eb0     nafxcw:bartool.obj
 0002:00002fe8       ?_afxSysColorMap@@3QBUAFX_COLORMAP@@B 00454fe8     nafxcw:bartool.obj
 0002:00003008       ??_C@_0O@CDEE@DllGetVersion?$AA@ 00455008     nafxcw:bartool.obj
 0002:00003018       ??_C@_07GEJO@Marlett?$AA@  00455018     nafxcw:bartool.obj
 0002:00003024       ??_7CToolBar@@6B@          00455024     nafxcw:bartool.obj
 0002:0000310c       ??_7CToolCmdUI@@6B@        0045510c     nafxcw:bartool.obj
 0002:0000311c       ?dwDockBarMap@CFrameWnd@@1QAY01$$CBKA 0045511c     nafxcw:winfrm2.obj
 0002:00003140       ?classCMiniDockFrameWnd@CMiniDockFrameWnd@@2UCRuntimeClass@@B 00455140     nafxcw:bardock.obj
 0002:00003158       ??_C@_0BC@NGKE@CMiniDockFrameWnd?$AA@ 00455158     nafxcw:bardock.obj
 0002:00003170       ?classCDockBar@CDockBar@@2UCRuntimeClass@@B 00455170     nafxcw:bardock.obj
 0002:00003188       ??_C@_08EABA@CDockBar?$AA@ 00455188     nafxcw:bardock.obj
 0002:00003198       ?messageMap@CMiniDockFrameWnd@@1UAFX_MSGMAP@@B 00455198     nafxcw:bardock.obj
 0002:000031a0       ?_messageEntries@CMiniDockFrameWnd@@0QBUAFX_MSGMAP_ENTRY@@B 004551a0     nafxcw:bardock.obj
 0002:00003218       ?messageMap@CDockBar@@1UAFX_MSGMAP@@B 00455218     nafxcw:bardock.obj
 0002:00003220       ?_messageEntries@CDockBar@@0QBUAFX_MSGMAP_ENTRY@@B 00455220     nafxcw:bardock.obj
 0002:000032b4       ??_7CDockBar@@6B@          004552b4     nafxcw:bardock.obj
 0002:0000339c       ??_7CMiniDockFrameWnd@@6B@ 0045539c     nafxcw:bardock.obj
 0002:00003498       ?classCDocument@CDocument@@2UCRuntimeClass@@B 00455498     nafxcw:doccore.obj
 0002:000034b0       ??_C@_09IIIN@CDocument?$AA@ 004554b0     nafxcw:doccore.obj
 0002:000034c0       ?messageMap@CDocument@@1UAFX_MSGMAP@@B 004554c0     nafxcw:doccore.obj
 0002:000034c8       ?_messageEntries@CDocument@@0QBUAFX_MSGMAP_ENTRY@@B 004554c8     nafxcw:doccore.obj
 0002:00003528       ??_C@_06LMKP@?5?$CD?$CF?$DL?1?2?$AA@ 00455528     nafxcw:doccore.obj
 0002:00003530       ??_C@_03IIHA@MFC?$AA@      00455530     nafxcw:doccore.obj
 0002:00003534       ??_C@_0M@JIL@ReplaceFile?$AA@ 00455534     nafxcw:doccore.obj
 0002:00003540       ??_C@_08OBID@KERNEL32?$AA@ 00455540     nafxcw:doccore.obj
 0002:00003550       ??_7CMirrorFile@@6B@       00455550     nafxcw:doccore.obj
 0002:000035a8       ??_7CFileException@@6B@    004555a8     nafxcw:doccore.obj
 0002:000035c0       ?classCWinApp@CWinApp@@2UCRuntimeClass@@B 004555c0     nafxcw:appcore.obj
 0002:000035d8       ??_C@_07DHEF@CWinApp?$AA@  004555d8     nafxcw:appcore.obj
 0002:000035e0       ?messageMap@CWinApp@@1UAFX_MSGMAP@@B 004555e0     nafxcw:appcore.obj
 0002:000035e8       ?_messageEntries@CWinApp@@0QBUAFX_MSGMAP_ENTRY@@B 004555e8     nafxcw:appcore.obj
 0002:00003648       ?_afxPreviewEntry@@3QBDB   00455648     nafxcw:appcore.obj
 0002:00003658       ?_afxPreviewSection@@3QBDB 00455658     nafxcw:appcore.obj
 0002:00003664       ?_afxFileEntry@@3QBDB      00455664     nafxcw:appcore.obj
 0002:0000366c       ?_afxFileSection@@3QBDB    0045566c     nafxcw:appcore.obj
 0002:00003684       ??_7_AFX_WIN_STATE@@6B@    00455684     nafxcw:appcore.obj
 0002:0000368c       ??_7CWinApp@@6B@           0045568c     nafxcw:appcore.obj
 0002:0000372c       ??_7CCommandLineInfo@@6B@  0045572c     nafxcw:appcore.obj
 0002:0000373c       ??_C@_0L@POJA@Automation?$AA@ 0045573c     nafxcw:appcore.obj
 0002:00003748       ??_C@_09LHIP@Embedding?$AA@ 00455748     nafxcw:appcore.obj
 0002:00003754       ??_C@_03FNJD@dde?$AA@      00455754     nafxcw:appcore.obj
 0002:00003758       ??_C@_0M@HIDL@Unregserver?$AA@ 00455758     nafxcw:appcore.obj
 0002:00003764       ??_C@_0L@MNBE@Unregister?$AA@ 00455764     nafxcw:appcore.obj
 0002:00003770       ??_C@_01FOFA@p?$AA@        00455770     nafxcw:appcore.obj
 0002:00003774       ??_C@_02OBFC@pt?$AA@       00455774     nafxcw:appcore.obj
 0002:00003778       ?classCSingleDocTemplate@CSingleDocTemplate@@2UCRuntimeClass@@B 00455778     nafxcw:docsingl.obj
 0002:00003790       ??_C@_0BD@BIBJ@CSingleDocTemplate?$AA@ 00455790     nafxcw:docsingl.obj
 0002:000037a8       ??_7CSingleDocTemplate@@6B@ 004557a8     nafxcw:docsingl.obj
 0002:00003834       ??_C@_08LLFG@software?$AA@ 00455834     nafxcw:appui3.obj
 0002:00003844       ??_7COccManager@@6B@       00455844     nafxcw:occmgr.obj
 0002:00003870       ?classCPreviewView@CPreviewView@@2UCRuntimeClass@@B 00455870     nafxcw:viewprev.obj
 0002:00003888       ??_C@_0N@LOLK@CPreviewView?$AA@ 00455888     nafxcw:viewprev.obj
 0002:00003898       ?messageMap@CPreviewView@@1UAFX_MSGMAP@@B 00455898     nafxcw:viewprev.obj
 0002:000038a0       ?_messageEntries@CPreviewView@@0QBUAFX_MSGMAP_ENTRY@@B 004558a0     nafxcw:viewprev.obj
 0002:00003a84       ??_7CPreviewView@@6B@      00455a84     nafxcw:viewprev.obj
 0002:00003b9c       ??_7CPrintingDialog@@6B@   00455b9c     nafxcw:viewprnt.obj
 0002:00003c70       ?classCSplitterWnd@CSplitterWnd@@2UCRuntimeClass@@B 00455c70     nafxcw:viewcore.obj
 0002:00003c88       ??_C@_0N@JGP@CSplitterWnd?$AA@ 00455c88     nafxcw:viewcore.obj
 0002:00003c98       ?messageMap@CView@@1UAFX_MSGMAP@@B 00455c98     nafxcw:viewcore.obj
 0002:00003ca0       ?_messageEntries@CView@@0QBUAFX_MSGMAP_ENTRY@@B 00455ca0     nafxcw:viewcore.obj
 0002:00003dc0       ?classCNotSupportedException@CNotSupportedException@@2UCRuntimeClass@@B 00455dc0     nafxcw:except.obj
 0002:00003dd8       ??_C@_0BH@JODH@CNotSupportedException?$AA@ 00455dd8     nafxcw:except.obj
 0002:00003df0       ?classCMemoryException@CMemoryException@@2UCRuntimeClass@@B 00455df0     nafxcw:except.obj
 0002:00003e08       ??_C@_0BB@NODM@CMemoryException?$AA@ 00455e08     nafxcw:except.obj
 0002:00003e20       ?classCException@CException@@2UCRuntimeClass@@B 00455e20     nafxcw:except.obj
 0002:00003e38       ??_C@_0L@CMNH@CException?$AA@ 00455e38     nafxcw:except.obj
 0002:00003e48       ??_7CMemoryException@@6B@  00455e48     nafxcw:except.obj
 0002:00003e60       ??_7CNotSupportedException@@6B@ 00455e60     nafxcw:except.obj
 0002:00003e78       ?classCObject@CObject@@2UCRuntimeClass@@B 00455e78     nafxcw:objcore.obj
 0002:00003e90       ??_C@_07EFMO@CObject?$AA@  00455e90     nafxcw:objcore.obj
 0002:00003e98       ??_C@_08PKA@combobox?$AA@  00455e98     nafxcw:winutil.obj
 0002:00003ea4       ??_C@_06NILE@System?$AA@   00455ea4     nafxcw:dlgtempl.obj
 0002:00003eb0       ??_7CThreadData@@6B@       00455eb0     nafxcw:afxtls.obj
 0002:00003eb8       ??_7CHandleMap@@6B@        00455eb8     nafxcw:winhand.obj
 0002:00003ec0       ?classCMapPtrToPtr@CMapPtrToPtr@@2UCRuntimeClass@@B 00455ec0     nafxcw:map_pp.obj
 0002:00003ed8       ??_C@_0N@EGND@CMapPtrToPtr?$AA@ 00455ed8     nafxcw:map_pp.obj
 0002:00003eec       ??_7CMapPtrToPtr@@6B@      00455eec     nafxcw:map_pp.obj
 0002:00003ef8       ?classCTempMenu@CTempMenu@@2UCRuntimeClass@@B 00455ef8     nafxcw:winmenu.obj
 0002:00003f10       ??_C@_09NDEG@CTempMenu?$AA@ 00455f10     nafxcw:winmenu.obj
 0002:00003f20       ?classCMenu@CMenu@@2UCRuntimeClass@@B 00455f20     nafxcw:winmenu.obj
 0002:00003f38       ??_C@_05BJMA@CMenu?$AA@    00455f38     nafxcw:winmenu.obj
 0002:00003f44       ??_7CMenu@@6B@             00455f44     nafxcw:winmenu.obj
 0002:00003f5c       ??_7CTempMenu@@6B@         00455f5c     nafxcw:winmenu.obj
 0002:00003f74       ??_7CArchiveStream@@6B@    00455f74     nafxcw:arcstrm.obj
 0002:00003fb0       _IID_IDataSourceListener   00455fb0     nafxcw:occsite.obj
 0002:00003fc0       _IID_IDataSource           00455fc0     nafxcw:occsite.obj
 0002:00003fe0       ?_afxAmbients@@3QBU__unnamed@@B 00455fe0     nafxcw:occsite.obj
 0002:00004020       ?interfaceMap@COleControlSite@@1UAFX_INTERFACEMAP@@B 00456020     nafxcw:occsite.obj
 0002:00004028       ?_interfaceEntries@COleControlSite@@0QBUAFX_INTERFACEMAP_ENTRY@@B 00456028     nafxcw:occsite.obj
 0002:0000406c       ??_7COleControlSite@@6B@   0045606c     nafxcw:occsite.obj
 0002:00004130       ??_7XRowsetNotify@COleControlSite@@6B@ 00456130     nafxcw:occsite.obj
 0002:0000414c       ??_7XNotifyDBEvents@COleControlSite@@6B@ 0045614c     nafxcw:occsite.obj
 0002:00004178       ??_7XBoundObjectSite@COleControlSite@@6B@ 00456178     nafxcw:occsite.obj
 0002:0000418c       ??_7XEventSink@COleControlSite@@6B@ 0045618c     nafxcw:occsite.obj
 0002:000041ac       ??_7XPropertyNotifySink@COleControlSite@@6B@ 004561ac     nafxcw:occsite.obj
 0002:000041c4       ??_7XAmbientProps@COleControlSite@@6B@ 004561c4     nafxcw:occsite.obj
 0002:000041e4       ??_7XOleControlSite@COleControlSite@@6B@ 004561e4     nafxcw:occsite.obj
 0002:00004210       ??_7XOleIPSite@COleControlSite@@6B@ 00456210     nafxcw:occsite.obj
 0002:00004250       ??_7XOleClientSite@COleControlSite@@6B@ 00456250     nafxcw:occsite.obj
 0002:00004278       ??_7CDataSourceControl@@6B@ 00456278     nafxcw:occsite.obj
 0002:00004290       __real@8@3ffbccccccccccccd000 00456290     nafxcw:occsite.obj
 0002:00004298       ?classCOleDispatchException@COleDispatchException@@2UCRuntimeClass@@B 00456298     nafxcw:oledisp1.obj
 0002:000042b0       ??_C@_0BG@OGI@COleDispatchException?$AA@ 004562b0     nafxcw:oledisp1.obj
 0002:000042c8       ?_afxRetVal@@3QBIB         004562c8     nafxcw:oledisp1.obj
 0002:00004304       ?_afxByRef@@3QBIB          00456304     nafxcw:oledisp1.obj
 0002:00004340       ?_afxByValue@@3QBIB        00456340     nafxcw:oledisp1.obj
 0002:00004380       ??_7COleDispatchException@@6B@ 00456380     nafxcw:oledisp1.obj
 0002:00004398       ??_7CEnumArray@@6B@        00456398     nafxcw:oleenum.obj
 0002:000043fc       ??_7XEnumVOID@CEnumArray@@6B@ 004563fc     nafxcw:oleenum.obj
 0002:00004418       ?classCDocManager@CDocManager@@2UCRuntimeClass@@B 00456418     nafxcw:docmgr.obj
 0002:00004430       ??_C@_0M@FJOK@CDocManager?$AA@ 00456430     nafxcw:docmgr.obj
 0002:00004440       ?messageMap@CNewTypeDlg@@1UAFX_MSGMAP@@B 00456440     nafxcw:docmgr.obj
 0002:00004448       ?_messageEntries@CNewTypeDlg@@0QBUAFX_MSGMAP_ENTRY@@B 00456448     nafxcw:docmgr.obj
 0002:00004478       ?_afxShellNewValue@@3QBDB  00456478     nafxcw:docmgr.obj
 0002:0000447c       ?_afxShellNewValueName@@3QBDB 0045647c     nafxcw:docmgr.obj
 0002:00004488       ?_afxDDEPrintTo@@3QBDB     00456488     nafxcw:docmgr.obj
 0002:000044a8       ?_afxDDEPrint@@3QBDB       004564a8     nafxcw:docmgr.obj
 0002:000044b8       ?_afxDDEOpen@@3QBDB        004564b8     nafxcw:docmgr.obj
 0002:000044c8       ?_afxDDEExec@@3QBDB        004564c8     nafxcw:docmgr.obj
 0002:000044d0       ?_afxDDEArg@@3QBDB         004564d0     nafxcw:docmgr.obj
 0002:000044d8       ?_afxPrintToArg@@3QBDB     004564d8     nafxcw:docmgr.obj
 0002:000044f4       ?_afxPrintArg@@3QBDB       004564f4     nafxcw:docmgr.obj
 0002:00004500       ?_afxOpenArg@@3QBDB        00456500     nafxcw:docmgr.obj
 0002:00004508       ?_afxCommand@@3QBDB        00456508     nafxcw:docmgr.obj
 0002:00004510       ?_afxIconIndexFmt@@3QBDB   00456510     nafxcw:docmgr.obj
 0002:00004514       ?_afxShellNewFmt@@3QBDB    00456514     nafxcw:docmgr.obj
 0002:00004520       ?_afxDefaultIconFmt@@3QBDB 00456520     nafxcw:docmgr.obj
 0002:00004530       ?_afxShellPrintToFmt@@3QBDB 00456530     nafxcw:docmgr.obj
 0002:00004544       ?_afxShellPrintFmt@@3QBDB  00456544     nafxcw:docmgr.obj
 0002:00004558       ?_afxShellOpenFmt@@3QBDB   00456558     nafxcw:docmgr.obj
 0002:00004570       ??_7CDocManager@@6B@       00456570     nafxcw:docmgr.obj
 0002:000045ac       ??_C@_03DCMC@?$CK?4?$CK?$AA@ 004565ac     nafxcw:docmgr.obj
 0002:000045b0       ??_C@_03NLJK@?$CC?0?$CC?$AA@ 004565b0     nafxcw:docmgr.obj
 0002:000045b4       ??_C@_0L@BPHG@?$FLprintto?$CI?$CC?$AA@ 004565b4     nafxcw:docmgr.obj
 0002:000045c0       ??_C@_08ENEP@?$FLprint?$CI?$CC?$AA@ 004565c0     nafxcw:docmgr.obj
 0002:000045cc       ??_C@_07EPEO@?$FLopen?$CI?$CC?$AA@ 004565cc     nafxcw:docmgr.obj
 0002:000045d8       ??_7CNewTypeDlg@@6B@       004565d8     nafxcw:docmgr.obj
 0002:000046a8       ?classCPtrList@CPtrList@@2UCRuntimeClass@@B 004566a8     nafxcw:list_p.obj
 0002:000046c0       ??_C@_08DEKG@CPtrList?$AA@ 004566c0     nafxcw:list_p.obj
 0002:000046d0       ??_7CPtrList@@6B@          004566d0     nafxcw:list_p.obj
 0002:000046e0       __real@8@3feec22e450672894800 004566e0     nafxcw:olevar.obj
 0002:000046e8       ?classCOleException@COleException@@2UCRuntimeClass@@B 004566e8     nafxcw:olemisc.obj
 0002:00004700       ??_C@_0O@EEPE@COleException?$AA@ 00456700     nafxcw:olemisc.obj
 0002:00004714       ??_7COleException@@6B@     00456714     nafxcw:olemisc.obj
 0002:00004728       ??_C@_05FGFK@CLSID?$AA@    00456728     nafxcw:olemisc.obj
 0002:00004730       ?messageMap@CControlBar@@1UAFX_MSGMAP@@B 00456730     nafxcw:barcore.obj
 0002:00004738       ?_messageEntries@CControlBar@@0QBUAFX_MSGMAP_ENTRY@@B 00456738     nafxcw:barcore.obj
 0002:000048e8       ?classCMapStringToPtr@CMapStringToPtr@@2UCRuntimeClass@@B 004568e8     nafxcw:map_sp.obj
 0002:00004900       ??_C@_0BA@PAMN@CMapStringToPtr?$AA@ 00456900     nafxcw:map_sp.obj
 0002:00004914       ??_7CMapStringToPtr@@6B@   00456914     nafxcw:map_sp.obj
 0002:00004920       ??_C@_03NOMB@I64?$AA@      00456920     nafxcw:strex.obj
 0002:00004928       ?classCMiniFrameWnd@CMiniFrameWnd@@2UCRuntimeClass@@B 00456928     nafxcw:winmini.obj
 0002:00004940       ??_C@_0O@NPLL@CMiniFrameWnd?$AA@ 00456940     nafxcw:winmini.obj
 0002:00004950       ?messageMap@CMiniFrameWnd@@1UAFX_MSGMAP@@B 00456950     nafxcw:winmini.obj
 0002:00004958       ?_messageEntries@CMiniFrameWnd@@0QBUAFX_MSGMAP_ENTRY@@B 00456958     nafxcw:winmini.obj
 0002:00004adc       ??_7CMiniFrameWnd@@6B@     00456adc     nafxcw:winmini.obj
 0002:00004bd0       ??_C@_0M@DLIA@Small?5Fonts?$AA@ 00456bd0     nafxcw:winmini.obj
 0002:00004bdc       ??_C@_08OBOD@Terminal?$AA@ 00456bdc     nafxcw:winmini.obj
 0002:00004be8       ?classCPtrArray@CPtrArray@@2UCRuntimeClass@@B 00456be8     nafxcw:array_p.obj
 0002:00004c00       ??_C@_09BHCJ@CPtrArray?$AA@ 00456c00     nafxcw:array_p.obj
 0002:00004c10       ??_7CPtrArray@@6B@         00456c10     nafxcw:array_p.obj
 0002:00004c20       ??_7CDockContext@@6B@      00456c20     nafxcw:dockcont.obj
 0002:00004c30       ?classCFile@CFile@@2UCRuntimeClass@@B 00456c30     nafxcw:filecore.obj
 0002:00004c48       ??_C@_05GM@CFile?$AA@      00456c48     nafxcw:filecore.obj
 0002:00004c50       _afxIID_IShellLinkA        00456c50     nafxcw:filecore.obj
 0002:00004c60       _afxCLSID_ShellLink        00456c60     nafxcw:filecore.obj
 0002:00004c74       ??_7CFile@@6B@             00456c74     nafxcw:filecore.obj
 0002:00004cc8       ??_C@_0BC@KFKC@DllGetClassObject?$AA@ 00456cc8     nafxcw:filecore.obj
 0002:00004cdc       ??_C@_0DD@BIAF@?$HL?$CF08X?9?$CF04X?9?$CF04X?9?$CF02X?$CF02X?9?$CF02X?$CF02@ 00456cdc     nafxcw:filecore.obj
 0002:00004d10       ??_C@_0P@DFLB@InProcServer32?$AA@ 00456d10     nafxcw:filecore.obj
 0002:00004d20       ?classCFileException@CFileException@@2UCRuntimeClass@@B 00456d20     nafxcw:filex.obj
 0002:00004d38       ??_C@_0P@HFKI@CFileException?$AA@ 00456d38     nafxcw:filex.obj
 0002:00004d48       ?classCArchiveException@CArchiveException@@2UCRuntimeClass@@B 00456d48     nafxcw:arcex.obj
 0002:00004d60       ??_C@_0BC@BIF@CArchiveException?$AA@ 00456d60     nafxcw:arcex.obj
 0002:00004d78       ??_7CArchiveException@@6B@ 00456d78     nafxcw:arcex.obj
 0002:00004d90       ?classCPrintDialog@CPrintDialog@@2UCRuntimeClass@@B 00456d90     nafxcw:dlgprnt.obj
 0002:00004da8       ??_C@_0N@KDJG@CPrintDialog?$AA@ 00456da8     nafxcw:dlgprnt.obj
 0002:00004db8       ?messageMap@CPrintDialog@@1UAFX_MSGMAP@@B 00456db8     nafxcw:dlgprnt.obj
 0002:00004dc0       ?_messageEntries@CPrintDialog@@0QBUAFX_MSGMAP_ENTRY@@B 00456dc0     nafxcw:dlgprnt.obj
 0002:00004df4       ??_7CPrintDialog@@6B@      00456df4     nafxcw:dlgprnt.obj
 0002:00004ec8       ??_C@_04GOLI@?2?4?4?4?$AA@ 00456ec8     nafxcw:filelist.obj
 0002:00004ed4       ??_7CRecentFileList@@6B@   00456ed4     nafxcw:filelist.obj
 0002:00004eec       ??_C@_04FKIK@?$CG?$CFd?5?$AA@ 00456eec     nafxcw:filelist.obj
 0002:00004ef8       ?classCDocTemplate@CDocTemplate@@2UCRuntimeClass@@B 00456ef8     nafxcw:doctempl.obj
 0002:00004f10       ??_C@_0N@BKAE@CDocTemplate?$AA@ 00456f10     nafxcw:doctempl.obj
 0002:00004f20       ?classCMemFile@CMemFile@@2UCRuntimeClass@@B 00456f20     nafxcw:filemem.obj
 0002:00004f38       ??_C@_08EMMO@CMemFile?$AA@ 00456f38     nafxcw:filemem.obj
 0002:00004f48       ??_7CMemFile@@6B@          00456f48     nafxcw:filemem.obj
 0002:00004fb0       ?classCScrollView@CScrollView@@2UCRuntimeClass@@B 00456fb0     nafxcw:viewscrl.obj
 0002:00004fc8       ??_C@_0M@DAH@CScrollView?$AA@ 00456fc8     nafxcw:viewscrl.obj
 0002:00004fd8       ?sizeDefault@CScrollView@@2UtagSIZE@@B 00456fd8     nafxcw:viewscrl.obj
 0002:00004fe0       ?messageMap@CScrollView@@1UAFX_MSGMAP@@B 00456fe0     nafxcw:viewscrl.obj
 0002:00004fe8       ?_messageEntries@CScrollView@@0QBUAFX_MSGMAP_ENTRY@@B 00456fe8     nafxcw:viewscrl.obj
 0002:00005060       ??_C@_06FPAF@MouseZ?$AA@   00457060     nafxcw:viewscrl.obj
 0002:00005068       ??_C@_0BB@NAAD@Magellan?5MSWHEEL?$AA@ 00457068     nafxcw:viewscrl.obj
 0002:0000507c       ??_C@_0BB@IMJB@WheelScrollLines?$AA@ 0045707c     nafxcw:viewscrl.obj
 0002:00005090       ??_C@_0BG@EBPD@Control?5Panel?2Desktop?$AA@ 00457090     nafxcw:viewscrl.obj
 0002:000050a8       ??_C@_0BF@ODOJ@MSH_SCROLL_LINES_MSG?$AA@ 004570a8     nafxcw:viewscrl.obj
 0002:000050c4       ??_7CScrollView@@6B@       004570c4     nafxcw:viewscrl.obj
 0002:000051d0       ?classCDialogBar@CDialogBar@@2UCRuntimeClass@@B 004571d0     nafxcw:bardlg.obj
 0002:000051e8       ??_C@_0L@KJOE@CDialogBar?$AA@ 004571e8     nafxcw:bardlg.obj
 0002:000051f8       ?messageMap@CDialogBar@@1UAFX_MSGMAP@@B 004571f8     nafxcw:bardlg.obj
 0002:00005200       ?_messageEntries@CDialogBar@@0QBUAFX_MSGMAP_ENTRY@@B 00457200     nafxcw:bardlg.obj
 0002:00005234       ??_7CDialogBar@@6B@        00457234     nafxcw:bardlg.obj
 0002:00005318       ?classCPreviewDC@CPreviewDC@@2UCRuntimeClass@@B 00457318     nafxcw:dcprev.obj
 0002:00005330       ??_C@_0L@MCGA@CPreviewDC?$AA@ 00457330     nafxcw:dcprev.obj
 0002:00005340       ??_7CPreviewDC@@6B@        00457340     nafxcw:dcprev.obj
 0002:000053b4       ??_C@_01POCP@?7?$AA@       004573b4     nafxcw:dcprev.obj
 0002:000053b8       ??_C@_01PFH@A?$AA@         004573b8     nafxcw:dcprev.obj
 0002:000053c0       ?classCFileDialog@CFileDialog@@2UCRuntimeClass@@B 004573c0     nafxcw:dlgfile.obj
 0002:000053d8       ??_C@_0M@JEJA@CFileDialog?$AA@ 004573d8     nafxcw:dlgfile.obj
 0002:000053e8       ??_7CFileDialog@@6B@       004573e8     nafxcw:dlgfile.obj
 0002:000054d4       ??_C@_0BK@CHHF@RichEdit?5Text?5and?5Objects?$AA@ 004574d4     nafxcw:oleinit.obj
 0002:000054f0       ??_C@_0BB@HIML@Rich?5Text?5Format?$AA@ 004574f0     nafxcw:oleinit.obj
 0002:00005504       ??_C@_09IKIM@FileNameW?$AA@ 00457504     nafxcw:oleinit.obj
 0002:00005510       ??_C@_08NJLM@FileName?$AA@ 00457510     nafxcw:oleinit.obj
 0002:0000551c       ??_C@_0BH@FOOO@Link?5Source?5Descriptor?$AA@ 0045751c     nafxcw:oleinit.obj
 0002:00005534       ??_C@_0BC@GMEI@Object?5Descriptor?$AA@ 00457534     nafxcw:oleinit.obj
 0002:00005548       ??_C@_0M@KPGD@Link?5Source?$AA@ 00457548     nafxcw:oleinit.obj
 0002:00005554       ??_C@_0N@LHIH@Embed?5Source?$AA@ 00457554     nafxcw:oleinit.obj
 0002:00005564       ??_C@_0BA@IEJA@Embedded?5Object?$AA@ 00457564     nafxcw:oleinit.obj
 0002:00005574       ??_C@_0L@KADP@ObjectLink?$AA@ 00457574     nafxcw:oleinit.obj
 0002:00005580       ??_C@_09NJ@OwnerLink?$AA@  00457580     nafxcw:oleinit.obj
 0002:0000558c       ??_C@_06LLCL@Native?$AA@   0045758c     nafxcw:oleinit.obj
 0002:00005598       ?classCToolTipCtrl@CToolTipCtrl@@2UCRuntimeClass@@B 00457598     nafxcw:tooltip.obj
 0002:000055b0       ??_C@_0N@OELH@CToolTipCtrl?$AA@ 004575b0     nafxcw:tooltip.obj
 0002:000055c0       ?messageMap@CToolTipCtrl@@1UAFX_MSGMAP@@B 004575c0     nafxcw:tooltip.obj
 0002:000055c8       ?_messageEntries@CToolTipCtrl@@0QBUAFX_MSGMAP_ENTRY@@B 004575c8     nafxcw:tooltip.obj
 0002:00005644       ??_7CToolTipCtrl@@6B@      00457644     nafxcw:tooltip.obj
 0002:00005700       ??_C@_0BB@FNBH@tooltips_class32?$AA@ 00457700     nafxcw:tooltip.obj
 0002:00005714       ??_C@_04CLNG@?4INI?$AA@    00457714     nafxcw:appinit.obj
 0002:0000571c       ??_C@_04DMK@?4HLP?$AA@     0045771c     nafxcw:appinit.obj
 0002:00005728       ?messageMap@CCommonDialog@@1UAFX_MSGMAP@@B 00457728     nafxcw:dlgcomm.obj
 0002:00005730       ?_messageEntries@CCommonDialog@@0QBUAFX_MSGMAP_ENTRY@@B 00457730     nafxcw:dlgcomm.obj
 0002:00005760       ??_C@_0BE@PMME@commdlg_SetRGBColor?$AA@ 00457760     nafxcw:dlgcomm.obj
 0002:00005774       ??_C@_0N@IIFK@commdlg_help?$AA@ 00457774     nafxcw:dlgcomm.obj
 0002:00005784       ??_C@_0BA@DHJO@commdlg_ColorOK?$AA@ 00457784     nafxcw:dlgcomm.obj
 0002:00005794       ??_C@_0BD@HNAP@commdlg_FileNameOK?$AA@ 00457794     nafxcw:dlgcomm.obj
 0002:000057a8       ??_C@_0BH@KPHM@commdlg_ShareViolation?$AA@ 004577a8     nafxcw:dlgcomm.obj
 0002:000057c0       ??_C@_0BL@ODDK@commdlg_LBSelChangedNotify?$AA@ 004577c0     nafxcw:dlgcomm.obj
 0002:000057e0       ?interfaceMap@COleMessageFilter@@1UAFX_INTERFACEMAP@@B 004577e0     nafxcw:olemsgf.obj
 0002:000057e8       ?_interfaceEntries@COleMessageFilter@@0QBUAFX_INTERFACEMAP_ENTRY@@B 004577e8     nafxcw:olemsgf.obj
 0002:000057f8       ?_afxSignificantMsgs@@3QBIB 004577f8     nafxcw:olemsgf.obj
 0002:00005838       ??_7COleMessageFilter@@6B@ 00457838     nafxcw:olemsgf.obj
 0002:000058a4       ??_7XMessageFilter@COleMessageFilter@@6B@ 004578a4     nafxcw:olemsgf.obj
 0002:000058c0       ?classCOleBusyDialog@COleBusyDialog@@2UCRuntimeClass@@B 004578c0     nafxcw:oledlgs2.obj
 0002:000058d8       ??_C@_0P@CLOH@COleBusyDialog?$AA@ 004578d8     nafxcw:oledlgs2.obj
 0002:000058e8       ?classCOleDialog@COleDialog@@2UCRuntimeClass@@B 004578e8     nafxcw:oledlgs2.obj
 0002:00005900       ??_C@_0L@HMIO@COleDialog?$AA@ 00457900     nafxcw:oledlgs2.obj
 0002:00005910       ??_7COleBusyDialog@@6B@    00457910     nafxcw:oledlgs2.obj
 0002:00005d74       ??_7_AFX_OLE_STATE@@6B@    00457d74     nafxcw:oledata.obj
 0002:00005d7c       ??_7exception@@6B@         00457d7c     libcmt:stdexcpt.obj
 0002:00005d84       ??_C@_0BC@OIDF@Unknown?5exception?$AA@ 00457d84     libcmt:stdexcpt.obj
 0002:00005d9c       ??_7type_info@@6B@         00457d9c     libcmt:typinfo.obj
 0002:00005e70       ??_C@_07CJME@H?3mm?3ss?$AA@ 00457e70     libcmt:strftime.obj
 0002:00005e78       ??_C@_0BE@MHI@dddd?0?5MMMM?5dd?0?5yyyy?$AA@ 00457e78     libcmt:strftime.obj
 0002:00005e8c       ??_C@_06HCAD@M?1d?1yy?$AA@ 00457e8c     libcmt:strftime.obj
 0002:00005e94       ??_C@_02DBLP@PM?$AA@       00457e94     libcmt:strftime.obj
 0002:00005e98       ??_C@_02ENLM@AM?$AA@       00457e98     libcmt:strftime.obj
 0002:00005e9c       ??_C@_08LIDF@December?$AA@ 00457e9c     libcmt:strftime.obj
 0002:00005ea8       ??_C@_08NJLI@November?$AA@ 00457ea8     libcmt:strftime.obj
 0002:00005eb4       ??_C@_07IAMM@October?$AA@  00457eb4     libcmt:strftime.obj
 0002:00005ebc       ??_C@_09MKGD@September?$AA@ 00457ebc     libcmt:strftime.obj
 0002:00005ec8       ??_C@_06PADP@August?$AA@   00457ec8     libcmt:strftime.obj
 0002:00005ed0       ??_C@_04PIJO@July?$AA@     00457ed0     libcmt:strftime.obj
 0002:00005ed8       ??_C@_04ICFP@June?$AA@     00457ed8     libcmt:strftime.obj
 0002:00005ee0       ??_C@_05JFGC@April?$AA@    00457ee0     libcmt:strftime.obj
 0002:00005ee8       ??_C@_05FGPD@March?$AA@    00457ee8     libcmt:strftime.obj
 0002:00005ef0       ??_C@_08PGBA@February?$AA@ 00457ef0     libcmt:strftime.obj
 0002:00005efc       ??_C@_07BPKJ@January?$AA@  00457efc     libcmt:strftime.obj
 0002:00005f04       ??_C@_03PGJO@Dec?$AA@      00457f04     libcmt:strftime.obj
 0002:00005f08       ??_C@_03PDLM@Nov?$AA@      00457f08     libcmt:strftime.obj
 0002:00005f0c       ??_C@_03BLHK@Oct?$AA@      00457f0c     libcmt:strftime.obj
 0002:00005f10       ??_C@_03DPFM@Sep?$AA@      00457f10     libcmt:strftime.obj
 0002:00005f14       ??_C@_03CMCH@Aug?$AA@      00457f14     libcmt:strftime.obj
 0002:00005f18       ??_C@_03OBKI@Jul?$AA@      00457f18     libcmt:strftime.obj
 0002:00005f1c       ??_C@_03LEIG@Jun?$AA@      00457f1c     libcmt:strftime.obj
 0002:00005f20       ??_C@_03MGHB@May?$AA@      00457f20     libcmt:strftime.obj
 0002:00005f24       ??_C@_03MJJM@Apr?$AA@      00457f24     libcmt:strftime.obj
 0002:00005f28       ??_C@_03GNHA@Mar?$AA@      00457f28     libcmt:strftime.obj
 0002:00005f2c       ??_C@_03PICE@Feb?$AA@      00457f2c     libcmt:strftime.obj
 0002:00005f30       ??_C@_03IEIF@Jan?$AA@      00457f30     libcmt:strftime.obj
 0002:00005f34       ??_C@_08FAKH@Saturday?$AA@ 00457f34     libcmt:strftime.obj
 0002:00005f40       ??_C@_06ONCK@Friday?$AA@   00457f40     libcmt:strftime.obj
 0002:00005f48       ??_C@_08CCFO@Thursday?$AA@ 00457f48     libcmt:strftime.obj
 0002:00005f54       ??_C@_09PBIN@Wednesday?$AA@ 00457f54     libcmt:strftime.obj
 0002:00005f60       ??_C@_07BMBC@Tuesday?$AA@  00457f60     libcmt:strftime.obj
 0002:00005f68       ??_C@_06CHLK@Monday?$AA@   00457f68     libcmt:strftime.obj
 0002:00005f70       ??_C@_06OOEM@Sunday?$AA@   00457f70     libcmt:strftime.obj
 0002:00005f78       ??_C@_03MPKK@Sat?$AA@      00457f78     libcmt:strftime.obj
 0002:00005f7c       ??_C@_03FINJ@Fri?$AA@      00457f7c     libcmt:strftime.obj
 0002:00005f80       ??_C@_03HIKC@Thu?$AA@      00457f80     libcmt:strftime.obj
 0002:00005f84       ??_C@_03HECK@Wed?$AA@      00457f84     libcmt:strftime.obj
 0002:00005f88       ??_C@_03ECCP@Tue?$AA@      00457f88     libcmt:strftime.obj
 0002:00005f8c       ??_C@_03PIEP@Mon?$AA@      00457f8c     libcmt:strftime.obj
 0002:00005f90       ??_C@_03FHEP@Sun?$AA@      00457f90     libcmt:strftime.obj
 0002:00005fc8       ___lookuptable             00457fc8     libcmt:output.obj
 0002:00006024       ??_C@_1O@POHA@?$AA?$CI?$AAn?$AAu?$AAl?$AAl?$AA?$CJ?$AA?$AA@ 00458024     libcmt:output.obj
 0002:00006034       ??_C@_06ONKE@?$CInull?$CJ?$AA@ 00458034     libcmt:output.obj
 0002:000060b8       __real@8@4015800bf60000000000 004580b8     libcmt:testfdiv.obj
 0002:000060c0       __real@8@4014bffffc0000000000 004580c0     libcmt:testfdiv.obj
 0002:000060c8       ??_C@_0BK@JEGK@IsProcessorFeaturePresent?$AA@ 004580c8     libcmt:testfdiv.obj
 0002:000060e4       ??_C@_05OFLO@e?$CL000?$AA@ 004580e4     libcmt:cvt.obj
 0002:000060ec       ??_C@_0BH@PHHF@__GLOBAL_HEAP_SELECTED?$AA@ 004580ec     libcmt:heapinit.obj
 0002:00006104       ??_C@_0BF@BBGL@__MSVCRT_HEAP_SELECT?$AA@ 00458104     libcmt:heapinit.obj
 0002:0000611c       ??_C@_0P@GGKG@runtime?5error?5?$AA@ 0045811c     libcmt:crt0msg.obj
 0002:0000612c       ??_C@_02PIMC@?$AN?6?$AA@   0045812c     libcmt:crt0msg.obj
 0002:00006130       ??_C@_0O@DELO@TLOSS?5error?$AN?6?$AA@ 00458130     libcmt:crt0msg.obj
 0002:00006140       ??_C@_0N@OMLL@SING?5error?$AN?6?$AA@ 00458140     libcmt:crt0msg.obj
 0002:00006150       ??_C@_0P@OJAK@DOMAIN?5error?$AN?6?$AA@ 00458150     libcmt:crt0msg.obj
 0002:00006160       ??_C@_0CF@EANP@R6028?$AN?6?9?5unable?5to?5initialize?5he@ 00458160     libcmt:crt0msg.obj
 0002:00006188       ??_C@_0DF@ECGN@R6027?$AN?6?9?5not?5enough?5space?5for?5lo@ 00458188     libcmt:crt0msg.obj
 0002:000061c0       ??_C@_0DF@FKAC@R6026?$AN?6?9?5not?5enough?5space?5for?5st@ 004581c0     libcmt:crt0msg.obj
 0002:000061f8       ??_C@_0CG@DPMN@R6025?$AN?6?9?5pure?5virtual?5function?5c@ 004581f8     libcmt:crt0msg.obj
 0002:00006220       ??_C@_0DF@CKIP@R6024?$AN?6?9?5not?5enough?5space?5for?5_o@ 00458220     libcmt:crt0msg.obj
 0002:00006258       ??_C@_0CJ@GGOE@R6019?$AN?6?9?5unable?5to?5open?5console?5@ 00458258     libcmt:crt0msg.obj
 0002:00006284       ??_C@_0CB@LBOB@R6018?$AN?6?9?5unexpected?5heap?5error?$AN?6@ 00458284     libcmt:crt0msg.obj
 0002:000062a8       ??_C@_0CN@FPEG@R6017?$AN?6?9?5unexpected?5multithread?5@ 004582a8     libcmt:crt0msg.obj
 0002:000062d8       ??_C@_0CM@OBIC@R6016?$AN?6?9?5not?5enough?5space?5for?5th@ 004582d8     libcmt:crt0msg.obj
 0002:00006304       ??_C@_0CB@HPAL@?$AN?6abnormal?5program?5termination?$AN?6@ 00458304     libcmt:crt0msg.obj
 0002:00006328       ??_C@_0CM@JOOB@R6009?$AN?6?9?5not?5enough?5space?5for?5en@ 00458328     libcmt:crt0msg.obj
 0002:00006354       ??_C@_0CK@OIBL@R6008?$AN?6?9?5not?5enough?5space?5for?5ar@ 00458354     libcmt:crt0msg.obj
 0002:00006380       ??_C@_0CF@LKPB@R6002?$AN?6?9?5floating?5point?5not?5load@ 00458380     libcmt:crt0msg.obj
 0002:000063a8       ??_C@_0CF@JPDF@Microsoft?5Visual?5C?$CL?$CL?5Runtime?5Lib@ 004583a8     libcmt:crt0msg.obj
 0002:000063d0       ??_C@_02JJJH@?6?6?$AA@     004583d0     libcmt:crt0msg.obj
 0002:000063d4       ??_C@_0BK@DEOK@Runtime?5Error?$CB?6?6Program?3?5?$AA@ 004583d4     libcmt:crt0msg.obj
 0002:000063f0       ??_C@_03NAME@?4?4?4?$AA@   004583f0     libcmt:crt0msg.obj
 0002:000063f4       ??_C@_0BH@NNCD@?$DMprogram?5name?5unknown?$DO?$AA@ 004583f4     libcmt:crt0msg.obj
 0002:0000640c       ??_C@_01A@?$AA?$AA@        0045840c     libcmt:a_str.obj
 0002:00006410       ??_C@_13A@?$AA?$AA?$AA?$AA@ 00458410     libcmt:a_str.obj
 0002:00006440       ___dnames                  00458440     libcmt:timeset.obj
 0002:00006458       ___mnames                  00458458     libcmt:timeset.obj
 0002:00006480       ??_C@_02JHIA@TZ?$AA@       00458480     libcmt:tzset.obj
 0002:00006484       ??_C@_03GAFO@_yn?$AA@      00458484     libcmt:fpexcept.obj
 0002:00006488       ??_C@_03GNLD@_y1?$AA@      00458488     libcmt:fpexcept.obj
 0002:0000648c       ??_C@_03MHCE@_y0?$AA@      0045848c     libcmt:fpexcept.obj
 0002:00006490       ??_C@_05PAK@frexp?$AA@     00458490     libcmt:fpexcept.obj
 0002:00006498       ??_C@_04JKCH@fmod?$AA@     00458498     libcmt:fpexcept.obj
 0002:000064a0       ??_C@_06GGHF@_hypot?$AA@   004584a0     libcmt:fpexcept.obj
 0002:000064a8       ??_C@_05JNMC@_cabs?$AA@    004584a8     libcmt:fpexcept.obj
 0002:000064b0       ??_C@_05MEKH@ldexp?$AA@    004584b0     libcmt:fpexcept.obj
 0002:000064b8       ??_C@_04KAOJ@modf?$AA@     004584b8     libcmt:fpexcept.obj
 0002:000064c0       ??_C@_04EHAJ@fabs?$AA@     004584c0     libcmt:fpexcept.obj
 0002:000064c8       ??_C@_05MFBN@floor?$AA@    004584c8     libcmt:fpexcept.obj
 0002:000064d0       ??_C@_04JJMP@ceil?$AA@     004584d0     libcmt:fpexcept.obj
 0002:000064d8       ??_C@_03JLPI@tan?$AA@      004584d8     libcmt:fpexcept.obj
 0002:000064dc       ??_C@_03DLFL@cos?$AA@      004584dc     libcmt:fpexcept.obj
 0002:000064e0       ??_C@_03JAMN@sin?$AA@      004584e0     libcmt:fpexcept.obj
 0002:000064e4       ??_C@_04LMBE@sqrt?$AA@     004584e4     libcmt:fpexcept.obj
 0002:000064ec       ??_C@_05BFPO@atan2?$AA@    004584ec     libcmt:fpexcept.obj
 0002:000064f4       ??_C@_04EAGN@atan?$AA@     004584f4     libcmt:fpexcept.obj
 0002:000064fc       ??_C@_04OAMO@acos?$AA@     004584fc     libcmt:fpexcept.obj
 0002:00006504       ??_C@_04ELFI@asin?$AA@     00458504     libcmt:fpexcept.obj
 0002:0000650c       ??_C@_04LFAD@tanh?$AA@     0045850c     libcmt:fpexcept.obj
 0002:00006514       ??_C@_04PFKD@cosh?$AA@     00458514     libcmt:fpexcept.obj
 0002:0000651c       ??_C@_04NPAI@sinh?$AA@     0045851c     libcmt:fpexcept.obj
 0002:00006524       ??_C@_05IJHH@log10?$AA@    00458524     libcmt:fpexcept.obj
 0002:0000652c       ??_C@_03BGKD@log?$AA@      0045852c     libcmt:fpexcept.obj
 0002:00006530       ??_C@_03EGFG@pow?$AA@      00458530     libcmt:fpexcept.obj
 0002:00006534       ??_C@_03CDGJ@exp?$AA@      00458534     libcmt:fpexcept.obj
 0002:00006538       ??_C@_0BD@NJFP@GetLastActivePopup?$AA@ 00458538     libcmt:crtmbox.obj
 0002:0000654c       ??_C@_0BA@GILI@GetActiveWindow?$AA@ 0045854c     libcmt:crtmbox.obj
 0002:0000655c       ??_C@_0M@PKCK@MessageBoxA?$AA@ 0045855c     libcmt:crtmbox.obj
 0002:00006568       ??_C@_0L@HKL@user32?4dll?$AA@ 00458568     libcmt:crtmbox.obj
 0002:00006574       ??_C@_06PAPI@1?$CDQNAN?$AA@ 00458574     libcmt:x10fout.obj
 0002:0000657c       ??_C@_05BGNL@1?$CDINF?$AA@ 0045857c     libcmt:x10fout.obj
 0002:00006584       ??_C@_05EDPF@1?$CDIND?$AA@ 00458584     libcmt:x10fout.obj
 0002:0000658c       ??_C@_06LKFM@1?$CDSNAN?$AA@ 0045858c     libcmt:x10fout.obj
 0002:000065b0       _IID_IDispatch             004585b0     uuid:oaidl_i_guid4.obj
 0002:000065c0       _IID_IDropTarget           004585c0     uuid:oleidl_i_guid20.obj
 0002:000065d0       _IID_IEnumUnknown          004585d0     uuid:objidl_i_guid7.obj
 0002:000065e0       _IID_IOleContainer         004585e0     uuid:oleidl_i_guid5.obj
 0002:000065f0       _IID_IOleInPlaceFrame      004585f0     uuid:oleidl_i_guid13.obj
 0002:00006600       _IID_IFontDisp             00458600     uuid:ocidl_i_guid22.obj
 0002:00006610       _IID_IUnknown              00458610     uuid:unknwn_i_guid0.obj
 0002:00006620       _GUID_NULL                 00458620     uuid:cguid_i_guid0.obj
 0002:00006630       _IID_IStream               00458630     uuid:objidl_i_guid18.obj
 0002:00006640       _IID_ITransaction          00458640     uuid:guids.obj
 0002:00006650       _IID_ITransactionDispenser 00458650     uuid:guids.obj
 0002:00006660       _IID_ITransactionOptions   00458660     uuid:guids.obj
 0002:00006670       _IID_ITransactionOutcomeEvents 00458670     uuid:guids.obj
 0002:00006680       _CLSID_MSDASQL             00458680     uuid:guids.obj
 0002:00006690       _CLSID_MSDASQL_ENUMERATOR  00458690     uuid:guids.obj
 0002:000066a0       _IID_IRowsetNotify         004586a0     uuid:guids.obj
 0002:000066b0       _IID_IRowPosition          004586b0     uuid:guids.obj
 0002:000066c0       _IID_IRowset               004586c0     uuid:guids.obj
 0002:000066d0       _IID_IAccessor             004586d0     uuid:guids.obj
 0002:000066e0       _IID_INotifyDBEvents       004586e0     uuid:cguid_i_guid84.obj
 0002:000066f0       _IID_IBoundObjectSite      004586f0     uuid:cguid_i_guid91.obj
 0002:00006700       _IID_IOleControlSite       00458700     uuid:ocidl_i_guid9.obj
 0002:00006710       _IID_IOleInPlaceSite       00458710     uuid:oleidl_i_guid15.obj
 0002:00006720       _IID_IOleClientSite        00458720     uuid:oleidl_i_guid6.obj
 0002:00006730       _IID_IPropertyNotifySink   00458730     uuid:ocidl_i_guid13.obj
 0002:00006740       _IID_IOleInPlaceObject     00458740     uuid:oleidl_i_guid14.obj
 0002:00006750       _IID_IClassFactory2        00458750     uuid:ocidl_i_guid4.obj
 0002:00006760       _IID_IClassFactory         00458760     uuid:unknwn_i_guid1.obj
 0002:00006770       _IID_IFont                 00458770     uuid:ocidl_i_guid19.obj
 0002:00006780       _IID_IQuickActivate        00458780     uuid:ocidl_i_guid40.obj
 0002:00006790       _IID_IPersistStorage       00458790     uuid:objidl_i_guid22.obj
 0002:000067a0       _IID_IPersistStreamInit    004587a0     uuid:ocidl_i_guid16.obj
 0002:000067b0       _IID_IPersistMemory        004587b0     uuid:ocidl_i_guid15.obj
 0002:000067c0       _IID_IOleObject            004587c0     uuid:oleidl_i_guid7.obj
 0002:000067d0       _IID_IOleControl           004587d0     uuid:ocidl_i_guid8.obj
 0002:000067e0       _IID_IConnectionPointContainer 004587e0     uuid:ocidl_i_guid3.obj
 0002:000067f0       _IID_IProvideClassInfo     004587f0     uuid:ocidl_i_guid5.obj
 0002:00006800       _IID_IProvideClassInfo2    00458800     uuid:ocidl_i_guid6.obj
 0002:00006810       _IID_ICursorUpdateARow     00458810     uuid:cguid_i_guid83.obj
 0002:00006820       _IID_ICursorMove           00458820     uuid:cguid_i_guid81.obj
 0002:00006830       _IID_ICursor               00458830     uuid:cguid_i_guid80.obj
 0002:00006840       _COLUMNID_INVALID          00458840     uuid:vcguids.obj
 0002:00006858       _COLUMN_AUTOINCREMENT      00458858     uuid:vcguids.obj
 0002:00006870       _COLUMN_BASECOLUMNNAME     00458870     uuid:vcguids.obj
 0002:00006888       _COLUMN_BASENAME           00458888     uuid:vcguids.obj
 0002:000068a0       _COLUMN_BINARYCOMPARABLE   004588a0     uuid:vcguids.obj
 0002:000068b8       _COLUMN_BINDTYPE           004588b8     uuid:vcguids.obj
 0002:000068d0       _COLUMN_CASESENSITIVE      004588d0     uuid:vcguids.obj
 0002:000068e8       _COLUMN_COLLATINGORDER     004588e8     uuid:vcguids.obj
 0002:00006900       _COLUMN_COLUMNID           00458900     uuid:vcguids.obj
 0002:00006918       _COLUMN_CURSORCOLUMN       00458918     uuid:vcguids.obj
 0002:00006930       _COLUMN_DATACOLUMN         00458930     uuid:vcguids.obj
 0002:00006948       _COLUMN_DEFAULTVALUE       00458948     uuid:vcguids.obj
 0002:00006960       _COLUMN_ENTRYIDMAXLENGTH   00458960     uuid:vcguids.obj
 0002:00006978       _COLUMN_FIXED              00458978     uuid:vcguids.obj
 0002:00006990       _COLUMN_HASDEFAULT         00458990     uuid:vcguids.obj
 0002:000069a8       _COLUMN_MAXLENGTH          004589a8     uuid:vcguids.obj
 0002:000069c0       _COLUMN_MULTIVALUED        004589c0     uuid:vcguids.obj
 0002:000069d8       _COLUMN_NAME               004589d8     uuid:vcguids.obj
 0002:000069f0       _COLUMN_NULLABLE           004589f0     uuid:vcguids.obj
 0002:00006a08       _COLUMN_PHYSICALSORT       00458a08     uuid:vcguids.obj
 0002:00006a20       _COLUMN_NUMBER             00458a20     uuid:vcguids.obj
 0002:00006a38       _COLUMN_ROWENTRYID         00458a38     uuid:vcguids.obj
 0002:00006a50       _COLUMN_SCALE              00458a50     uuid:vcguids.obj
 0002:00006a68       _COLUMN_SEARCHABLE         00458a68     uuid:vcguids.obj
 0002:00006a80       _COLUMN_TYPE               00458a80     uuid:vcguids.obj
 0002:00006a98       _COLUMN_UNIQUE             00458a98     uuid:vcguids.obj
 0002:00006ab0       _COLUMN_UPDATABLE          00458ab0     uuid:vcguids.obj
 0002:00006ac8       _COLUMN_VERSION            00458ac8     uuid:vcguids.obj
 0002:00006ae0       _COLUMN_STATUS             00458ae0     uuid:vcguids.obj
 0002:00006af8       _COLUMN_BMKTEMPORARY       00458af8     uuid:vcguids.obj
 0002:00006b10       _COLUMN_BMKTEMPORARYREL    00458b10     uuid:vcguids.obj
 0002:00006b28       _COLUMN_BMKCURSOR          00458b28     uuid:vcguids.obj
 0002:00006b40       _COLUMN_BMKCURSORREL       00458b40     uuid:vcguids.obj
 0002:00006b58       _COLUMN_BMKSESSION         00458b58     uuid:vcguids.obj
 0002:00006b70       _COLUMN_BMKSESSIONREL      00458b70     uuid:vcguids.obj
 0002:00006b88       _COLUMN_BMKPERSIST         00458b88     uuid:vcguids.obj
 0002:00006ba0       _COLUMN_BMKPERSISTREL      00458ba0     uuid:vcguids.obj
 0002:00006bb8       _DBBMK_INVALID             00458bb8     uuid:vcguids.obj
 0002:00006bbc       _DBBMK_CURRENT             00458bbc     uuid:vcguids.obj
 0002:00006bc0       _DBBMK_BEGINNING           00458bc0     uuid:vcguids.obj
 0002:00006bc4       _DBBMK_END                 00458bc4     uuid:vcguids.obj
 0002:00006bc8       _IID_ISequentialStream     00458bc8     uuid:objidl_i_guid17.obj
 0002:00006bd8       _IID_IBoundObject          00458bd8     uuid:cguid_i_guid90.obj
 0002:00006be8       _IID_IPersistStream        00458be8     uuid:objidl_i_guid13.obj
 0002:00006bf8       _IID_IViewObject2          00458bf8     uuid:oleidl_i_guid18.obj
 0002:00006c08       _IID_IOleLink              00458c08     uuid:oleidl_i_guid9.obj
 0002:00006c18       _IID_IPersistFile          00458c18     uuid:objidl_i_guid21.obj
 0002:00006c28       _IID_IMessageFilter        00458c28     uuid:objidl_i_guid33.obj
 0002:00006c38       _IID_IDataObject           00458c38     uuid:objidl_i_guid31.obj
 0002:00006c48       _IID_IEnumFORMATETC        00458c48     uuid:objidl_i_guid24.obj
 0002:00006c58       ?_Fpz@std@@3_JB            00458c58     libcpmt:ios.obj
 0002:00006c64       ??_7failure@ios_base@std@@6B@ 00458c64     libcpmt:ios.obj
 0002:00006c70       ??_C@_0BA@NGIA@ios?3?3eofbit?5set?$AA@ 00458c70     libcpmt:ios.obj
 0002:00006c80       ??_C@_0BB@KPBH@ios?3?3failbit?5set?$AA@ 00458c80     libcpmt:ios.obj
 0002:00006c94       ??_C@_0BA@HGGD@ios?3?3badbit?5set?$AA@ 00458c94     libcpmt:ios.obj
 0002:00006ca8       ??_7runtime_error@std@@6B@ 00458ca8     libcpmt:ios.obj
 0002:00006cb8       ??_7ios_base@std@@6B@      00458cb8     libcpmt:ios.obj
 0002:00006cc0       ??_7?$basic_istream@DU?$char_traits@D@std@@@std@@6B@ 00458cc0     libcpmt:iostream.obj
 0002:00006cc8       ??_7?$basic_ostream@DU?$char_traits@D@std@@@std@@6B@ 00458cc8     libcpmt:iostream.obj
 0002:00006cd0       ??_7?$basic_ios@DU?$char_traits@D@std@@@std@@6B@ 00458cd0     libcpmt:iostream.obj
 0002:00006cd4       ??_8?$basic_ostream@DU?$char_traits@D@std@@@std@@7B@ 00458cd4     libcpmt:iostream.obj
 0002:00006cdc       ??_8?$basic_istream@DU?$char_traits@D@std@@@std@@7B@ 00458cdc     libcpmt:iostream.obj
 0002:00006ce8       ??_7?$basic_filebuf@DU?$char_traits@D@std@@@std@@6B@ 00458ce8     libcpmt:iostream.obj
 0002:00006d20       ??_7?$basic_streambuf@DU?$char_traits@D@std@@@std@@6B@ 00458d20     libcpmt:iostream.obj
 0002:00006d54       ?table_size@?$ctype@D@std@@2IB 00458d54     libcpmt:locale0.obj
 0002:00006d58       ??_C@_01FDHG@?$CK?$AA@     00458d58     libcpmt:locale0.obj
 0002:00006d60       ??_7_Locimp@locale@std@@6B@ 00458d60     libcpmt:locale0.obj
 0002:00006d68       ??_7facet@locale@std@@6B@  00458d68     libcpmt:locale0.obj
 0002:00006d70       ??_7length_error@std@@6B@  00458d70     libcpmt:string.obj
 0002:00006d7c       ??_C@_0BA@HHMB@string?5too?5long?$AA@ 00458d7c     libcpmt:string.obj
 0002:00006d90       ??_7logic_error@std@@6B@   00458d90     libcpmt:string.obj
 0002:00006da0       ??_7out_of_range@std@@6B@  00458da0     libcpmt:string.obj
 0002:00006dac       ??_C@_0BI@EEBE@invalid?5string?5position?$AA@ 00458dac     libcpmt:string.obj
 0002:00006dc8       ??_7?$basic_istream@GU?$char_traits@G@std@@@std@@6B@ 00458dc8     libcpmt:wiostrea.obj
 0002:00006dd0       ??_7?$basic_ostream@GU?$char_traits@G@std@@@std@@6B@ 00458dd0     libcpmt:wiostrea.obj
 0002:00006dd8       ??_7?$basic_ios@GU?$char_traits@G@std@@@std@@6B@ 00458dd8     libcpmt:wiostrea.obj
 0002:00006ddc       ??_8?$basic_ostream@GU?$char_traits@G@std@@@std@@7B@ 00458ddc     libcpmt:wiostrea.obj
 0002:00006de4       ??_8?$basic_istream@GU?$char_traits@G@std@@@std@@7B@ 00458de4     libcpmt:wiostrea.obj
 0002:00006df0       ??_7?$basic_filebuf@GU?$char_traits@G@std@@@std@@6B@ 00458df0     libcpmt:wiostrea.obj
 0002:00006e28       ??_7?$basic_streambuf@GU?$char_traits@G@std@@@std@@6B@ 00458e28     libcpmt:wiostrea.obj
 0002:00006e5c       ?nothrow@std@@3Unothrow_t@1@B 00458e5c     libcpmt:nomemory.obj
 0002:00006e60       _mpctcdef                  00458e60     ctl3d32s:CTL3D.OBJ
 0002:00006f20       _mpicvSysColor             00458f20     ctl3d32s:CTL3D.OBJ
 0002:00006f30       ??_R1A@?0A@A@CObject@@8    00458f30     nafxcw:dlgcore.obj
 0002:00006f48       ??_R1A@?0A@A@CCmdTarget@@8 00458f48     nafxcw:dlgcore.obj
 0002:00006f60       ??_R1A@?0A@A@CWnd@@8       00458f60     nafxcw:dlgcore.obj
 0002:00006f78       ??_R1A@?0A@A@CDialog@@8    00458f78     nafxcw:dlgcore.obj
 0002:00006f90       ??_R2CDialog@@8            00458f90     nafxcw:dlgcore.obj
 0002:00006fa8       ??_R3CDialog@@8            00458fa8     nafxcw:dlgcore.obj
 0002:00006fb8       ??_R4CDialog@@6B@          00458fb8     nafxcw:dlgcore.obj
 0002:00006fd0       ??_R1A@?0A@A@CButton@@8    00458fd0     nafxcw:winctrl1.obj
 0002:00006fe8       ??_R2CButton@@8            00458fe8     nafxcw:winctrl1.obj
 0002:00007000       ??_R3CButton@@8            00459000     nafxcw:winctrl1.obj
 0002:00007010       ??_R4CButton@@6B@          00459010     nafxcw:winctrl1.obj
 0002:00007028       ??_R1A@?0A@A@CListBox@@8   00459028     nafxcw:winctrl1.obj
 0002:00007040       ??_R2CListBox@@8           00459040     nafxcw:winctrl1.obj
 0002:00007058       ??_R3CListBox@@8           00459058     nafxcw:winctrl1.obj
 0002:00007068       ??_R4CListBox@@6B@         00459068     nafxcw:winctrl1.obj
 0002:00007080       ??_R2CWnd@@8               00459080     nafxcw:wincore.obj
 0002:00007090       ??_R3CWnd@@8               00459090     nafxcw:wincore.obj
 0002:000070a0       ??_R4CWnd@@6B@             004590a0     nafxcw:wincore.obj
 0002:000070b8       ??_R1A@?0A@A@CCmdUI@@8     004590b8     nafxcw:wincore.obj
 0002:000070d0       ??_R1A@?0A@A@CTestCmdUI@@8 004590d0     nafxcw:wincore.obj
 0002:000070e8       ??_R2CTestCmdUI@@8         004590e8     nafxcw:wincore.obj
 0002:000070f8       ??_R3CTestCmdUI@@8         004590f8     nafxcw:wincore.obj
 0002:00007108       ??_R4CTestCmdUI@@6B@       00459108     nafxcw:wincore.obj
 0002:00007120       ??_R1A@?0A@A@CTempWnd@@8   00459120     nafxcw:wincore.obj
 0002:00007138       ??_R2CTempWnd@@8           00459138     nafxcw:wincore.obj
 0002:00007150       ??_R3CTempWnd@@8           00459150     nafxcw:wincore.obj
 0002:00007160       ??_R4CTempWnd@@6B@         00459160     nafxcw:wincore.obj
 0002:00007178       ??_R1A@?0A@A@CNoTrackObject@@8 00459178     nafxcw:wincore.obj
 0002:00007190       ??_R1A@?0A@A@_AFX_CTL3D_STATE@@8 00459190     nafxcw:wincore.obj
 0002:000071a8       ??_R2_AFX_CTL3D_STATE@@8   004591a8     nafxcw:wincore.obj
 0002:000071b8       ??_R3_AFX_CTL3D_STATE@@8   004591b8     nafxcw:wincore.obj
 0002:000071c8       ??_R4_AFX_CTL3D_STATE@@6B@ 004591c8     nafxcw:wincore.obj
 0002:000071dc       ??_R2CCmdUI@@8             004591dc     nafxcw:cmdtarg.obj
 0002:000071e8       ??_R3CCmdUI@@8             004591e8     nafxcw:cmdtarg.obj
 0002:000071f8       ??_R4CCmdUI@@6B@           004591f8     nafxcw:cmdtarg.obj
 0002:00007210       ??_R1A@?0A@A@CRgn@@8       00459210     nafxcw:winctrl2.obj
 0002:00007228       ??_R2CRgn@@8               00459228     nafxcw:winctrl2.obj
 0002:00007238       ??_R3CRgn@@8               00459238     nafxcw:winctrl2.obj
 0002:00007248       ??_R4CRgn@@6B@             00459248     nafxcw:winctrl2.obj
 0002:00007260       ??_R1A@?0A@A@CGdiObject@@8 00459260     nafxcw:winctrl2.obj
 0002:00007278       ??_R2CGdiObject@@8         00459278     nafxcw:winctrl2.obj
 0002:00007288       ??_R3CGdiObject@@8         00459288     nafxcw:winctrl2.obj
 0002:00007298       ??_R4CGdiObject@@6B@       00459298     nafxcw:winctrl2.obj
 0002:000072b0       ??_R1A@?0A@A@CProgressCtrl@@8 004592b0     nafxcw:winctrl2.obj
 0002:000072c8       ??_R2CProgressCtrl@@8      004592c8     nafxcw:winctrl2.obj
 0002:000072e0       ??_R3CProgressCtrl@@8      004592e0     nafxcw:winctrl2.obj
 0002:000072f0       ??_R4CProgressCtrl@@6B@    004592f0     nafxcw:winctrl2.obj
 0002:00007308       ??_R1A@?0A@A@IParseDisplayName@@8 00459308     nafxcw:occcont.obj
 0002:00007320       ??_R1A@?0A@A@IOleContainer@@8 00459320     nafxcw:occcont.obj
 0002:00007338       ??_R1A@?0A@A@XOleContainer@COleControlContainer@@8 00459338     nafxcw:occcont.obj
 0002:00007350       ??_R2XOleContainer@COleControlContainer@@8 00459350     nafxcw:occcont.obj
 0002:00007368       ??_R3XOleContainer@COleControlContainer@@8 00459368     nafxcw:occcont.obj
 0002:00007378       ??_R4XOleContainer@COleControlContainer@@6B@ 00459378     nafxcw:occcont.obj
 0002:00007390       ??_R1A@?0A@A@IUnknown@@8   00459390     nafxcw:occcont.obj
 0002:000073a8       ??_R1A@?0A@A@IOleWindow@@8 004593a8     nafxcw:occcont.obj
 0002:000073c0       ??_R1A@?0A@A@IOleInPlaceUIWindow@@8 004593c0     nafxcw:occcont.obj
 0002:000073d8       ??_R1A@?0A@A@IOleInPlaceFrame@@8 004593d8     nafxcw:occcont.obj
 0002:000073f0       ??_R1A@?0A@A@XOleIPFrame@COleControlContainer@@8 004593f0     nafxcw:occcont.obj
 0002:00007408       ??_R2XOleIPFrame@COleControlContainer@@8 00459408     nafxcw:occcont.obj
 0002:00007420       ??_R3XOleIPFrame@COleControlContainer@@8 00459420     nafxcw:occcont.obj
 0002:00007430       ??_R4XOleIPFrame@COleControlContainer@@6B@ 00459430     nafxcw:occcont.obj
 0002:00007448       ??_R1A@?0A@A@COleControlContainer@@8 00459448     nafxcw:occcont.obj
 0002:00007460       ??_R2COleControlContainer@@8 00459460     nafxcw:occcont.obj
 0002:00007470       ??_R3COleControlContainer@@8 00459470     nafxcw:occcont.obj
 0002:00007480       ??_R4COleControlContainer@@6B@ 00459480     nafxcw:occcont.obj
 0002:00007498       ??_R1A@?0A@A@CFont@@8      00459498     nafxcw:occcont.obj
 0002:000074b0       ??_R2CFont@@8              004594b0     nafxcw:occcont.obj
 0002:000074c0       ??_R3CFont@@8              004594c0     nafxcw:occcont.obj
 0002:000074d0       ??_R4CFont@@6B@            004594d0     nafxcw:occcont.obj
 0002:000074e8       ??_R1A@?0A@A@CEnumArray@@8 004594e8     nafxcw:occcont.obj
 0002:00007500       ??_R1A@?0A@A@CEnumUnknown@@8 00459500     nafxcw:occcont.obj
 0002:00007518       ??_R2CEnumUnknown@@8       00459518     nafxcw:occcont.obj
 0002:00007530       ??_R3CEnumUnknown@@8       00459530     nafxcw:occcont.obj
 0002:00007540       ??_R4CEnumUnknown@@6B@     00459540     nafxcw:occcont.obj
 0002:00007558       ??_R1A@?0A@A@CDC@@8        00459558     nafxcw:wingdi.obj
 0002:00007570       ??_R2CDC@@8                00459570     nafxcw:wingdi.obj
 0002:00007580       ??_R3CDC@@8                00459580     nafxcw:wingdi.obj
 0002:00007590       ??_R4CDC@@6B@              00459590     nafxcw:wingdi.obj
 0002:000075a8       ??_R1A@?0A@A@CClientDC@@8  004595a8     nafxcw:wingdi.obj
 0002:000075c0       ??_R2CClientDC@@8          004595c0     nafxcw:wingdi.obj
 0002:000075d0       ??_R3CClientDC@@8          004595d0     nafxcw:wingdi.obj
 0002:000075e0       ??_R4CClientDC@@6B@        004595e0     nafxcw:wingdi.obj
 0002:000075f8       ??_R1A@?0A@A@CWindowDC@@8  004595f8     nafxcw:wingdi.obj
 0002:00007610       ??_R2CWindowDC@@8          00459610     nafxcw:wingdi.obj
 0002:00007620       ??_R3CWindowDC@@8          00459620     nafxcw:wingdi.obj
 0002:00007630       ??_R4CWindowDC@@6B@        00459630     nafxcw:wingdi.obj
 0002:00007648       ??_R1A@?0A@A@CPaintDC@@8   00459648     nafxcw:wingdi.obj
 0002:00007660       ??_R2CPaintDC@@8           00459660     nafxcw:wingdi.obj
 0002:00007670       ??_R3CPaintDC@@8           00459670     nafxcw:wingdi.obj
 0002:00007680       ??_R4CPaintDC@@6B@         00459680     nafxcw:wingdi.obj
 0002:00007698       ??_R1A@?0A@A@CPen@@8       00459698     nafxcw:wingdi.obj
 0002:000076b0       ??_R2CPen@@8               004596b0     nafxcw:wingdi.obj
 0002:000076c0       ??_R3CPen@@8               004596c0     nafxcw:wingdi.obj
 0002:000076d0       ??_R4CPen@@6B@             004596d0     nafxcw:wingdi.obj
 0002:000076e8       ??_R1A@?0A@A@CBrush@@8     004596e8     nafxcw:wingdi.obj
 0002:00007700       ??_R2CBrush@@8             00459700     nafxcw:wingdi.obj
 0002:00007710       ??_R3CBrush@@8             00459710     nafxcw:wingdi.obj
 0002:00007720       ??_R4CBrush@@6B@           00459720     nafxcw:wingdi.obj
 0002:00007738       ??_R1A@?0A@A@CTempDC@@8    00459738     nafxcw:wingdi.obj
 0002:00007750       ??_R2CTempDC@@8            00459750     nafxcw:wingdi.obj
 0002:00007760       ??_R3CTempDC@@8            00459760     nafxcw:wingdi.obj
 0002:00007770       ??_R4CTempDC@@6B@          00459770     nafxcw:wingdi.obj
 0002:00007788       ??_R1A@?0A@A@CTempGdiObject@@8 00459788     nafxcw:wingdi.obj
 0002:000077a0       ??_R2CTempGdiObject@@8     004597a0     nafxcw:wingdi.obj
 0002:000077b0       ??_R3CTempGdiObject@@8     004597b0     nafxcw:wingdi.obj
 0002:000077c0       ??_R4CTempGdiObject@@6B@   004597c0     nafxcw:wingdi.obj
 0002:000077d8       ??_R1A@?0A@A@CException@@8 004597d8     nafxcw:wingdi.obj
 0002:000077f0       ??_R1A@?0A@A@CSimpleException@@8 004597f0     nafxcw:wingdi.obj
 0002:00007808       ??_R1A@?0A@A@CResourceException@@8 00459808     nafxcw:wingdi.obj
 0002:00007820       ??_R2CResourceException@@8 00459820     nafxcw:wingdi.obj
 0002:00007838       ??_R3CResourceException@@8 00459838     nafxcw:wingdi.obj
 0002:00007848       ??_R4CResourceException@@6B@ 00459848     nafxcw:wingdi.obj
 0002:00007860       ??_R1A@?0A@A@CUserException@@8 00459860     nafxcw:wingdi.obj
 0002:00007878       ??_R2CUserException@@8     00459878     nafxcw:wingdi.obj
 0002:00007890       ??_R3CUserException@@8     00459890     nafxcw:wingdi.obj
 0002:000078a0       ??_R4CUserException@@6B@   004598a0     nafxcw:wingdi.obj
 0002:000078b8       ??_R1A@?0A@A@_AFX_THREAD_STATE@@8 004598b8     nafxcw:afxstate.obj
 0002:000078d0       ??_R2_AFX_THREAD_STATE@@8  004598d0     nafxcw:afxstate.obj
 0002:000078e0       ??_R3_AFX_THREAD_STATE@@8  004598e0     nafxcw:afxstate.obj
 0002:000078f0       ??_R4_AFX_THREAD_STATE@@6B@ 004598f0     nafxcw:afxstate.obj
 0002:00007908       ??_R1A@?0A@A@AFX_MODULE_STATE@@8 00459908     nafxcw:afxstate.obj
 0002:00007920       ??_R2AFX_MODULE_STATE@@8   00459920     nafxcw:afxstate.obj
 0002:00007930       ??_R3AFX_MODULE_STATE@@8   00459930     nafxcw:afxstate.obj
 0002:00007940       ??_R4AFX_MODULE_STATE@@6B@ 00459940     nafxcw:afxstate.obj
 0002:00007958       ??_R1A@?0A@A@AFX_MODULE_THREAD_STATE@@8 00459958     nafxcw:afxstate.obj
 0002:00007970       ??_R2AFX_MODULE_THREAD_STATE@@8 00459970     nafxcw:afxstate.obj
 0002:00007980       ??_R3AFX_MODULE_THREAD_STATE@@8 00459980     nafxcw:afxstate.obj
 0002:00007990       ??_R4AFX_MODULE_THREAD_STATE@@6B@ 00459990     nafxcw:afxstate.obj
 0002:000079a8       ??_R1A@?0A@A@_AFX_BASE_MODULE_STATE@@8 004599a8     nafxcw:afxstate.obj
 0002:000079c0       ??_R2_AFX_BASE_MODULE_STATE@@8 004599c0     nafxcw:afxstate.obj
 0002:000079d0       ??_R3_AFX_BASE_MODULE_STATE@@8 004599d0     nafxcw:afxstate.obj
 0002:000079e0       ??_R4_AFX_BASE_MODULE_STATE@@6B@ 004599e0     nafxcw:afxstate.obj
 0002:000079f8       ??_R1A@?0A@A@CWinThread@@8 004599f8     nafxcw:thrdcore.obj
 0002:00007a10       ??_R2CWinThread@@8         00459a10     nafxcw:thrdcore.obj
 0002:00007a20       ??_R3CWinThread@@8         00459a20     nafxcw:thrdcore.obj
 0002:00007a30       ??_R4CWinThread@@6B@       00459a30     nafxcw:thrdcore.obj
 0002:00007a48       ??_R1A@?0A@A@_AFX_CTL3D_THREAD@@8 00459a48     nafxcw:thrdcore.obj
 0002:00007a60       ??_R2_AFX_CTL3D_THREAD@@8  00459a60     nafxcw:thrdcore.obj
 0002:00007a70       ??_R3_AFX_CTL3D_THREAD@@8  00459a70     nafxcw:thrdcore.obj
 0002:00007a80       ??_R4_AFX_CTL3D_THREAD@@6B@ 00459a80     nafxcw:thrdcore.obj
 0002:00007a98       ??_R1A@?0A@A@CMonthCalCtrl@@8 00459a98     nafxcw:winctrl5.obj
 0002:00007ab0       ??_R2CMonthCalCtrl@@8      00459ab0     nafxcw:winctrl5.obj
 0002:00007ac8       ??_R3CMonthCalCtrl@@8      00459ac8     nafxcw:winctrl5.obj
 0002:00007ad8       ??_R4CMonthCalCtrl@@6B@    00459ad8     nafxcw:winctrl5.obj
 0002:00007af0       ??_R1A@?0A@A@CFrameWnd@@8  00459af0     nafxcw:winfrm.obj
 0002:00007b08       ??_R2CFrameWnd@@8          00459b08     nafxcw:winfrm.obj
 0002:00007b20       ??_R3CFrameWnd@@8          00459b20     nafxcw:winfrm.obj
 0002:00007b30       ??_R4CFrameWnd@@6B@        00459b30     nafxcw:winfrm.obj
 0002:00007b48       ??_R1A@?0A@A@CControlBar@@8 00459b48     nafxcw:barstat.obj
 0002:00007b60       ??_R1A@?0A@A@CStatusBar@@8 00459b60     nafxcw:barstat.obj
 0002:00007b78       ??_R2CStatusBar@@8         00459b78     nafxcw:barstat.obj
 0002:00007b90       ??_R3CStatusBar@@8         00459b90     nafxcw:barstat.obj
 0002:00007ba0       ??_R4CStatusBar@@6B@       00459ba0     nafxcw:barstat.obj
 0002:00007bb8       ??_R1A@?0A@A@CStatusCmdUI@@8 00459bb8     nafxcw:barstat.obj
 0002:00007bd0       ??_R2CStatusCmdUI@@8       00459bd0     nafxcw:barstat.obj
 0002:00007be0       ??_R3CStatusCmdUI@@8       00459be0     nafxcw:barstat.obj
 0002:00007bf0       ??_R4CStatusCmdUI@@6B@     00459bf0     nafxcw:barstat.obj
 0002:00007c08       ??_R1A@?0A@A@CToolBar@@8   00459c08     nafxcw:bartool.obj
 0002:00007c20       ??_R2CToolBar@@8           00459c20     nafxcw:bartool.obj
 0002:00007c38       ??_R3CToolBar@@8           00459c38     nafxcw:bartool.obj
 0002:00007c48       ??_R4CToolBar@@6B@         00459c48     nafxcw:bartool.obj
 0002:00007c60       ??_R1A@?0A@A@CToolCmdUI@@8 00459c60     nafxcw:bartool.obj
 0002:00007c78       ??_R2CToolCmdUI@@8         00459c78     nafxcw:bartool.obj
 0002:00007c88       ??_R3CToolCmdUI@@8         00459c88     nafxcw:bartool.obj
 0002:00007c98       ??_R4CToolCmdUI@@6B@       00459c98     nafxcw:bartool.obj
 0002:00007cb0       ??_R1A@?0A@A@CDockBar@@8   00459cb0     nafxcw:bardock.obj
 0002:00007cc8       ??_R2CDockBar@@8           00459cc8     nafxcw:bardock.obj
 0002:00007ce0       ??_R3CDockBar@@8           00459ce0     nafxcw:bardock.obj
 0002:00007cf0       ??_R4CDockBar@@6B@         00459cf0     nafxcw:bardock.obj
 0002:00007d08       ??_R1A@?0A@A@CMiniFrameWnd@@8 00459d08     nafxcw:bardock.obj
 0002:00007d20       ??_R1A@?0A@A@CMiniDockFrameWnd@@8 00459d20     nafxcw:bardock.obj
 0002:00007d38       ??_R2CMiniDockFrameWnd@@8  00459d38     nafxcw:bardock.obj
 0002:00007d58       ??_R3CMiniDockFrameWnd@@8  00459d58     nafxcw:bardock.obj
 0002:00007d68       ??_R4CMiniDockFrameWnd@@6B@ 00459d68     nafxcw:bardock.obj
 0002:00007d80       ??_R1A@?0A@A@CFile@@8      00459d80     nafxcw:doccore.obj
 0002:00007d98       ??_R1A@?0A@A@CMirrorFile@@8 00459d98     nafxcw:doccore.obj
 0002:00007db0       ??_R2CMirrorFile@@8        00459db0     nafxcw:doccore.obj
 0002:00007dc0       ??_R3CMirrorFile@@8        00459dc0     nafxcw:doccore.obj
 0002:00007dd0       ??_R4CMirrorFile@@6B@      00459dd0     nafxcw:doccore.obj
 0002:00007de8       ??_R1A@?0A@A@CFileException@@8 00459de8     nafxcw:doccore.obj
 0002:00007e00       ??_R2CFileException@@8     00459e00     nafxcw:doccore.obj
 0002:00007e10       ??_R3CFileException@@8     00459e10     nafxcw:doccore.obj
 0002:00007e20       ??_R4CFileException@@6B@   00459e20     nafxcw:doccore.obj
 0002:00007e38       ??_R1A@?0A@A@_AFX_WIN_STATE@@8 00459e38     nafxcw:appcore.obj
 0002:00007e50       ??_R2_AFX_WIN_STATE@@8     00459e50     nafxcw:appcore.obj
 0002:00007e60       ??_R3_AFX_WIN_STATE@@8     00459e60     nafxcw:appcore.obj
 0002:00007e70       ??_R4_AFX_WIN_STATE@@6B@   00459e70     nafxcw:appcore.obj
 0002:00007e88       ??_R1A@?0A@A@CWinApp@@8    00459e88     nafxcw:appcore.obj
 0002:00007ea0       ??_R2CWinApp@@8            00459ea0     nafxcw:appcore.obj
 0002:00007eb8       ??_R3CWinApp@@8            00459eb8     nafxcw:appcore.obj
 0002:00007ec8       ??_R4CWinApp@@6B@          00459ec8     nafxcw:appcore.obj
 0002:00007ee0       ??_R1A@?0A@A@CCommandLineInfo@@8 00459ee0     nafxcw:appcore.obj
 0002:00007ef8       ??_R2CCommandLineInfo@@8   00459ef8     nafxcw:appcore.obj
 0002:00007f08       ??_R3CCommandLineInfo@@8   00459f08     nafxcw:appcore.obj
 0002:00007f18       ??_R4CCommandLineInfo@@6B@ 00459f18     nafxcw:appcore.obj
 0002:00007f30       ??_R1A@?0A@A@CDocTemplate@@8 00459f30     nafxcw:docsingl.obj
 0002:00007f48       ??_R1A@?0A@A@CSingleDocTemplate@@8 00459f48     nafxcw:docsingl.obj
 0002:00007f60       ??_R2CSingleDocTemplate@@8 00459f60     nafxcw:docsingl.obj
 0002:00007f78       ??_R3CSingleDocTemplate@@8 00459f78     nafxcw:docsingl.obj
 0002:00007f88       ??_R4CSingleDocTemplate@@6B@ 00459f88     nafxcw:docsingl.obj
 0002:00007fa0       ??_R1A@?0A@A@COccManager@@8 00459fa0     nafxcw:occmgr.obj
 0002:00007fb8       ??_R2COccManager@@8        00459fb8     nafxcw:occmgr.obj
 0002:00007fc8       ??_R3COccManager@@8        00459fc8     nafxcw:occmgr.obj
 0002:00007fd8       ??_R4COccManager@@6B@      00459fd8     nafxcw:occmgr.obj
 0002:00007ff0       ??_R1A@?0A@A@CView@@8      00459ff0     nafxcw:viewprev.obj
 0002:00008008       ??_R1A@?0A@A@CScrollView@@8 0045a008     nafxcw:viewprev.obj
 0002:00008020       ??_R1A@?0A@A@CPreviewView@@8 0045a020     nafxcw:viewprev.obj
 0002:00008038       ??_R2CPreviewView@@8       0045a038     nafxcw:viewprev.obj
 0002:00008058       ??_R3CPreviewView@@8       0045a058     nafxcw:viewprev.obj
 0002:00008068       ??_R4CPreviewView@@6B@     0045a068     nafxcw:viewprev.obj
 0002:00008080       ??_R1A@?0A@A@CPrintingDialog@@8 0045a080     nafxcw:viewprnt.obj
 0002:00008098       ??_R2CPrintingDialog@@8    0045a098     nafxcw:viewprnt.obj
 0002:000080b0       ??_R3CPrintingDialog@@8    0045a0b0     nafxcw:viewprnt.obj
 0002:000080c0       ??_R4CPrintingDialog@@6B@  0045a0c0     nafxcw:viewprnt.obj
 0002:000080d8       ??_R1A@?0A@A@CMemoryException@@8 0045a0d8     nafxcw:except.obj
 0002:000080f0       ??_R2CMemoryException@@8   0045a0f0     nafxcw:except.obj
 0002:00008108       ??_R3CMemoryException@@8   0045a108     nafxcw:except.obj
 0002:00008118       ??_R4CMemoryException@@6B@ 0045a118     nafxcw:except.obj
 0002:00008130       ??_R1A@?0A@A@CNotSupportedException@@8 0045a130     nafxcw:except.obj
 0002:00008148       ??_R2CNotSupportedException@@8 0045a148     nafxcw:except.obj
 0002:00008160       ??_R3CNotSupportedException@@8 0045a160     nafxcw:except.obj
 0002:00008170       ??_R4CNotSupportedException@@6B@ 0045a170     nafxcw:except.obj
 0002:00008188       ??_R1A@?0A@A@CThreadData@@8 0045a188     nafxcw:afxtls.obj
 0002:000081a0       ??_R2CThreadData@@8        0045a1a0     nafxcw:afxtls.obj
 0002:000081b0       ??_R3CThreadData@@8        0045a1b0     nafxcw:afxtls.obj
 0002:000081c0       ??_R4CThreadData@@6B@      0045a1c0     nafxcw:afxtls.obj
 0002:000081d8       ??_R1A@?0A@A@CHandleMap@@8 0045a1d8     nafxcw:winhand.obj
 0002:000081f0       ??_R2CHandleMap@@8         0045a1f0     nafxcw:winhand.obj
 0002:000081f8       ??_R3CHandleMap@@8         0045a1f8     nafxcw:winhand.obj
 0002:00008208       ??_R4CHandleMap@@6B@       0045a208     nafxcw:winhand.obj
 0002:00008220       ??_R1A@?0A@A@CMapPtrToPtr@@8 0045a220     nafxcw:map_pp.obj
 0002:00008238       ??_R2CMapPtrToPtr@@8       0045a238     nafxcw:map_pp.obj
 0002:00008248       ??_R3CMapPtrToPtr@@8       0045a248     nafxcw:map_pp.obj
 0002:00008258       ??_R4CMapPtrToPtr@@6B@     0045a258     nafxcw:map_pp.obj
 0002:00008270       ??_R1A@?0A@A@CMenu@@8      0045a270     nafxcw:winmenu.obj
 0002:00008288       ??_R2CMenu@@8              0045a288     nafxcw:winmenu.obj
 0002:00008298       ??_R3CMenu@@8              0045a298     nafxcw:winmenu.obj
 0002:000082a8       ??_R4CMenu@@6B@            0045a2a8     nafxcw:winmenu.obj
 0002:000082c0       ??_R1A@?0A@A@CTempMenu@@8  0045a2c0     nafxcw:winmenu.obj
 0002:000082d8       ??_R2CTempMenu@@8          0045a2d8     nafxcw:winmenu.obj
 0002:000082e8       ??_R3CTempMenu@@8          0045a2e8     nafxcw:winmenu.obj
 0002:000082f8       ??_R4CTempMenu@@6B@        0045a2f8     nafxcw:winmenu.obj
 0002:00008310       ??_R1A@?0A@A@ISequentialStream@@8 0045a310     nafxcw:arcstrm.obj
 0002:00008328       ??_R1A@?0A@A@IStream@@8    0045a328     nafxcw:arcstrm.obj
 0002:00008340       ??_R1A@?0A@A@CArchiveStream@@8 0045a340     nafxcw:arcstrm.obj
 0002:00008358       ??_R2CArchiveStream@@8     0045a358     nafxcw:arcstrm.obj
 0002:00008370       ??_R3CArchiveStream@@8     0045a370     nafxcw:arcstrm.obj
 0002:00008380       ??_R4CArchiveStream@@6B@   0045a380     nafxcw:arcstrm.obj
 0002:00008398       ??_R1A@?0A@A@IRowsetNotify@@8 0045a398     nafxcw:occsite.obj
 0002:000083b0       ??_R1A@?0A@A@XRowsetNotify@COleControlSite@@8 0045a3b0     nafxcw:occsite.obj
 0002:000083c8       ??_R2XRowsetNotify@COleControlSite@@8 0045a3c8     nafxcw:occsite.obj
 0002:000083d8       ??_R3XRowsetNotify@COleControlSite@@8 0045a3d8     nafxcw:occsite.obj
 0002:000083e8       ??_R4XRowsetNotify@COleControlSite@@6B@ 0045a3e8     nafxcw:occsite.obj
 0002:00008400       ??_R1A@?0A@A@INotifyDBEvents@@8 0045a400     nafxcw:occsite.obj
 0002:00008418       ??_R1A@?0A@A@XNotifyDBEvents@COleControlSite@@8 0045a418     nafxcw:occsite.obj
 0002:00008430       ??_R2XNotifyDBEvents@COleControlSite@@8 0045a430     nafxcw:occsite.obj
 0002:00008440       ??_R3XNotifyDBEvents@COleControlSite@@8 0045a440     nafxcw:occsite.obj
 0002:00008450       ??_R4XNotifyDBEvents@COleControlSite@@6B@ 0045a450     nafxcw:occsite.obj
 0002:00008468       ??_R1A@?0A@A@IBoundObjectSite@@8 0045a468     nafxcw:occsite.obj
 0002:00008480       ??_R1A@?0A@A@XBoundObjectSite@COleControlSite@@8 0045a480     nafxcw:occsite.obj
 0002:00008498       ??_R2XBoundObjectSite@COleControlSite@@8 0045a498     nafxcw:occsite.obj
 0002:000084a8       ??_R3XBoundObjectSite@COleControlSite@@8 0045a4a8     nafxcw:occsite.obj
 0002:000084b8       ??_R4XBoundObjectSite@COleControlSite@@6B@ 0045a4b8     nafxcw:occsite.obj
 0002:000084d0       ??_R1A@?0A@A@XEventSink@COleControlSite@@8 0045a4d0     nafxcw:occsite.obj
 0002:000084e8       ??_R2XEventSink@COleControlSite@@8 0045a4e8     nafxcw:occsite.obj
 0002:000084f8       ??_R3XEventSink@COleControlSite@@8 0045a4f8     nafxcw:occsite.obj
 0002:00008508       ??_R4XEventSink@COleControlSite@@6B@ 0045a508     nafxcw:occsite.obj
 0002:00008520       ??_R1A@?0A@A@IPropertyNotifySink@@8 0045a520     nafxcw:occsite.obj
 0002:00008538       ??_R1A@?0A@A@XPropertyNotifySink@COleControlSite@@8 0045a538     nafxcw:occsite.obj
 0002:00008550       ??_R2XPropertyNotifySink@COleControlSite@@8 0045a550     nafxcw:occsite.obj
 0002:00008560       ??_R3XPropertyNotifySink@COleControlSite@@8 0045a560     nafxcw:occsite.obj
 0002:00008570       ??_R4XPropertyNotifySink@COleControlSite@@6B@ 0045a570     nafxcw:occsite.obj
 0002:00008588       ??_R1A@?0A@A@IDispatch@@8  0045a588     nafxcw:occsite.obj
 0002:000085a0       ??_R1A@?0A@A@XAmbientProps@COleControlSite@@8 0045a5a0     nafxcw:occsite.obj
 0002:000085b8       ??_R2XAmbientProps@COleControlSite@@8 0045a5b8     nafxcw:occsite.obj
 0002:000085c8       ??_R3XAmbientProps@COleControlSite@@8 0045a5c8     nafxcw:occsite.obj
 0002:000085d8       ??_R4XAmbientProps@COleControlSite@@6B@ 0045a5d8     nafxcw:occsite.obj
 0002:000085f0       ??_R1A@?0A@A@IOleControlSite@@8 0045a5f0     nafxcw:occsite.obj
 0002:00008608       ??_R1A@?0A@A@XOleControlSite@COleControlSite@@8 0045a608     nafxcw:occsite.obj
 0002:00008620       ??_R2XOleControlSite@COleControlSite@@8 0045a620     nafxcw:occsite.obj
 0002:00008630       ??_R3XOleControlSite@COleControlSite@@8 0045a630     nafxcw:occsite.obj
 0002:00008640       ??_R4XOleControlSite@COleControlSite@@6B@ 0045a640     nafxcw:occsite.obj
 0002:00008658       ??_R1A@?0A@A@IOleInPlaceSite@@8 0045a658     nafxcw:occsite.obj
 0002:00008670       ??_R1A@?0A@A@XOleIPSite@COleControlSite@@8 0045a670     nafxcw:occsite.obj
 0002:00008688       ??_R2XOleIPSite@COleControlSite@@8 0045a688     nafxcw:occsite.obj
 0002:000086a0       ??_R3XOleIPSite@COleControlSite@@8 0045a6a0     nafxcw:occsite.obj
 0002:000086b0       ??_R4XOleIPSite@COleControlSite@@6B@ 0045a6b0     nafxcw:occsite.obj
 0002:000086c8       ??_R1A@?0A@A@IOleClientSite@@8 0045a6c8     nafxcw:occsite.obj
 0002:000086e0       ??_R1A@?0A@A@XOleClientSite@COleControlSite@@8 0045a6e0     nafxcw:occsite.obj
 0002:000086f8       ??_R2XOleClientSite@COleControlSite@@8 0045a6f8     nafxcw:occsite.obj
 0002:00008708       ??_R3XOleClientSite@COleControlSite@@8 0045a708     nafxcw:occsite.obj
 0002:00008718       ??_R4XOleClientSite@COleControlSite@@6B@ 0045a718     nafxcw:occsite.obj
 0002:00008730       ??_R1A@?0A@A@COleControlSite@@8 0045a730     nafxcw:occsite.obj
 0002:00008748       ??_R2COleControlSite@@8    0045a748     nafxcw:occsite.obj
 0002:00008758       ??_R3COleControlSite@@8    0045a758     nafxcw:occsite.obj
 0002:00008768       ??_R4COleControlSite@@6B@  0045a768     nafxcw:occsite.obj
 0002:00008780       ??_R1A@?0A@A@CDataSourceControl@@8 0045a780     nafxcw:occsite.obj
 0002:00008798       ??_R2CDataSourceControl@@8 0045a798     nafxcw:occsite.obj
 0002:000087a0       ??_R3CDataSourceControl@@8 0045a7a0     nafxcw:occsite.obj
 0002:000087b0       ??_R4CDataSourceControl@@6B@ 0045a7b0     nafxcw:occsite.obj
 0002:000087c8       ??_R1A@?0A@A@COleDispatchException@@8 0045a7c8     nafxcw:oledisp1.obj
 0002:000087e0       ??_R2COleDispatchException@@8 0045a7e0     nafxcw:oledisp1.obj
 0002:000087f0       ??_R3COleDispatchException@@8 0045a7f0     nafxcw:oledisp1.obj
 0002:00008800       ??_R4COleDispatchException@@6B@ 0045a800     nafxcw:oledisp1.obj
 0002:00008818       ??_R1A@?0A@A@IEnumVOID@@8  0045a818     nafxcw:oleenum.obj
 0002:00008830       ??_R1A@?0A@A@XEnumVOID@CEnumArray@@8 0045a830     nafxcw:oleenum.obj
 0002:00008848       ??_R2XEnumVOID@CEnumArray@@8 0045a848     nafxcw:oleenum.obj
 0002:00008858       ??_R3XEnumVOID@CEnumArray@@8 0045a858     nafxcw:oleenum.obj
 0002:00008868       ??_R4XEnumVOID@CEnumArray@@6B@ 0045a868     nafxcw:oleenum.obj
 0002:00008880       ??_R2CEnumArray@@8         0045a880     nafxcw:oleenum.obj
 0002:00008890       ??_R3CEnumArray@@8         0045a890     nafxcw:oleenum.obj
 0002:000088a0       ??_R4CEnumArray@@6B@       0045a8a0     nafxcw:oleenum.obj
 0002:000088b8       ??_R1A@?0A@A@CDocManager@@8 0045a8b8     nafxcw:docmgr.obj
 0002:000088d0       ??_R2CDocManager@@8        0045a8d0     nafxcw:docmgr.obj
 0002:000088e0       ??_R3CDocManager@@8        0045a8e0     nafxcw:docmgr.obj
 0002:000088f0       ??_R4CDocManager@@6B@      0045a8f0     nafxcw:docmgr.obj
 0002:00008908       ??_R1A@?0A@A@CNewTypeDlg@@8 0045a908     nafxcw:docmgr.obj
 0002:00008920       ??_R2CNewTypeDlg@@8        0045a920     nafxcw:docmgr.obj
 0002:00008938       ??_R3CNewTypeDlg@@8        0045a938     nafxcw:docmgr.obj
 0002:00008948       ??_R4CNewTypeDlg@@6B@      0045a948     nafxcw:docmgr.obj
 0002:00008960       ??_R1A@?0A@A@CPtrList@@8   0045a960     nafxcw:list_p.obj
 0002:00008978       ??_R2CPtrList@@8           0045a978     nafxcw:list_p.obj
 0002:00008988       ??_R3CPtrList@@8           0045a988     nafxcw:list_p.obj
 0002:00008998       ??_R4CPtrList@@6B@         0045a998     nafxcw:list_p.obj
 0002:000089b0       ??_R1A@?0A@A@COleException@@8 0045a9b0     nafxcw:olemisc.obj
 0002:000089c8       ??_R2COleException@@8      0045a9c8     nafxcw:olemisc.obj
 0002:000089d8       ??_R3COleException@@8      0045a9d8     nafxcw:olemisc.obj
 0002:000089e8       ??_R4COleException@@6B@    0045a9e8     nafxcw:olemisc.obj
 0002:00008a00       ??_R1A@?0A@A@CMapStringToPtr@@8 0045aa00     nafxcw:map_sp.obj
 0002:00008a18       ??_R2CMapStringToPtr@@8    0045aa18     nafxcw:map_sp.obj
 0002:00008a28       ??_R3CMapStringToPtr@@8    0045aa28     nafxcw:map_sp.obj
 0002:00008a38       ??_R4CMapStringToPtr@@6B@  0045aa38     nafxcw:map_sp.obj
 0002:00008a50       ??_R2CMiniFrameWnd@@8      0045aa50     nafxcw:winmini.obj
 0002:00008a68       ??_R3CMiniFrameWnd@@8      0045aa68     nafxcw:winmini.obj
 0002:00008a78       ??_R4CMiniFrameWnd@@6B@    0045aa78     nafxcw:winmini.obj
 0002:00008a90       ??_R1A@?0A@A@CPtrArray@@8  0045aa90     nafxcw:array_p.obj
 0002:00008aa8       ??_R2CPtrArray@@8          0045aaa8     nafxcw:array_p.obj
 0002:00008ab8       ??_R3CPtrArray@@8          0045aab8     nafxcw:array_p.obj
 0002:00008ac8       ??_R4CPtrArray@@6B@        0045aac8     nafxcw:array_p.obj
 0002:00008ae0       ??_R1A@?0A@A@CDockContext@@8 0045aae0     nafxcw:dockcont.obj
 0002:00008af8       ??_R2CDockContext@@8       0045aaf8     nafxcw:dockcont.obj
 0002:00008b00       ??_R3CDockContext@@8       0045ab00     nafxcw:dockcont.obj
 0002:00008b10       ??_R4CDockContext@@6B@     0045ab10     nafxcw:dockcont.obj
 0002:00008b28       ??_R2CFile@@8              0045ab28     nafxcw:filecore.obj
 0002:00008b38       ??_R3CFile@@8              0045ab38     nafxcw:filecore.obj
 0002:00008b48       ??_R4CFile@@6B@            0045ab48     nafxcw:filecore.obj
 0002:00008b60       ??_R1A@?0A@A@CArchiveException@@8 0045ab60     nafxcw:arcex.obj
 0002:00008b78       ??_R2CArchiveException@@8  0045ab78     nafxcw:arcex.obj
 0002:00008b88       ??_R3CArchiveException@@8  0045ab88     nafxcw:arcex.obj
 0002:00008b98       ??_R4CArchiveException@@6B@ 0045ab98     nafxcw:arcex.obj
 0002:00008bb0       ??_R1A@?0A@A@CCommonDialog@@8 0045abb0     nafxcw:dlgprnt.obj
 0002:00008bc8       ??_R1A@?0A@A@CPrintDialog@@8 0045abc8     nafxcw:dlgprnt.obj
 0002:00008be0       ??_R2CPrintDialog@@8       0045abe0     nafxcw:dlgprnt.obj
 0002:00008c00       ??_R3CPrintDialog@@8       0045ac00     nafxcw:dlgprnt.obj
 0002:00008c10       ??_R4CPrintDialog@@6B@     0045ac10     nafxcw:dlgprnt.obj
 0002:00008c28       ??_R1A@?0A@A@CRecentFileList@@8 0045ac28     nafxcw:filelist.obj
 0002:00008c40       ??_R2CRecentFileList@@8    0045ac40     nafxcw:filelist.obj
 0002:00008c48       ??_R3CRecentFileList@@8    0045ac48     nafxcw:filelist.obj
 0002:00008c58       ??_R4CRecentFileList@@6B@  0045ac58     nafxcw:filelist.obj
 0002:00008c70       ??_R1A@?0A@A@CMemFile@@8   0045ac70     nafxcw:filemem.obj
 0002:00008c88       ??_R2CMemFile@@8           0045ac88     nafxcw:filemem.obj
 0002:00008c98       ??_R3CMemFile@@8           0045ac98     nafxcw:filemem.obj
 0002:00008ca8       ??_R4CMemFile@@6B@         0045aca8     nafxcw:filemem.obj
 0002:00008cc0       ??_R2CScrollView@@8        0045acc0     nafxcw:viewscrl.obj
 0002:00008cd8       ??_R3CScrollView@@8        0045acd8     nafxcw:viewscrl.obj
 0002:00008ce8       ??_R4CScrollView@@6B@      0045ace8     nafxcw:viewscrl.obj
 0002:00008d00       ??_R1A@?0A@A@CDialogBar@@8 0045ad00     nafxcw:bardlg.obj
 0002:00008d18       ??_R2CDialogBar@@8         0045ad18     nafxcw:bardlg.obj
 0002:00008d30       ??_R3CDialogBar@@8         0045ad30     nafxcw:bardlg.obj
 0002:00008d40       ??_R4CDialogBar@@6B@       0045ad40     nafxcw:bardlg.obj
 0002:00008d58       ??_R1A@?0A@A@CPreviewDC@@8 0045ad58     nafxcw:dcprev.obj
 0002:00008d70       ??_R2CPreviewDC@@8         0045ad70     nafxcw:dcprev.obj
 0002:00008d80       ??_R3CPreviewDC@@8         0045ad80     nafxcw:dcprev.obj
 0002:00008d90       ??_R4CPreviewDC@@6B@       0045ad90     nafxcw:dcprev.obj
 0002:00008da8       ??_R1A@?0A@A@CFileDialog@@8 0045ada8     nafxcw:dlgfile.obj
 0002:00008dc0       ??_R2CFileDialog@@8        0045adc0     nafxcw:dlgfile.obj
 0002:00008de0       ??_R3CFileDialog@@8        0045ade0     nafxcw:dlgfile.obj
 0002:00008df0       ??_R4CFileDialog@@6B@      0045adf0     nafxcw:dlgfile.obj
 0002:00008e08       ??_R1A@?0A@A@CToolTipCtrl@@8 0045ae08     nafxcw:tooltip.obj
 0002:00008e20       ??_R2CToolTipCtrl@@8       0045ae20     nafxcw:tooltip.obj
 0002:00008e38       ??_R3CToolTipCtrl@@8       0045ae38     nafxcw:tooltip.obj
 0002:00008e48       ??_R4CToolTipCtrl@@6B@     0045ae48     nafxcw:tooltip.obj
 0002:00008e60       ??_R1A@?0A@A@COleMessageFilter@@8 0045ae60     nafxcw:olemsgf.obj
 0002:00008e78       ??_R2COleMessageFilter@@8  0045ae78     nafxcw:olemsgf.obj
 0002:00008e88       ??_R3COleMessageFilter@@8  0045ae88     nafxcw:olemsgf.obj
 0002:00008e98       ??_R4COleMessageFilter@@6B@ 0045ae98     nafxcw:olemsgf.obj
 0002:00008eb0       ??_R1A@?0A@A@IMessageFilter@@8 0045aeb0     nafxcw:olemsgf.obj
 0002:00008ec8       ??_R1A@?0A@A@XMessageFilter@COleMessageFilter@@8 0045aec8     nafxcw:olemsgf.obj
 0002:00008ee0       ??_R2XMessageFilter@COleMessageFilter@@8 0045aee0     nafxcw:olemsgf.obj
 0002:00008ef0       ??_R3XMessageFilter@COleMessageFilter@@8 0045aef0     nafxcw:olemsgf.obj
 0002:00008f00       ??_R4XMessageFilter@COleMessageFilter@@6B@ 0045af00     nafxcw:olemsgf.obj
 0002:00008f18       ??_R1A@?0A@A@COleDialog@@8 0045af18     nafxcw:oledlgs2.obj
 0002:00008f30       ??_R1A@?0A@A@COleBusyDialog@@8 0045af30     nafxcw:oledlgs2.obj
 0002:00008f48       ??_R2COleBusyDialog@@8     0045af48     nafxcw:oledlgs2.obj
 0002:00008f68       ??_R3COleBusyDialog@@8     0045af68     nafxcw:oledlgs2.obj
 0002:00008f78       ??_R4COleBusyDialog@@6B@   0045af78     nafxcw:oledlgs2.obj
 0002:00008f90       ??_R1A@?0A@A@_AFX_OLE_STATE@@8 0045af90     nafxcw:oledata.obj
 0002:00008fa8       ??_R2_AFX_OLE_STATE@@8     0045afa8     nafxcw:oledata.obj
 0002:00008fb8       ??_R3_AFX_OLE_STATE@@8     0045afb8     nafxcw:oledata.obj
 0002:00008fc8       ??_R4_AFX_OLE_STATE@@6B@   0045afc8     nafxcw:oledata.obj
 0002:00008fe0       ??_R1A@?0A@A@exception@@8  0045afe0     libcmt:stdexcpt.obj
 0002:00008ff8       ??_R2exception@@8          0045aff8     libcmt:stdexcpt.obj
 0002:00009000       ??_R3exception@@8          0045b000     libcmt:stdexcpt.obj
 0002:00009010       ??_R4exception@@6B@        0045b010     libcmt:stdexcpt.obj
 0002:00009028       ??_R1A@?0A@A@type_info@@8  0045b028     libcmt:typinfo.obj
 0002:00009040       ??_R2type_info@@8          0045b040     libcmt:typinfo.obj
 0002:00009048       ??_R3type_info@@8          0045b048     libcmt:typinfo.obj
 0002:00009058       ??_R4type_info@@6B@        0045b058     libcmt:typinfo.obj
 0002:00009070       ??_R1A@?0A@A@runtime_error@std@@8 0045b070     libcpmt:ios.obj
 0002:00009088       ??_R1A@?0A@A@failure@ios_base@std@@8 0045b088     libcpmt:ios.obj
 0002:000090a0       ??_R2failure@ios_base@std@@8 0045b0a0     libcpmt:ios.obj
 0002:000090b0       ??_R3failure@ios_base@std@@8 0045b0b0     libcpmt:ios.obj
 0002:000090c0       ??_R4failure@ios_base@std@@6B@ 0045b0c0     libcpmt:ios.obj
 0002:000090d8       ??_R2runtime_error@std@@8  0045b0d8     libcpmt:ios.obj
 0002:000090e8       ??_R3runtime_error@std@@8  0045b0e8     libcpmt:ios.obj
 0002:000090f8       ??_R4runtime_error@std@@6B@ 0045b0f8     libcpmt:ios.obj
 0002:00009110       ??_R1A@?0A@A@ios_base@std@@8 0045b110     libcpmt:ios.obj
 0002:00009128       ??_R2ios_base@std@@8       0045b128     libcpmt:ios.obj
 0002:00009130       ??_R3ios_base@std@@8       0045b130     libcpmt:ios.obj
 0002:00009140       ??_R4ios_base@std@@6B@     0045b140     libcpmt:ios.obj
 0002:00009158       ??_R1A@A@3A@ios_base@std@@8 0045b158     libcpmt:iostream.obj
 0002:00009170       ??_R1A@A@3BA@?$basic_ios@DU?$char_traits@D@std@@@std@@8 0045b170     libcpmt:iostream.obj
 0002:00009188       ??_R1A@?0A@A@?$basic_istream@DU?$char_traits@D@std@@@std@@8 0045b188     libcpmt:iostream.obj
 0002:000091a0       ??_R2?$basic_istream@DU?$char_traits@D@std@@@std@@8 0045b1a0     libcpmt:iostream.obj
 0002:000091b0       ??_R3?$basic_istream@DU?$char_traits@D@std@@@std@@8 0045b1b0     libcpmt:iostream.obj
 0002:000091c0       ??_R4?$basic_istream@DU?$char_traits@D@std@@@std@@6B@ 0045b1c0     libcpmt:iostream.obj
 0002:000091d8       ??_R1A@?0A@A@?$basic_ostream@DU?$char_traits@D@std@@@std@@8 0045b1d8     libcpmt:iostream.obj
 0002:000091f0       ??_R2?$basic_ostream@DU?$char_traits@D@std@@@std@@8 0045b1f0     libcpmt:iostream.obj
 0002:00009200       ??_R3?$basic_ostream@DU?$char_traits@D@std@@@std@@8 0045b200     libcpmt:iostream.obj
 0002:00009210       ??_R4?$basic_ostream@DU?$char_traits@D@std@@@std@@6B@ 0045b210     libcpmt:iostream.obj
 0002:00009228       ??_R1A@?0A@A@?$basic_ios@DU?$char_traits@D@std@@@std@@8 0045b228     libcpmt:iostream.obj
 0002:00009240       ??_R2?$basic_ios@DU?$char_traits@D@std@@@std@@8 0045b240     libcpmt:iostream.obj
 0002:00009250       ??_R3?$basic_ios@DU?$char_traits@D@std@@@std@@8 0045b250     libcpmt:iostream.obj
 0002:00009260       ??_R4?$basic_ios@DU?$char_traits@D@std@@@std@@6B@ 0045b260     libcpmt:iostream.obj
 0002:00009274       ??_R2?$basic_streambuf@DU?$char_traits@D@std@@@std@@8 0045b274     libcpmt:iostream.obj
 0002:00009280       ??_R3?$basic_streambuf@DU?$char_traits@D@std@@@std@@8 0045b280     libcpmt:iostream.obj
 0002:00009290       ??_R4?$basic_streambuf@DU?$char_traits@D@std@@@std@@6B@ 0045b290     libcpmt:iostream.obj
 0002:000092a8       ??_R1A@?0A@A@?$basic_streambuf@DU?$char_traits@D@std@@@std@@8 0045b2a8     libcpmt:iostream.obj
 0002:000092c0       ??_R1A@?0A@A@?$basic_filebuf@DU?$char_traits@D@std@@@std@@8 0045b2c0     libcpmt:iostream.obj
 0002:000092d8       ??_R2?$basic_filebuf@DU?$char_traits@D@std@@@std@@8 0045b2d8     libcpmt:iostream.obj
 0002:000092e8       ??_R3?$basic_filebuf@DU?$char_traits@D@std@@@std@@8 0045b2e8     libcpmt:iostream.obj
 0002:000092f8       ??_R4?$basic_filebuf@DU?$char_traits@D@std@@@std@@6B@ 0045b2f8     libcpmt:iostream.obj
 0002:0000930c       ??_R2facet@locale@std@@8   0045b30c     libcpmt:locale0.obj
 0002:00009318       ??_R3facet@locale@std@@8   0045b318     libcpmt:locale0.obj
 0002:00009328       ??_R4facet@locale@std@@6B@ 0045b328     libcpmt:locale0.obj
 0002:00009340       ??_R1A@?0A@A@facet@locale@std@@8 0045b340     libcpmt:locale0.obj
 0002:00009358       ??_R1A@?0A@A@_Locimp@locale@std@@8 0045b358     libcpmt:locale0.obj
 0002:00009370       ??_R2_Locimp@locale@std@@8 0045b370     libcpmt:locale0.obj
 0002:00009380       ??_R3_Locimp@locale@std@@8 0045b380     libcpmt:locale0.obj
 0002:00009390       ??_R4_Locimp@locale@std@@6B@ 0045b390     libcpmt:locale0.obj
 0002:000093a8       ??_R1A@?0A@A@logic_error@std@@8 0045b3a8     libcpmt:string.obj
 0002:000093c0       ??_R1A@?0A@A@length_error@std@@8 0045b3c0     libcpmt:string.obj
 0002:000093d8       ??_R2length_error@std@@8   0045b3d8     libcpmt:string.obj
 0002:000093e8       ??_R3length_error@std@@8   0045b3e8     libcpmt:string.obj
 0002:000093f8       ??_R4length_error@std@@6B@ 0045b3f8     libcpmt:string.obj
 0002:00009410       ??_R2logic_error@std@@8    0045b410     libcpmt:string.obj
 0002:00009420       ??_R3logic_error@std@@8    0045b420     libcpmt:string.obj
 0002:00009430       ??_R4logic_error@std@@6B@  0045b430     libcpmt:string.obj
 0002:00009448       ??_R1A@?0A@A@out_of_range@std@@8 0045b448     libcpmt:string.obj
 0002:00009460       ??_R2out_of_range@std@@8   0045b460     libcpmt:string.obj
 0002:00009470       ??_R3out_of_range@std@@8   0045b470     libcpmt:string.obj
 0002:00009480       ??_R4out_of_range@std@@6B@ 0045b480     libcpmt:string.obj
 0002:00009498       ??_R1A@A@3BA@?$basic_ios@GU?$char_traits@G@std@@@std@@8 0045b498     libcpmt:wiostrea.obj
 0002:000094b0       ??_R1A@?0A@A@?$basic_istream@GU?$char_traits@G@std@@@std@@8 0045b4b0     libcpmt:wiostrea.obj
 0002:000094c8       ??_R2?$basic_istream@GU?$char_traits@G@std@@@std@@8 0045b4c8     libcpmt:wiostrea.obj
 0002:000094d8       ??_R3?$basic_istream@GU?$char_traits@G@std@@@std@@8 0045b4d8     libcpmt:wiostrea.obj
 0002:000094e8       ??_R4?$basic_istream@GU?$char_traits@G@std@@@std@@6B@ 0045b4e8     libcpmt:wiostrea.obj
 0002:00009500       ??_R1A@?0A@A@?$basic_ostream@GU?$char_traits@G@std@@@std@@8 0045b500     libcpmt:wiostrea.obj
 0002:00009518       ??_R2?$basic_ostream@GU?$char_traits@G@std@@@std@@8 0045b518     libcpmt:wiostrea.obj
 0002:00009528       ??_R3?$basic_ostream@GU?$char_traits@G@std@@@std@@8 0045b528     libcpmt:wiostrea.obj
 0002:00009538       ??_R4?$basic_ostream@GU?$char_traits@G@std@@@std@@6B@ 0045b538     libcpmt:wiostrea.obj
 0002:00009550       ??_R1A@?0A@A@?$basic_ios@GU?$char_traits@G@std@@@std@@8 0045b550     libcpmt:wiostrea.obj
 0002:00009568       ??_R2?$basic_ios@GU?$char_traits@G@std@@@std@@8 0045b568     libcpmt:wiostrea.obj
 0002:00009578       ??_R3?$basic_ios@GU?$char_traits@G@std@@@std@@8 0045b578     libcpmt:wiostrea.obj
 0002:00009588       ??_R4?$basic_ios@GU?$char_traits@G@std@@@std@@6B@ 0045b588     libcpmt:wiostrea.obj
 0002:000095a0       ??_R1A@?0A@A@?$basic_filebuf@GU?$char_traits@G@std@@@std@@8 0045b5a0     libcpmt:wiostrea.obj
 0002:000095b8       ??_R2?$basic_filebuf@GU?$char_traits@G@std@@@std@@8 0045b5b8     libcpmt:wiostrea.obj
 0002:000095c8       ??_R3?$basic_filebuf@GU?$char_traits@G@std@@@std@@8 0045b5c8     libcpmt:wiostrea.obj
 0002:000095d8       ??_R4?$basic_filebuf@GU?$char_traits@G@std@@@std@@6B@ 0045b5d8     libcpmt:wiostrea.obj
 0002:000095f0       ??_R1A@?0A@A@?$basic_streambuf@GU?$char_traits@G@std@@@std@@8 0045b5f0     libcpmt:wiostrea.obj
 0002:00009608       ??_R2?$basic_streambuf@GU?$char_traits@G@std@@@std@@8 0045b608     libcpmt:wiostrea.obj
 0002:00009610       ??_R3?$basic_streambuf@GU?$char_traits@G@std@@@std@@8 0045b610     libcpmt:wiostrea.obj
 0002:00009620       ??_R4?$basic_streambuf@GU?$char_traits@G@std@@@std@@6B@ 0045b620     libcpmt:wiostrea.obj
 0002:000096c0       __CT??_R0?AVexception@@@8??0exception@@QAE@ABV0@@Z12 0045b6c0     Data.obj
 0002:0000ad10       __CT??_R0PAX@84            0045cd10     nafxcw:wingdi.obj
 0002:0000ad30       __CT??_R0PAVCObject@@@84   0045cd30     nafxcw:wingdi.obj
 0002:0000ad50       __CT??_R0PAVCException@@@84 0045cd50     nafxcw:wingdi.obj
 0002:0000ad70       __CT??_R0PAVCSimpleException@@@84 0045cd70     nafxcw:wingdi.obj
 0002:0000ad90       __CT??_R0PAVCResourceException@@@84 0045cd90     nafxcw:wingdi.obj
 0002:0000adb0       __CTA5PAVCResourceException@@ 0045cdb0     nafxcw:wingdi.obj
 0002:0000adc8       __TI5PAVCResourceException@@ 0045cdc8     nafxcw:wingdi.obj
 0002:0000add8       __CT??_R0PAVCUserException@@@84 0045cdd8     nafxcw:wingdi.obj
 0002:0000adf8       __CTA5PAVCUserException@@  0045cdf8     nafxcw:wingdi.obj
 0002:0000ae10       __TI5PAVCUserException@@   0045ce10     nafxcw:wingdi.obj
 0002:0000b180       __CT??_R0PAVCOleDispatchException@@@84 0045d180     nafxcw:oledisp2.obj
 0002:0000b1a0       __CTA4PAVCOleDispatchException@@ 0045d1a0     nafxcw:oledisp2.obj
 0002:0000b1b8       __TI4PAVCOleDispatchException@@ 0045d1b8     nafxcw:oledisp2.obj
 0002:0000bf70       __CT??_R0PAVCMemoryException@@@84 0045df70     nafxcw:except.obj
 0002:0000bf90       __CTA5PAVCMemoryException@@ 0045df90     nafxcw:except.obj
 0002:0000bfa8       __TI5PAVCMemoryException@@ 0045dfa8     nafxcw:except.obj
 0002:0000bfb8       __CT??_R0PAVCNotSupportedException@@@84 0045dfb8     nafxcw:except.obj
 0002:0000bfd8       __CTA5PAVCNotSupportedException@@ 0045dfd8     nafxcw:except.obj
 0002:0000bff0       __TI5PAVCNotSupportedException@@ 0045dff0     nafxcw:except.obj
 0002:0000d0d0       __CT??_R0PAVCOleException@@@84 0045f0d0     nafxcw:olemisc.obj
 0002:0000d0f0       __CTA4PAVCOleException@@   0045f0f0     nafxcw:olemisc.obj
 0002:0000d108       __TI4PAVCOleException@@    0045f108     nafxcw:olemisc.obj
 0002:0000d4a8       __CT??_R0PAVCFileException@@@84 0045f4a8     nafxcw:filex.obj
 0002:0000d4c8       __CTA4PAVCFileException@@  0045f4c8     nafxcw:filex.obj
 0002:0000d4e0       __TI4PAVCFileException@@   0045f4e0     nafxcw:filex.obj
 0002:0000d558       __CT??_R0PAVCArchiveException@@@84 0045f558     nafxcw:arcex.obj
 0002:0000d578       __CTA4PAVCArchiveException@@ 0045f578     nafxcw:arcex.obj
 0002:0000d590       __TI4PAVCArchiveException@@ 0045f590     nafxcw:arcex.obj
 0002:0000dc28       __CT??_R0?AVruntime_error@std@@@8??0runtime_error@std@@QAE@ABV01@@Z28 0045fc28     libcpmt:ios.obj
 0002:0000dc48       __CT??_R0?AVfailure@ios_base@std@@@8??0failure@ios_base@std@@QAE@ABV012@@Z28 0045fc48     libcpmt:ios.obj
 0002:0000dc68       __CTA3?AVfailure@ios_base@std@@ 0045fc68     libcpmt:ios.obj
 0002:0000dc78       __TI3?AVfailure@ios_base@std@@ 0045fc78     libcpmt:ios.obj
 0002:0000dcd8       __CTA2?AVruntime_error@std@@ 0045fcd8     libcpmt:ios.obj
 0002:0000dce8       __TI2?AVruntime_error@std@@ 0045fce8     libcpmt:ios.obj
 0002:0000dfb0       __CT??_R0?AVlogic_error@std@@@8??0logic_error@std@@QAE@ABV01@@Z28 0045ffb0     libcpmt:string.obj
 0002:0000dfd0       __CT??_R0?AVlength_error@std@@@8??0length_error@std@@QAE@ABV01@@Z28 0045ffd0     libcpmt:string.obj
 0002:0000dff0       __CTA3?AVlength_error@std@@ 0045fff0     libcpmt:string.obj
 0002:0000e000       __TI3?AVlength_error@std@@ 00460000     libcpmt:string.obj
 0002:0000e060       __CTA2?AVlogic_error@std@@ 00460060     libcpmt:string.obj
 0002:0000e070       __TI2?AVlogic_error@std@@  00460070     libcpmt:string.obj
 0002:0000e0f8       __CT??_R0?AVout_of_range@std@@@8??0out_of_range@std@@QAE@ABV01@@Z28 004600f8     libcpmt:string.obj
 0002:0000e118       __CTA3?AVout_of_range@std@@ 00460118     libcpmt:string.obj
 0002:0000e128       __TI3?AVout_of_range@std@@ 00460128     libcpmt:string.obj
 0003:00000000       ___xc_a                    00461000     libcmt:crt0init.obj
 0003:00000144       ___xc_z                    00461144     libcmt:crt0init.obj
 0003:00000148       ___xi_a                    00461148     libcmt:crt0init.obj
 0003:0000015c       ___xi_z                    0046115c     libcmt:crt0init.obj
 0003:00000160       ___xp_a                    00461160     libcmt:crt0init.obj
 0003:0000016c       ___xp_z                    0046116c     libcmt:crt0init.obj
 0003:00000170       ___xt_a                    00461170     libcmt:crt0init.obj
 0003:00000178       ___xt_z                    00461178     libcmt:crt0init.obj
 0003:00000180       ??_C@_0DH@JOCM@Greska?5kod?5ucitavanja?5?9?5nisam?5na@ 00461180     Data.obj
 0003:000001b8       ??_C@_0DI@NMEG@Greska?5kod?5ucitavanja?5?9?5nisam?5na@ 004611b8     Data.obj
 0003:000001f0       ??_C@_0BL@EPI@Nisam?5otvorio?5datoteku?5?$CFs?5?$AA@ 004611f0     Data.obj
 0003:0000020c       ??_C@_01LHO@r?$AA@         0046120c     Data.obj
 0003:00000210       ??_C@_0BD@HCF@?$CFd?$CD?$CFd?$CD?$CFc?$CD?$CFd?$CD?$CFd?$CD?$CFd?$CD?$AA@ 00461210     Data.obj
 0003:00000224       ??_C@_0CC@EBBC@Nisam?5uspio?5otvoriti?5datoteku?5?$CFs@ 00461224     Data.obj
 0003:00000248       ??_C@_09OCMM@?$CFd?$CD?$CFd?$CD?$CFd?$CD?$AA@ 00461248     Data.obj
 0003:00000254       ??_C@_02MECO@?$CFd?$AA@    00461254     Data.obj
 0003:00000258       ??_R0?AVexception@@@8      00461258     Data.obj
 0003:00000270       ??_C@_01FKHJ@C?$AA@        00461270     Data.obj
 0003:00000274       ?_eventsinkEntryCount@CDlgOptim@@0IA 00461274     DlgOptim.obj
 0003:00000278       ??_C@_0CE@ILK@Ispit?5ve?f?5postoji?5u?5tom?5terminu?5@ 00461278     DlgOptim.obj
 0003:0000029c       ??_C@_0DL@EAJL@Ne?5mo?$JOe?5se?5staviti?5termin?5ispita@ 0046129c     DlgOptim.obj
 0003:000002d8       ??_C@_0CM@IMGB@Redak?5?$DN?5?$CFd?0?5Termin?5?$DN?5?$CFd?0?5Dan?5?$DN?5?$CF@ 004612d8     DlgOptim.obj
 0003:00000304       ??_C@_0DA@OOKP@Ispunjene?5zelje?5profesora?5?$DN?5?$CFlf?5@ 00461304     DlgOptim.obj
 0003:00000334       ??_C@_0CH@IDNH@Presjek?5studenata?5?$DN?5?$CFlf?5?5?5?$CI?$CF2d?5?$CF@ 00461334     DlgOptim.obj
 0003:0000035c       ??_C@_0CE@EAOJ@Blizina?5ispita?5?$DN?5?$CFlf?5?5?5?$CI?$CF2d?5?$CF?$CF?$CJ?5@ 0046135c     DlgOptim.obj
 0003:00000380       ??_C@_0DB@LAEA@Kazne?5opterecenja?5na?5grupama?5?$DN?5?$CF@ 00461380     DlgOptim.obj
 0003:000003b4       ??_C@_0CN@OIC@Prevelika?5blizina?5kazne?5?$DN?5?$CFlf?5?5?5@ 004613b4     DlgOptim.obj
 0003:000003e4       ??_C@_0CI@CADI@Podrokovi?5kazne?5?5?$DN?5?$CFlf?5?5?5?$CI?$CF2d?5?$CF?$CF@ 004613e4     DlgOptim.obj
 0003:0000040c       ??_C@_0DI@HHAF@Ispunjene?5?$JOelje?5profesora?5?$CIukupa@ 0046140c     DlgOptim.obj
 0003:00000444       ??_C@_0EB@EBHI@Vrijeme?5optimizacije?5?$DN?5?$CF02d?3?$CF02d@ 00461444     DlgOptim.obj
 0003:00000488       ??_C@_0DB@HGHL@Broj?5kazni?5zbog?5opterecenja?5na?5g@ 00461488     DlgOptim.obj
 0003:000004bc       ??_C@_0CJ@CIE@Broj?5kazni?5zbog?5prevelike?5blizin@ 004614bc     DlgOptim.obj
 0003:000004e8       ??_C@_0DH@DCBH@Broj?5kazni?5zbog?5odstupanja?5podje@ 004614e8     DlgOptim.obj
 0003:00000520       ??_C@_0CB@JLMG@Prosj?4?5funkcije?5dobrote?5?$DN?5?$CFlf?5?5?5@ 00461520     DlgOptim.obj
 0003:00000544       ??_C@_0BP@PMCN@Min?4?5funkcije?5dobrote?5?$DN?5?$CFlf?5?5?5?$AA@ 00461544     DlgOptim.obj
 0003:00000564       ??_C@_0BP@DLKJ@Max?4?5funkcije?5dobrote?5?$DN?5?$CFlf?5?5?5?$AA@ 00461564     DlgOptim.obj
 0003:00000584       ??_C@_03JHEL@?$CF2d?$AA@   00461584     DlgOptim.obj
 0003:00000588       ??_C@_05JPEE@?$CF?930s?$AA@ 00461588     DlgOptim.obj
 0003:00000590       ??_C@_0BA@MIDB@Times?5New?5Roman?$AA@ 00461590     DlgOptim.obj
 0003:000005a0       ??_C@_0CJ@CLKH@?$IOeli?$JK?5li?5sa?huvati?5rezultat?5optim@ 004615a0     DlgOptim.obj
 0003:000005cc       ?_eventsinkEntryCount@CDlgVizualniPrikaz@@0IA 004615cc     DlgVizualniPrikaz.obj
 0003:000005d0       ??_C@_0L@CKKG@Drugi?5klik?$AA@ 004615d0     DlgVizualniPrikaz.obj
 0003:000005dc       ??_C@_03LDK@Evo?$AA@       004615dc     DlgVizualniPrikaz.obj
 0003:000005e0       ??_C@_0DN@JDGA@Broj?5ispunjenih?5zelje?5profesora?5@ 004615e0     DlgVizualniPrikaz.obj
 0003:00000620       ??_C@_0CO@FGKE@Broj?5kazni?5zbog?5prevelikog?5opter@ 00461620     DlgVizualniPrikaz.obj
 0003:00000650       ??_C@_05IBFC@?$CF?925s?$AA@ 00461650     DlgVizualniPrikaz.obj
 0003:00000668       ??_C@_0L@IAGP@CMainFrame?$AA@ 00461668     MainFrm.obj
 0003:00000674       ?BrDana@Date@@2PAHA        00461674     ModelPar.obj
 0003:00000818       ??_C@_0M@CMMF@CMSFlexGrid?$AA@ 00461818     msflexgrid.obj
 0003:00000824       ??_C@_0L@KHHD@COptRokDoc?$AA@ 00461824     OptRokDoc.obj
 0003:00000830       ??_C@_0M@CNPC@predmet?4txt?$AA@ 00461830     OptRokDoc.obj
 0003:0000083c       ??_C@_0P@JHEA@nasprogram?4txt?$AA@ 0046183c     OptRokDoc.obj
 0003:0000084c       ??_C@_0M@PNLP@presjek?4txt?$AA@ 0046184c     OptRokDoc.obj
 0003:00000858       ??_C@_0BC@FGEN@IspitiIstiDan?4txt?$AA@ 00461858     OptRokDoc.obj
 0003:0000086c       ??_C@_0CE@FAEF@Optimizira?5se?5raspored?5za?5?$CFd?5isp@ 0046186c     OptRokDoc.obj
 0003:00000890       ??_C@_02JBML@?$CFc?$AA@    00461890     OptRokDoc.obj
 0003:00000894       ??_C@_05LFKM@?$CFd?4?$CFd?$AA@ 00461894     OptRokDoc.obj
 0003:0000089c       ??_C@_02DILL@?$CFs?$AA@    0046189c     OptRokDoc.obj
 0003:000008a0       ??_C@_04LFBM@opis?$AA@     004618a0     OptRokDoc.obj
 0003:000008a8       ??_C@_05EAOH@smjer?$AA@    004618a8     OptRokDoc.obj
 0003:000008b0       ??_C@_05DIPG@grupa?$AA@    004618b0     OptRokDoc.obj
 0003:000008b8       ??_C@_06EBGC@br?4st?4?$AA@ 004618b8     OptRokDoc.obj
 0003:000008c0       ??_C@_04GGKK@sem?4?$AA@    004618c0     OptRokDoc.obj
 0003:000008c8       ??_C@_0L@HDL@2?4jesenski?$AA@ 004618c8     OptRokDoc.obj
 0003:000008d4       ??_C@_0M@DGHO@1?4?5jesenski?$AA@ 004618d4     OptRokDoc.obj
 0003:000008e0       ??_C@_08CBPP@3?4ljetni?$AA@ 004618e0     OptRokDoc.obj
 0003:000008ec       ??_C@_09PADB@2?4?5ljetni?$AA@ 004618ec     OptRokDoc.obj
 0003:000008f8       ??_C@_09LGOJ@1?4?5ljetni?$AA@ 004618f8     OptRokDoc.obj
 0003:00000904       ??_C@_09FPAA@Proljetni?$AA@ 00461904     OptRokDoc.obj
 0003:00000910       ??_C@_09OPGN@2?4?5zimski?$AA@ 00461910     OptRokDoc.obj
 0003:0000091c       ??_C@_09KJLF@1?4?5zimski?$AA@ 0046191c     OptRokDoc.obj
 0003:00000928       ??_C@_08HMCA@Jes?4izv?4?$AA@ 00461928     OptRokDoc.obj
 0003:00000934       ??_C@_0P@PKIA@Naziv?5predmeta?$AA@ 00461934     OptRokDoc.obj
 0003:00000944       ??_C@_05FENP@Sifra?$AA@    00461944     OptRokDoc.obj
 0003:0000094c       ??_C@_01FIAI@X?$AA@        0046194c     OptRokDoc.obj
 0003:00000950       ??_C@_04KHNA@isti?$AA@     00461950     OptRokDoc.obj
 0003:00000958       ??_C@_0O@BBKO@?6?6?5Smjer?5?5?$CFd?6?$AA@ 00461958     OptRokDoc.obj
 0003:00000968       ??_C@_0BN@EN@?6?6?5Grupa?5predmeta?5broj?5?5?5?$CFd?6?$AA@ 00461968     OptRokDoc.obj
 0003:00000988       ??_C@_09FHML@?$CF2d?4?5?5?5?5?5?$AA@ 00461988     OptRokDoc.obj
 0003:00000994       ??_C@_06ODLL@?$CF2d?4?5?5?$AA@ 00461994     OptRokDoc.obj
 0003:0000099c       ??_C@_0N@BANP@?6?$CF3d?0?5?$CF25s?5?7?$AA@ 0046199c     OptRokDoc.obj
 0003:000009ac       ??_C@_05NDEE@?$CF?935s?$AA@ 004619ac     OptRokDoc.obj
 0003:000009b4       ??_C@_0BN@BPPC@?6?6Predmeti?5iz?5?$CFd?4?5semestra?5?6?$AA@ 004619b4     OptRokDoc.obj
 0003:000009d4       ??_C@_0CI@IGLK@Nisam?5uspio?5otvoriti?5datoteku?5AS@ 004619d4     OptRokDoc.obj
 0003:000009fc       ??_C@_09IKCO@ASCII?4txt?$AA@ 004619fc     OptRokDoc.obj
 0003:00000a08       ??_C@_01LLF@w?$AA@         00461a08     OptRokDoc.obj
 0003:00000a0c       ??_C@_0EI@FCIA@?9?9?9?9?9?9?9?9?9?9?9?9?9?9?9?9?9?9?9?9?9?9?9?9?9?9?9?9?9?9?9?9@ 00461a0c     OptRokDoc.obj
 0003:00000a54       ??_C@_0BP@JCDH@?5?$CF3d?5?9?5?$CFs?5?5?5?7?5?$CFd?5?5?7?5?$CFd?5?5?5?$DL?5?5?5?5?$AA@ 00461a54     OptRokDoc.obj
 0003:00000a74       ??_C@_06NPBP@?$CFd?4?5?$CFs?$AA@ 00461a74     OptRokDoc.obj
 0003:00000a7c       ??_C@_0CH@DJLM@Local?5AppWizard?9Generated?5Applic@ 00461a7c     OptRokova.obj
 0003:00000aa4       ??_C@_0M@GJBP@COptRokView?$AA@ 00461aa4     OptRokView.obj
 0003:00000ae8       ??_C@_0L@NAGP@CScrollbar?$AA@ 00461ae8     scrollbar.obj
 0003:00000af4       ?_afxNewHandler@@3P6AHI@ZA 00461af4     nafxcw:afxmem.obj
 0003:00000af8       ??_R0?AVCObject@@@8        00461af8     nafxcw:dlgcore.obj
 0003:00000b10       ??_R0?AVCCmdTarget@@@8     00461b10     nafxcw:dlgcore.obj
 0003:00000b30       ??_R0?AVCWnd@@@8           00461b30     nafxcw:dlgcore.obj
 0003:00000b48       ??_R0?AVCDialog@@@8        00461b48     nafxcw:dlgcore.obj
 0003:00000b60       ??_R0PAVCException@@@8     00461b60     nafxcw:dlgcore.obj
 0003:00000b80       ??_R0?AVCButton@@@8        00461b80     nafxcw:winctrl1.obj
 0003:00000b98       ??_R0?AVCListBox@@@8       00461b98     nafxcw:winctrl1.obj
 0003:00000bb0       ??_R0?AVCCmdUI@@@8         00461bb0     nafxcw:wincore.obj
 0003:00000bc8       ??_R0?AVCTestCmdUI@@@8     00461bc8     nafxcw:wincore.obj
 0003:00000be8       ??_R0PAVCUserException@@@8 00461be8     nafxcw:wincore.obj
 0003:00000c08       ??_R0?AVCTempWnd@@@8       00461c08     nafxcw:wincore.obj
 0003:00000c20       ??_R0?AVCNoTrackObject@@@8 00461c20     nafxcw:wincore.obj
 0003:00000c40       ??_R0?AV_AFX_CTL3D_STATE@@@8 00461c40     nafxcw:wincore.obj
 0003:00000c60       ?_dispatchEntryCount@CCmdTarget@@0IA 00461c60     nafxcw:cmdtarg.obj
 0003:00000c64       ?_dwStockPropMask@CCmdTarget@@0KA 00461c64     nafxcw:cmdtarg.obj
 0003:00000c68       ?_eventsinkEntryCount@CCmdTarget@@0IA 00461c68     nafxcw:cmdtarg.obj
 0003:00000c70       ??_R0?AVCRgn@@@8           00461c70     nafxcw:winctrl2.obj
 0003:00000c88       ??_R0?AVCGdiObject@@@8     00461c88     nafxcw:winctrl2.obj
 0003:00000ca8       ??_R0?AVCProgressCtrl@@@8  00461ca8     nafxcw:winctrl2.obj
 0003:00000cc4       ?_dwStockPropMask@COleControlContainer@@0KA 00461cc4     nafxcw:occcont.obj
 0003:00000cc8       ?_dispatchEntryCount@COleControlContainer@@0IA 00461cc8     nafxcw:occcont.obj
 0003:00000cd0       ??_R0?AUIParseDisplayName@@@8 00461cd0     nafxcw:occcont.obj
 0003:00000cf0       ??_R0?AUIOleContainer@@@8  00461cf0     nafxcw:occcont.obj
 0003:00000d10       ??_R0?AVXOleContainer@COleControlContainer@@@8 00461d10     nafxcw:occcont.obj
 0003:00000d48       ??_R0?AUIUnknown@@@8       00461d48     nafxcw:occcont.obj
 0003:00000d60       ??_R0?AUIOleWindow@@@8     00461d60     nafxcw:occcont.obj
 0003:00000d80       ??_R0?AUIOleInPlaceUIWindow@@@8 00461d80     nafxcw:occcont.obj
 0003:00000da8       ??_R0?AUIOleInPlaceFrame@@@8 00461da8     nafxcw:occcont.obj
 0003:00000dc8       ??_R0?AVXOleIPFrame@COleControlContainer@@@8 00461dc8     nafxcw:occcont.obj
 0003:00000df8       ??_R0?AVCOleControlContainer@@@8 00461df8     nafxcw:occcont.obj
 0003:00000e20       ??_R0?AVCFont@@@8          00461e20     nafxcw:occcont.obj
 0003:00000e38       ??_R0?AVCEnumArray@@@8     00461e38     nafxcw:occcont.obj
 0003:00000e58       ??_R0?AVCEnumUnknown@@@8   00461e58     nafxcw:occcont.obj
 0003:00000e78       ??_R0?AVCDC@@@8            00461e78     nafxcw:wingdi.obj
 0003:00000e90       ??_R0?AVCClientDC@@@8      00461e90     nafxcw:wingdi.obj
 0003:00000ea8       ??_R0?AVCWindowDC@@@8      00461ea8     nafxcw:wingdi.obj
 0003:00000ec0       ??_R0?AVCPaintDC@@@8       00461ec0     nafxcw:wingdi.obj
 0003:00000ed8       ??_R0?AVCPen@@@8           00461ed8     nafxcw:wingdi.obj
 0003:00000ef0       ??_R0?AVCBrush@@@8         00461ef0     nafxcw:wingdi.obj
 0003:00000f08       ??_R0?AVCTempDC@@@8        00461f08     nafxcw:wingdi.obj
 0003:00000f20       ??_R0?AVCTempGdiObject@@@8 00461f20     nafxcw:wingdi.obj
 0003:00000f40       ??_R0PAX@8                 00461f40     nafxcw:wingdi.obj
 0003:00000f50       ??_R0PAVCObject@@@8        00461f50     nafxcw:wingdi.obj
 0003:00000f68       ??_R0PAVCSimpleException@@@8 00461f68     nafxcw:wingdi.obj
 0003:00000f88       ??_R0PAVCResourceException@@@8 00461f88     nafxcw:wingdi.obj
 0003:00000fb0       ??_R0?AVCException@@@8     00461fb0     nafxcw:wingdi.obj
 0003:00000fd0       ??_R0?AVCSimpleException@@@8 00461fd0     nafxcw:wingdi.obj
 0003:00000ff0       ??_R0?AVCResourceException@@@8 00461ff0     nafxcw:wingdi.obj
 0003:00001018       ??_R0?AVCUserException@@@8 00462018     nafxcw:wingdi.obj
 0003:00001038       ??_R0?AV_AFX_THREAD_STATE@@@8 00462038     nafxcw:afxstate.obj
 0003:00001058       ??_R0?AVAFX_MODULE_STATE@@@8 00462058     nafxcw:afxstate.obj
 0003:00001078       ??_R0?AVAFX_MODULE_THREAD_STATE@@@8 00462078     nafxcw:afxstate.obj
 0003:000010a0       ??_R0?AV_AFX_BASE_MODULE_STATE@@@8 004620a0     nafxcw:afxstate.obj
 0003:000010c8       ?_afxPchNil@@3PBDB         004620c8     nafxcw:strcore.obj
 0003:000010cc       ?_afxDataNil@@3PAUCStringData@@A 004620cc     nafxcw:strcore.obj
 0003:000010d0       ?_afxInitData@@3PAHA       004620d0     nafxcw:strcore.obj
 0003:000010e0       ??_R0?AVCWinThread@@@8     004620e0     nafxcw:thrdcore.obj
 0003:00001100       ??_R0?AV_AFX_CTL3D_THREAD@@@8 00462100     nafxcw:thrdcore.obj
 0003:00001120       ??_R0?AVCMonthCalCtrl@@@8  00462120     nafxcw:winctrl5.obj
 0003:00001140       ??_R0PAVCOleDispatchException@@@8 00462140     nafxcw:oledisp2.obj
 0003:00001168       ??_R0?AVCFrameWnd@@@8      00462168     nafxcw:winfrm.obj
 0003:00001180       ??_R0?AVCControlBar@@@8    00462180     nafxcw:barstat.obj
 0003:000011a0       ??_R0?AVCStatusBar@@@8     004621a0     nafxcw:barstat.obj
 0003:000011c0       ??_R0?AVCStatusCmdUI@@@8   004621c0     nafxcw:barstat.obj
 0003:000011dc       ?_afxComCtlVersion@@3HA    004621dc     nafxcw:bartool.obj
 0003:000011e0       ?_afxDropDownWidth@@3HA    004621e0     nafxcw:bartool.obj
 0003:000011e8       ??_R0?AVCToolBar@@@8       004621e8     nafxcw:bartool.obj
 0003:00001200       ??_R0?AVCToolCmdUI@@@8     00462200     nafxcw:bartool.obj
 0003:00001220       ??_R0?AVCDockBar@@@8       00462220     nafxcw:bardock.obj
 0003:00001238       ??_R0?AVCMiniFrameWnd@@@8  00462238     nafxcw:bardock.obj
 0003:00001258       ??_R0?AVCMiniDockFrameWnd@@@8 00462258     nafxcw:bardock.obj
 0003:00001278       ??_R0?AVCFile@@@8          00462278     nafxcw:doccore.obj
 0003:00001290       ??_R0?AVCMirrorFile@@@8    00462290     nafxcw:doccore.obj
 0003:000012b0       ??_R0?AVCFileException@@@8 004622b0     nafxcw:doccore.obj
 0003:000012d0       ??_R0PAVCArchiveException@@@8 004622d0     nafxcw:arccore.obj
 0003:000012f0       ?bStaticInit@CDocManager@@2HA 004622f0     nafxcw:appcore.obj
 0003:000012f8       ??_R0?AV_AFX_WIN_STATE@@@8 004622f8     nafxcw:appcore.obj
 0003:00001318       ??_R0?AVCWinApp@@@8        00462318     nafxcw:appcore.obj
 0003:00001330       ??_R0?AVCCommandLineInfo@@@8 00462330     nafxcw:appcore.obj
 0003:00001350       ??_R0?AVCDocTemplate@@@8   00462350     nafxcw:docsingl.obj
 0003:00001370       ??_R0?AVCSingleDocTemplate@@@8 00462370     nafxcw:docsingl.obj
 0003:00001398       ??_R0?AVCOccManager@@@8    00462398     nafxcw:occmgr.obj
 0003:000013b8       ??_R0?AVCView@@@8          004623b8     nafxcw:viewprev.obj
 0003:000013d0       ??_R0?AVCScrollView@@@8    004623d0     nafxcw:viewprev.obj
 0003:000013f0       ??_R0?AVCPreviewView@@@8   004623f0     nafxcw:viewprev.obj
 0003:00001410       ??_R0?AVCPrintingDialog@@@8 00462410     nafxcw:viewprnt.obj
 0003:00001430       ??_R0PAVCMemoryException@@@8 00462430     nafxcw:except.obj
 0003:00001450       ??_R0PAVCNotSupportedException@@@8 00462450     nafxcw:except.obj
 0003:00001478       ??_R0?AVCMemoryException@@@8 00462478     nafxcw:except.obj
 0003:00001498       ??_R0?AVCNotSupportedException@@@8 00462498     nafxcw:except.obj
 0003:000014c0       ??_R0?AUCThreadData@@@8    004624c0     nafxcw:afxtls.obj
 0003:000014e0       ??_R0?AVCHandleMap@@@8     004624e0     nafxcw:winhand.obj
 0003:00001500       ??_R0?AVCMapPtrToPtr@@@8   00462500     nafxcw:map_pp.obj
 0003:00001520       ??_R0?AVCMenu@@@8          00462520     nafxcw:winmenu.obj
 0003:00001538       ??_R0?AVCTempMenu@@@8      00462538     nafxcw:winmenu.obj
 0003:00001550       ??_R0?AUISequentialStream@@@8 00462550     nafxcw:arcstrm.obj
 0003:00001570       ??_R0?AUIStream@@@8        00462570     nafxcw:arcstrm.obj
 0003:00001588       ??_R0?AVCArchiveStream@@@8 00462588     nafxcw:arcstrm.obj
 0003:000015a8       ??_R0?AUIRowsetNotify@@@8  004625a8     nafxcw:occsite.obj
 0003:000015c8       ??_R0?AVXRowsetNotify@COleControlSite@@@8 004625c8     nafxcw:occsite.obj
 0003:000015f8       ??_R0?AUINotifyDBEvents@@@8 004625f8     nafxcw:occsite.obj
 0003:00001618       ??_R0?AVXNotifyDBEvents@COleControlSite@@@8 00462618     nafxcw:occsite.obj
 0003:00001648       ??_R0?AUIBoundObjectSite@@@8 00462648     nafxcw:occsite.obj
 0003:00001668       ??_R0?AVXBoundObjectSite@COleControlSite@@@8 00462668     nafxcw:occsite.obj
 0003:00001698       ??_R0?AVXEventSink@COleControlSite@@@8 00462698     nafxcw:occsite.obj
 0003:000016c8       ??_R0?AUIPropertyNotifySink@@@8 004626c8     nafxcw:occsite.obj
 0003:000016f0       ??_R0?AVXPropertyNotifySink@COleControlSite@@@8 004626f0     nafxcw:occsite.obj
 0003:00001728       ??_R0?AUIDispatch@@@8      00462728     nafxcw:occsite.obj
 0003:00001740       ??_R0?AVXAmbientProps@COleControlSite@@@8 00462740     nafxcw:occsite.obj
 0003:00001770       ??_R0?AUIOleControlSite@@@8 00462770     nafxcw:occsite.obj
 0003:00001790       ??_R0?AVXOleControlSite@COleControlSite@@@8 00462790     nafxcw:occsite.obj
 0003:000017c0       ??_R0?AUIOleInPlaceSite@@@8 004627c0     nafxcw:occsite.obj
 0003:000017e0       ??_R0?AVXOleIPSite@COleControlSite@@@8 004627e0     nafxcw:occsite.obj
 0003:00001810       ??_R0?AUIOleClientSite@@@8 00462810     nafxcw:occsite.obj
 0003:00001830       ??_R0?AVXOleClientSite@COleControlSite@@@8 00462830     nafxcw:occsite.obj
 0003:00001860       ??_R0?AVCOleControlSite@@@8 00462860     nafxcw:occsite.obj
 0003:00001880       ??_R0?AVCDataSourceControl@@@8 00462880     nafxcw:occsite.obj
 0003:000018a8       __GUID_0c733a05_2a1c_11ce_ade5_00aa0044773d 004628a8     nafxcw:occsite.obj
 0003:000018b8       __GUID_0c733a11_2a1c_11ce_ade5_00aa0044773d 004628b8     nafxcw:occsite.obj
 0003:000018c8       __GUID_0c733a8c_2a1c_11ce_ade5_00aa0044773d 004628c8     nafxcw:occsite.obj
 0003:000018d8       ??_R0PAVCOleException@@@8  004628d8     nafxcw:oledisp1.obj
 0003:000018f8       ??_R0?AVCOleDispatchException@@@8 004628f8     nafxcw:oledisp1.obj
 0003:00001920       ??_R0?AUIEnumVOID@@@8      00462920     nafxcw:oleenum.obj
 0003:00001938       ??_R0?AVXEnumVOID@CEnumArray@@@8 00462938     nafxcw:oleenum.obj
 0003:00001960       ??_R0?AVCDocManager@@@8    00462960     nafxcw:docmgr.obj
 0003:00001980       ??_R0?AVCNewTypeDlg@@@8    00462980     nafxcw:docmgr.obj
 0003:000019a0       ??_R0?AVCPtrList@@@8       004629a0     nafxcw:list_p.obj
 0003:000019b8       ?_afxMonthDays@@3PAHA      004629b8     nafxcw:olevar.obj
 0003:000019f0       ??_R0?AVCOleException@@@8  004629f0     nafxcw:olemisc.obj
 0003:00001a10       ??_R0?AVCMapStringToPtr@@@8 00462a10     nafxcw:map_sp.obj
 0003:00001a30       ??_R0?AVCPtrArray@@@8      00462a30     nafxcw:array_p.obj
 0003:00001a48       ??_R0?AVCDockContext@@@8   00462a48     nafxcw:dockcont.obj
 0003:00001a68       ??_R0PAVCFileException@@@8 00462a68     nafxcw:filex.obj
 0003:00001a88       ??_R0?AVCArchiveException@@@8 00462a88     nafxcw:arcex.obj
 0003:00001aa8       ??_R0?AVCCommonDialog@@@8  00462aa8     nafxcw:dlgprnt.obj
 0003:00001ac8       ??_R0?AVCPrintDialog@@@8   00462ac8     nafxcw:dlgprnt.obj
 0003:00001ae8       ??_R0?AVCRecentFileList@@@8 00462ae8     nafxcw:filelist.obj
 0003:00001b08       ??_R0?AVCMemFile@@@8       00462b08     nafxcw:filemem.obj
 0003:00001b20       ??_R0?AVCDialogBar@@@8     00462b20     nafxcw:bardlg.obj
 0003:00001b40       ??_R0?AVCPreviewDC@@@8     00462b40     nafxcw:dcprev.obj
 0003:00001b60       ??_R0?AVCFileDialog@@@8    00462b60     nafxcw:dlgfile.obj
 0003:00001b7c       ?_afxTickCount@@3KA        00462b7c     nafxcw:oleinit.obj
 0003:00001b80       ??_R0?AVCToolTipCtrl@@@8   00462b80     nafxcw:tooltip.obj
 0003:00001ba0       ??_R0?AVCOleMessageFilter@@@8 00462ba0     nafxcw:olemsgf.obj
 0003:00001bc0       ??_R0?AUIMessageFilter@@@8 00462bc0     nafxcw:olemsgf.obj
 0003:00001be0       ??_R0?AVXMessageFilter@COleMessageFilter@@@8 00462be0     nafxcw:olemsgf.obj
 0003:00001c10       ??_R0?AVCOleDialog@@@8     00462c10     nafxcw:oledlgs2.obj
 0003:00001c30       ??_R0?AVCOleBusyDialog@@@8 00462c30     nafxcw:oledlgs2.obj
 0003:00001c50       ??_R0?AV_AFX_OLE_STATE@@@8 00462c50     nafxcw:oledata.obj
 0003:00001c70       __NLG_Destination          00462c70     libcmt:exsup.obj
 0003:00001c80       __fltused                  00462c80     libcmt:fpinit.obj
 0003:00001c84       __ldused                   00462c84     libcmt:fpinit.obj
 0003:00001c88       __FPinit                   00462c88     libcmt:fpinit.obj
 0003:00001c8c       __FPmtinit                 00462c8c     libcmt:fpinit.obj
 0003:00001c90       __FPmtterm                 00462c90     libcmt:fpinit.obj
 0003:00001c98       ??_R0?AVtype_info@@@8      00462c98     libcmt:typinfo.obj
 0003:00001cb0       ?__pMyUnhandledExceptionFilter@@3PAXA 00462cb0     libcmt:throw.obj
 0003:00001cc0       ___lconv_static_decimal    00462cc0     libcmt:lconv.obj
 0003:00001cc8       ___lconv_c                 00462cc8     libcmt:lconv.obj
 0003:00001cf8       ___lconv                   00462cf8     libcmt:lconv.obj
 0003:00001d00       __aexit_rtn                00462d00     libcmt:wincrt0.obj
 0003:00001d04       ___app_type                00462d04     libcmt:wincrt0.obj
 0003:00001e08       ___lc_time_curr            00462e08     libcmt:strftime.obj
 0003:00001e10       ___lc_time_c               00462e10     libcmt:strftime.obj
 0003:00002030       __iob                      00463030     libcmt:_file.obj
 0003:000022b0       __pctype                   004632b0     libcmt:ctype.obj
 0003:000022b4       __pwctype                  004632b4     libcmt:ctype.obj
 0003:000022b8       __ctype                    004632b8     libcmt:ctype.obj
 0003:000024bc       ___mb_cur_max              004634bc     libcmt:nlsdata1.obj
 0003:000024c0       ___decimal_point           004634c0     libcmt:nlsdata1.obj
 0003:000024c4       ___decimal_point_length    004634c4     libcmt:nlsdata1.obj
 0003:000024c8       ___nullstring              004634c8     libcmt:output.obj
 0003:000024cc       ___wnullstring             004634cc     libcmt:output.obj
 0003:000024e0       ___tlsindex                004634e0     libcmt:tidtable.obj
 0003:000024e4       ?__pInconsistency@@3P6AXXZA 004634e4     libcmt:hooks.obj
 0003:000024f8       ___badioinfo               004634f8     libcmt:ioinit.obj
 0003:0000251c       __cfltcvt_tab              0046351c     libcmt:cmiscdat.obj
 0003:00002540       __locktable                00463540     libcmt:mlock.obj
 0003:00002600       __XcptActTab               00463600     libcmt:winxfltr.obj
 0003:00002678       __First_FPE_Indx           00463678     libcmt:winxfltr.obj
 0003:0000267c       __Num_FPE                  0046367c     libcmt:winxfltr.obj
 0003:00002680       __XcptActTabSize           00463680     libcmt:winxfltr.obj
 0003:00002684       __XcptActTabCount          00463684     libcmt:winxfltr.obj
 0003:00002688       __amblksiz                 00463688     libcmt:heapinit.obj
 0003:00002720       ___old_small_block_heap    00463720     libcmt:sbheap.obj
 0003:00004744       ___old_sbh_threshold       00465744     libcmt:sbheap.obj
 0003:00004750       __HUGE                     00465750     libcmt:huge.obj
 0003:00004760       __timezone                 00465760     libcmt:timeset.obj
 0003:00004764       __daylight                 00465764     libcmt:timeset.obj
 0003:00004768       __dstbias                  00465768     libcmt:timeset.obj
 0003:000047ec       __tzname                   004657ec     libcmt:timeset.obj
 0003:00004814       __lpdays                   00465814     libcmt:days.obj
 0003:00004848       __days                     00465848     libcmt:days.obj
 0003:00004a68       __d_inf                    00465a68     libcmt:util.obj
 0003:00004a70       __d_ind                    00465a70     libcmt:util.obj
 0003:00004a78       __d_max                    00465a78     libcmt:util.obj
 0003:00004a80       __d_min                    00465a80     libcmt:util.obj
 0003:00004a88       __d_mzero                  00465a88     libcmt:util.obj
 0003:00004ae0       __matherr_flag             00465ae0     libcmt:matherr.obj
 0003:00004af0       __pow10pos                 00465af0     libcmt:constpow.obj
 0003:00004c50       __pow10neg                 00465c50     libcmt:constpow.obj
 0003:00004dac       ?_Sync@ios_base@std@@0_NA  00465dac     libcpmt:ios.obj
 0003:00004db0       ??_R0?AVruntime_error@std@@@8 00465db0     libcpmt:ios.obj
 0003:00004dd0       ??_R0?AVfailure@ios_base@std@@@8 00465dd0     libcpmt:ios.obj
 0003:00004df8       ??_R0?AVios_base@std@@@8   00465df8     libcpmt:ios.obj
 0003:00004e14       ?_Init_cnt@Init@ios_base@std@@0HA 00465e14     libcpmt:iostream.obj
 0003:00004e18       ??_R0?AV?$basic_ios@DU?$char_traits@D@std@@@std@@@8 00465e18     libcpmt:iostream.obj
 0003:00004e50       ??_R0?AV?$basic_istream@DU?$char_traits@D@std@@@std@@@8 00465e50     libcpmt:iostream.obj
 0003:00004e90       ??_R0?AV?$basic_ostream@DU?$char_traits@D@std@@@std@@@8 00465e90     libcpmt:iostream.obj
 0003:00004ed0       ??_R0?AV?$basic_streambuf@DU?$char_traits@D@std@@@std@@@8 00465ed0     libcpmt:iostream.obj
 0003:00004f10       ??_R0?AV?$basic_filebuf@DU?$char_traits@D@std@@@std@@@8 00465f10     libcpmt:iostream.obj
 0003:00004f50       ??_R0?AVfacet@locale@std@@@8 00465f50     libcpmt:locale0.obj
 0003:00004f70       ??_R0?AV_Locimp@locale@std@@@8 00465f70     libcpmt:locale0.obj
 0003:00004f98       ??_R0?AVlogic_error@std@@@8 00465f98     libcpmt:string.obj
 0003:00004fb8       ??_R0?AVlength_error@std@@@8 00465fb8     libcpmt:string.obj
 0003:00004fd8       ??_R0?AVout_of_range@std@@@8 00465fd8     libcpmt:string.obj
 0003:00004ff8       ?_Init_cnt@_Winit@std@@0HA 00465ff8     libcpmt:wiostrea.obj
 0003:00005000       ??_R0?AV?$basic_ios@GU?$char_traits@G@std@@@std@@@8 00466000     libcpmt:wiostrea.obj
 0003:00005038       ??_R0?AV?$basic_istream@GU?$char_traits@G@std@@@std@@@8 00466038     libcpmt:wiostrea.obj
 0003:00005078       ??_R0?AV?$basic_ostream@GU?$char_traits@G@std@@@std@@@8 00466078     libcpmt:wiostrea.obj
 0003:000050b8       ??_R0?AV?$basic_filebuf@GU?$char_traits@G@std@@@std@@@8 004660b8     libcpmt:wiostrea.obj
 0003:000050f8       ??_R0?AV?$basic_streambuf@GU?$char_traits@G@std@@@std@@@8 004660f8     libcpmt:wiostrea.obj
 0003:00005134       ??_C@_04OJPN@edit?$AA@     00466134     ctl3d32s:CTL3D.OBJ
 0003:0000513c       ??_C@_07PAH@hangeul?$AA@   0046613c     ctl3d32s:CTL3D.OBJ
 0003:00005144       ??_C@_05GCGK@kanji?$AA@    00466144     ctl3d32s:CTL3D.OBJ
 0003:0000514c       ??_C@_07ELCN@english?$AA@  0046614c     ctl3d32s:CTL3D.OBJ
 0003:00005154       ??_C@_05BJDJ@roman?$AA@    00466154     ctl3d32s:CTL3D.OBJ
 0003:0000515c       ??_C@_0M@ODOG@hangeulmenu?$AA@ 0046615c     ctl3d32s:CTL3D.OBJ
 0003:00005168       ??_C@_09IBMG@kanjimenu?$AA@ 00466168     ctl3d32s:CTL3D.OBJ
 0003:00005174       ??_C@_07CIAP@windows?$AA@  00466174     ctl3d32s:CTL3D.OBJ
 0003:0000517c       ??_C@_07LEGE@C3dHNew?$AA@  0046617c     ctl3d32s:CTL3D.OBJ
 0003:00005184       ??_C@_07CBCM@C3dLNew?$AA@  00466184     ctl3d32s:CTL3D.OBJ
 0003:0000518c       ??_C@_06JKNM@C3dNew?$AA@   0046618c     ctl3d32s:CTL3D.OBJ
 0003:00005194       ??_C@_04HKNC@C3dH?$AA@     00466194     ctl3d32s:CTL3D.OBJ
 0003:0000519c       ??_C@_04NAIO@C3dL?$AA@     0046619c     ctl3d32s:CTL3D.OBJ
 0003:000051a4       ??_C@_03KKOJ@C3d?$AA@      004661a4     ctl3d32s:CTL3D.OBJ
 0003:000051a8       ??_C@_04IEDG@C3dD?$AA@     004661a8     ctl3d32s:CTL3D.OBJ
 0003:000051b0       ??_C@_06KBFD@?$CD32770?$AA@ 004661b0     ctl3d32s:CTL3D.OBJ
 0003:000051b8       ??_C@_0BK@DNHG@DisableThreadLibraryCalls?$AA@ 004661b8     ctl3d32s:CTL3D.OBJ
 0003:000051d4       ??_C@_0N@MMAA@KERNEL32?4DLL?$AA@ 004661d4     ctl3d32s:CTL3D.OBJ
 0003:0000552c       __coninpfh                 0046652c     libcmt:initcon.obj
 0003:00005530       __confh                    00466530     libcmt:initcon.obj
 0003:00005538       ??_C@_00A@?$AA@            00466538     DlgOptim.obj
 0003:00005540       ?theApp@@3VCOptRokApp@@A   00466540     OptRokova.obj
 0003:00005604       __afxForceEXCLUDE          00466604     nafxcw:nolib.obj
 0003:0000560c       ?_afxGotScrollLines@@3HA   0046660c     nafxcw:wincore.obj
 0003:00005610       ?_afxMsgCache@@3PAUAFX_MSG_CACHE@@A 00466610     nafxcw:wincore.obj
 0003:00006e10       ?s_alloc@CTempWnd@@1VCFixedAlloc@@A 00467e10     nafxcw:wincore.obj
 0003:00006e38       ?wndNoTopMost@CWnd@@2V1@B  00467e38     nafxcw:wincore.obj
 0003:00006e78       ?wndTopMost@CWnd@@2V1@B    00467e78     nafxcw:wincore.obj
 0003:00006eb8       ?wndBottom@CWnd@@2V1@B     00467eb8     nafxcw:wincore.obj
 0003:00006ef8       ?wndTop@CWnd@@2V1@B        00467ef8     nafxcw:wincore.obj
 0003:00006f34       ?m_nMsgDragList@CWnd@@1IB  00467f34     nafxcw:wincore.obj
 0003:00006f38       _g_pfnGetSystemMetrics     00467f38     nafxcw:wincore.obj
 0003:00006f3c       _g_pfnMonitorFromWindow    00467f3c     nafxcw:wincore.obj
 0003:00006f40       _g_pfnMonitorFromRect      00467f40     nafxcw:wincore.obj
 0003:00006f44       _g_pfnMonitorFromPoint     00467f44     nafxcw:wincore.obj
 0003:00006f48       _g_pfnGetMonitorInfo       00467f48     nafxcw:wincore.obj
 0003:00006f4c       _g_pfnEnumDisplayMonitors  00467f4c     nafxcw:wincore.obj
 0003:00006f50       _g_fMultiMonInitDone       00467f50     nafxcw:wincore.obj
 0003:00006f60       ?s_alloc@CTempImageList@@1VCFixedAlloc@@A 00467f60     nafxcw:winctrl2.obj
 0003:00006f90       ?_simpleUserException@@3VCUserException@@A 00467f90     nafxcw:wingdi.obj
 0003:00007028       ?_simpleResourceException@@3VCResourceException@@A 00468028     nafxcw:wingdi.obj
 0003:000070c0       ?s_alloc@CTempGdiObject@@1VCFixedAlloc@@A 004680c0     nafxcw:wingdi.obj
 0003:000070e8       ?s_alloc@CTempDC@@1VCFixedAlloc@@A 004680e8     nafxcw:wingdi.obj
 0003:00007110       ?_afxBaseModuleState@@3V?$CProcessLocal@V_AFX_BASE_MODULE_STATE@@@@A 00468110     nafxcw:afxstate.obj
 0003:00007114       ?_afxThreadState@@3V?$CThreadLocal@V_AFX_THREAD_STATE@@@@A 00468114     nafxcw:afxstate.obj
 0003:00007118       ?_afxAlloc512@@3VCFixedAlloc@@A 00468118     nafxcw:strcore.obj
 0003:00007140       ?_afxAlloc256@@3VCFixedAlloc@@A 00468140     nafxcw:strcore.obj
 0003:00007168       ?_afxAlloc128@@3VCFixedAlloc@@A 00468168     nafxcw:strcore.obj
 0003:00007190       ?_afxAlloc64@@3VCFixedAlloc@@A 00468190     nafxcw:strcore.obj
 0003:000071b8       ?afxChNil@@3DA             004681b8     nafxcw:strcore.obj
 0003:000071c0       ?_afxMsgMouseWheel@@3IA    004681c0     nafxcw:winfrm.obj
 0003:000071c8       ?rectDefault@CFrameWnd@@2VCRect@@B 004681c8     nafxcw:winfrm.obj
 0003:000071d8       ?_afxWinState@@3V?$CProcessLocal@V_AFX_WIN_STATE@@@@A 004681d8     nafxcw:appcore.obj
 0003:000071dc       ?pStaticDocManager@CDocManager@@2PAV1@A 004681dc     nafxcw:appcore.obj
 0003:000071e0       ?pStaticList@CDocManager@@2PAVCPtrList@@A 004681e0     nafxcw:appcore.obj
 0003:000071e4       ?_afxOccManager@@3V?$CProcessLocal@VCOccManager@@@@A 004681e4     nafxcw:occmgr.obj
 0003:000071e8       ?_simpleNotSupportedException@@3VCNotSupportedException@@A 004681e8     nafxcw:except.obj
 0003:00007280       ?_simpleMemoryException@@3VCMemoryException@@A 00468280     nafxcw:except.obj
 0003:00007318       ?_afxTlsRef@@3JA           00468318     nafxcw:afxtls.obj
 0003:0000731c       ?_afxThreadData@@3PAVCThreadSlotData@@A 0046831c     nafxcw:afxtls.obj
 0003:00007320       ?__afxThreadData@@3PAEA    00468320     nafxcw:afxtls.obj
 0003:00007354       ?_afxCtl3dThread@@3V?$CThreadLocal@V_AFX_CTL3D_THREAD@@@@A 00468354     nafxcw:app3d.obj
 0003:00007358       ?_afxCtl3dState@@3V?$CProcessLocal@V_AFX_CTL3D_STATE@@@@A 00468358     nafxcw:app3d.obj
 0003:00007360       ?afxData@@3UAUX_DATA@@A    00468360     nafxcw:auxdata.obj
 0003:000073cc       ?_afxDBCS@@3HB             004683cc     nafxcw:afxdbcs.obj
 0003:000073d8       ?s_alloc@CTempMenu@@1VCFixedAlloc@@A 004683d8     nafxcw:winmenu.obj
 0003:00007400       ?_afxLockInit@@3PAHA       00468400     nafxcw:afxcrit.obj
 0003:00007448       ?_afxLockInitLock@@3U_RTL_CRITICAL_SECTION@@A 00468448     nafxcw:afxcrit.obj
 0003:00007460       ?_afxResourceLock@@3PAU_RTL_CRITICAL_SECTION@@A 00468460     nafxcw:afxcrit.obj
 0003:000075f8       ?_afxCriticalWin32s@@3HA   004685f8     nafxcw:afxcrit.obj
 0003:000075fc       ?_afxCriticalInit@@3HA     004685fc     nafxcw:afxcrit.obj
 0003:00007600       ?_afxHalftoneBrush@@3PAUHBRUSH__@@A 00468600     nafxcw:wingdix.obj
 0003:00007604       ?_afxWingdixTerm@@3DA      00468604     nafxcw:wingdix.obj
 0003:00007618       ?_afx_sizeMiniSys@@3UtagSIZE@@A 00468618     nafxcw:winmini.obj
 0003:00007620       ?_afx_hfontMiniSys@@3PAUHFONT__@@A 00468620     nafxcw:winmini.obj
 0003:00007624       ?_afx_hbmMiniSys@@3PAUHBITMAP__@@A 00468624     nafxcw:winmini.obj
 0003:00007628       ?_afxWinminiTerm@@3HA      00468628     nafxcw:winmini.obj
 0003:00007638       ?_afxTickInit@@3HA         00468638     nafxcw:oleinit.obj
 0003:00007640       ?_oleData@@3UOLE_DATA@@A   00468640     nafxcw:oleinit.obj
 0003:00007670       ?_afxMsgSETRGB@@3IA        00468670     nafxcw:dlgcomm.obj
 0003:00007674       ?_afxMsgHELP@@3IA          00468674     nafxcw:dlgcomm.obj
 0003:00007678       ?_afxMsgCOLOROK@@3IA       00468678     nafxcw:dlgcomm.obj
 0003:0000767c       ?_afxMsgFILEOK@@3IA        0046867c     nafxcw:dlgcomm.obj
 0003:00007680       ?_afxMsgSHAREVI@@3IA       00468680     nafxcw:dlgcomm.obj
 0003:00007684       ?_afxMsgLBSELCHANGE@@3IA   00468684     nafxcw:dlgcomm.obj
 0003:00007688       ?_afxOleState@@3V?$CProcessLocal@V_AFX_OLE_STATE@@@@A 00468688     nafxcw:oledata.obj
 0003:0000768c       ___fastflag                0046868c     libcmt:fpinit.obj
 0003:00007690       __adjust_fdiv              00468690     libcmt:fpinit.obj
 0003:00007694       ___lconv_static_null       00468694     libcmt:lconv.obj
 0003:000076b0       __aenvptr                  004686b0     libcmt:wincrt0.obj
 0003:000076b4       __wenvptr                  004686b4     libcmt:wincrt0.obj
 0003:000076b8       ___error_mode              004686b8     libcmt:wincrt0.obj
 0003:000076bc       __umaskval                 004686bc     libcmt:crt0dat.obj
 0003:000076c0       __osver                    004686c0     libcmt:crt0dat.obj
 0003:000076c4       __winver                   004686c4     libcmt:crt0dat.obj
 0003:000076c8       __winmajor                 004686c8     libcmt:crt0dat.obj
 0003:000076cc       __winminor                 004686cc     libcmt:crt0dat.obj
 0003:000076d0       ___argc                    004686d0     libcmt:crt0dat.obj
 0003:000076d4       ___argv                    004686d4     libcmt:crt0dat.obj
 0003:000076d8       ___wargv                   004686d8     libcmt:crt0dat.obj
 0003:000076dc       __environ                  004686dc     libcmt:crt0dat.obj
 0003:000076e0       ___initenv                 004686e0     libcmt:crt0dat.obj
 0003:000076e4       __wenviron                 004686e4     libcmt:crt0dat.obj
 0003:000076e8       ___winitenv                004686e8     libcmt:crt0dat.obj
 0003:000076ec       __pgmptr                   004686ec     libcmt:crt0dat.obj
 0003:000076f0       __wpgmptr                  004686f0     libcmt:crt0dat.obj
 0003:000076f4       __exitflag                 004686f4     libcmt:crt0dat.obj
 0003:000076f8       __C_Termination_Done       004686f8     libcmt:crt0dat.obj
 0003:000076fc       __C_Exit_Done              004686fc     libcmt:crt0dat.obj
 0003:0000772c       __cflush                   0046872c     libcmt:_file.obj
 0003:00007730       __stdbuf                   00468730     libcmt:_sftbuf.obj
 0003:000078a4       __adbgmsg                  004688a4     libcmt:crt0msg.obj
 0003:000078a8       __newmode                  004688a8     libcmt:_newmode.obj
 0003:000078ac       ?_pnhHeap@@3P6AHI@ZA       004688ac     libcmt:handler.obj
 0003:000078bc       ___lc_handle               004688bc     libcmt:nlsdata2.obj
 0003:000078d4       ___lc_codepage             004688d4     libcmt:nlsdata2.obj
 0003:000078d8       ___lc_collate_cp           004688d8     libcmt:nlsdata2.obj
 0003:000079a8       __commode                  004689a8     libcmt:ncommode.obj
 0003:000079b8       ___lc_time_intl            004689b8     libcmt:inittime.obj
 0003:000079d4       ___lc_id                   004689d4     libcmt:nlsdata3.obj
 0003:00007a1c       __fmode                    00468a1c     libcmt:txtmode.obj
 0003:00007a4c       ?_Index@ios_base@std@@0HA  00468a4c     libcpmt:ios.obj
 0003:00007a80       ?clog@std@@3V?$basic_ostream@DU?$char_traits@D@std@@@1@A 00468a80     libcpmt:iostream.obj
 0003:00007b10       ?cout@std@@3V?$basic_ostream@DU?$char_traits@D@std@@@1@A 00468b10     libcpmt:iostream.obj
 0003:00007ba0       ?cin@std@@3V?$basic_istream@DU?$char_traits@D@std@@@1@A 00468ba0     libcpmt:iostream.obj
 0003:00007c38       ?cerr@std@@3V?$basic_ostream@DU?$char_traits@D@std@@@1@A 00468c38     libcpmt:iostream.obj
 0003:00007c90       ?_Clocptr@_Locimp@locale@std@@0PAV123@A 00468c90     libcpmt:locale0.obj
 0003:00007c94       ?_Global@_Locimp@locale@std@@0PAV123@A 00468c94     libcpmt:locale0.obj
 0003:00007c98       ?_Id_cnt@id@locale@std@@0HA 00468c98     libcpmt:locale0.obj
 0003:00007c9c       ?_Cltab@?$ctype@D@std@@0PBFB 00468c9c     libcpmt:locale0.obj
 0003:00007ca0       ?id@?$codecvt@DDH@std@@2V0locale@2@A 00468ca0     libcpmt:locale.obj
 0003:00007ca4       ?id@?$num_get@DV?$istreambuf_iterator@DU?$char_traits@D@std@@@std@@@std@@2V0locale@2@A 00468ca4     libcpmt:locale.obj
 0003:00007ca8       ?id@?$ctype@D@std@@2V0locale@2@A 00468ca8     libcpmt:locale.obj
 0003:00007cac       ?id@?$numpunct@D@std@@2V0locale@2@A 00468cac     libcpmt:locale.obj
 0003:00007cb0       ?id@?$num_put@DV?$ostreambuf_iterator@DU?$char_traits@D@std@@@std@@@std@@2V0locale@2@A 00468cb0     libcpmt:locale.obj
 0003:00007cb8       ?wcerr@std@@3V?$basic_ostream@GU?$char_traits@G@std@@@1@A 00468cb8     libcpmt:wiostrea.obj
 0003:00007cf8       ?wclog@std@@3V?$basic_ostream@GU?$char_traits@G@std@@@1@A 00468cf8     libcpmt:wiostrea.obj
 0003:00007d30       ?wcin@std@@3V?$basic_istream@GU?$char_traits@G@std@@@1@A 00468d30     libcpmt:wiostrea.obj
 0003:00007e20       ?wcout@std@@3V?$basic_ostream@GU?$char_traits@G@std@@@1@A 00468e20     libcpmt:wiostrea.obj
 0003:00007ec4       ?id@?$numpunct@G@std@@2V0locale@2@A 00468ec4     libcpmt:wlocale.obj
 0003:00007ec8       ?id@?$money_get@GV?$istreambuf_iterator@GU?$char_traits@G@std@@@std@@@std@@2V0locale@2@A 00468ec8     libcpmt:wlocale.obj
 0003:00007ecc       ?id@?$messages@G@std@@2V0locale@2@A 00468ecc     libcpmt:wlocale.obj
 0003:00007ed0       ?id@?$moneypunct@G$00@std@@2V0locale@2@A 00468ed0     libcpmt:wlocale.obj
 0003:00007ed4       ?id@?$num_put@GV?$ostreambuf_iterator@GU?$char_traits@G@std@@@std@@@std@@2V0locale@2@A 00468ed4     libcpmt:wlocale.obj
 0003:00007ed8       ?id@?$collate@G@std@@2V0locale@2@A 00468ed8     libcpmt:wlocale.obj
 0003:00007edc       ?id@?$time_get@GV?$istreambuf_iterator@GU?$char_traits@G@std@@@std@@@std@@2V0locale@2@A 00468edc     libcpmt:wlocale.obj
 0003:00007ee0       ?id@?$ctype@G@std@@2V0locale@2@A 00468ee0     libcpmt:wlocale.obj
 0003:00007ee4       ?id@?$num_get@GV?$istreambuf_iterator@GU?$char_traits@G@std@@@std@@@std@@2V0locale@2@A 00468ee4     libcpmt:wlocale.obj
 0003:00007ee8       ?id@?$codecvt@GDH@std@@2V0locale@2@A 00468ee8     libcpmt:wlocale.obj
 0003:00007eec       ?id@?$time_put@GV?$ostreambuf_iterator@GU?$char_traits@G@std@@@std@@@std@@2V0locale@2@A 00468eec     libcpmt:wlocale.obj
 0003:00007ef0       ?id@?$moneypunct@G$0A@@std@@2V0locale@2@A 00468ef0     libcpmt:wlocale.obj
 0003:00007ef4       ?id@?$money_put@GV?$ostreambuf_iterator@GU?$char_traits@G@std@@@std@@@std@@2V0locale@2@A 00468ef4     libcpmt:wlocale.obj
 0003:00007ef8       ?id@?$money_put@DV?$ostreambuf_iterator@DU?$char_traits@D@std@@@std@@@std@@2V0locale@2@A 00468ef8     libcpmt:xlocale.obj
 0003:00007efc       ?id@?$moneypunct@D$00@std@@2V0locale@2@A 00468efc     libcpmt:xlocale.obj
 0003:00007f00       ?id@?$time_get@DV?$istreambuf_iterator@DU?$char_traits@D@std@@@std@@@std@@2V0locale@2@A 00468f00     libcpmt:xlocale.obj
 0003:00007f04       ?id@?$time_put@DV?$ostreambuf_iterator@DU?$char_traits@D@std@@@std@@@std@@2V0locale@2@A 00468f04     libcpmt:xlocale.obj
 0003:00007f08       ?id@?$messages@D@std@@2V0locale@2@A 00468f08     libcpmt:xlocale.obj
 0003:00007f0c       ?id@?$moneypunct@D$0A@@std@@2V0locale@2@A 00468f0c     libcpmt:xlocale.obj
 0003:00007f10       ?id@?$money_get@DV?$istreambuf_iterator@DU?$char_traits@D@std@@@std@@@std@@2V0locale@2@A 00468f10     libcpmt:xlocale.obj
 0003:00007f14       ?id@?$collate@D@std@@2V0locale@2@A 00468f14     libcpmt:xlocale.obj
 0003:00007f30       ?_afxInitAppState@@3DA     00468f30     nafxcw:appmodul.obj
 0003:00007f31       ??_B?1???id@?$ctype@G@std@@$D@@9@51 00468f31     <common>
 0003:00007f32       ??_B?1???id@?$num_put@DV?$ostreambuf_iterator@DU?$char_traits@D@std@@@$D@@9@51 00468f32     <common>
 0003:00007f33       ??_B?1???id@?$numpunct@D@std@@$D@@9@51 00468f33     <common>
 0003:00007f34       ___setlc_active            00468f34     <common>
 0003:00007f38       ___unguarded_readlc_active 00468f38     <common>
 0003:00007f3c       ___sbh_sizeHeaderList      00468f3c     <common>
 0003:00007f40       ___sbh_indGroupDefer       00468f40     <common>
 0003:00007f44       ___sbh_pHeaderScan         00468f44     <common>
 0003:00007f48       ___sbh_pHeaderDefer        00468f48     <common>
 0003:00007f4c       ___sbh_cntHeaderList       00468f4c     <common>
 0003:00007f50       ___sbh_pHeaderList         00468f50     <common>
 0003:00007f54       ___sbh_threshold           00468f54     <common>
 0003:00007f58       __crtheap                  00468f58     <common>
 0003:00007f5c       ___active_heap             00468f5c     <common>
 0003:00007f60       ___pioinfo                 00468f60     <common>
 0003:00008060       __nhandle                  00469060     <common>
 0003:00008064       ___piob                    00469064     <common>
 0003:00008080       __bufin                    00469080     <common>
 0003:00009080       __nstream                  0046a080     <common>
 0003:00009084       ___mbcodepage              0046a084     <common>
 0003:00009090       ___mbulinfo                0046a090     <common>
 0003:0000909c       ___ismbcodepage            0046a09c     <common>
 0003:000090a0       __mbcasemap                0046a0a0     <common>
 0003:000091a0       __mbctype                  0046a1a0     <common>
 0003:000092a4       ___mblcid                  0046a2a4     <common>
 0003:000092a8       ___env_initialized         0046a2a8     <common>
 0003:000092ac       ___mbctype_initialized     0046a2ac     <common>
 0003:000092b0       ___onexitend               0046a2b0     <common>
 0003:000092b4       ___onexitbegin             0046a2b4     <common>
 0003:000092b8       __acmdln                   0046a2b8     <common>
 0003:000092bc       ?_Stinit@?1??_Init@?$basic_filebuf@GU?$char_traits@G@std@@@std@@IAEXPAU_iobuf@@W4_Initfl@23@@Z@4HA 0046a2bc     <common>
 0003:000092c0       ??_B?1???id@?$collate@D@std@@$D@@9@51 0046a2c0     <common>
 0003:000092c4       ?_Stinit@?1??_Init@?$basic_filebuf@DU?$char_traits@D@std@@@std@@IAEXPAU_iobuf@@W4_Initfl@23@@Z@4HA 0046a2c4     <common>
 0003:000092c8       ?_Stz@?$fpos@H@std@@0HA    0046a2c8     <common>
 0003:000092e0       _g_CriticalSection         0046a2e0     <common>
 0003:00009300       _g3d                       0046a300     <common>
 0004:00000000       __IMPORT_DESCRIPTOR_KERNEL32 0046b000     kernel32:KERNEL32.dll
 0004:00000014       __IMPORT_DESCRIPTOR_USER32 0046b014     user32:USER32.dll
 0004:00000028       __IMPORT_DESCRIPTOR_GDI32  0046b028     gdi32:GDI32.dll
 0004:0000003c       __IMPORT_DESCRIPTOR_comdlg32 0046b03c     comdlg32:comdlg32.dll
 0004:00000050       __IMPORT_DESCRIPTOR_WINSPOOL 0046b050     winspool:WINSPOOL.DRV
 0004:00000064       __IMPORT_DESCRIPTOR_ADVAPI32 0046b064     advapi32:ADVAPI32.dll
 0004:00000078       __IMPORT_DESCRIPTOR_SHELL32 0046b078     shell32:SHELL32.dll
 0004:0000008c       __IMPORT_DESCRIPTOR_COMCTL32 0046b08c     comctl32:COMCTL32.dll
 0004:000000a0       __IMPORT_DESCRIPTOR_oledlg 0046b0a0     oledlg:oledlg.dll
 0004:000000b4       __IMPORT_DESCRIPTOR_ole32  0046b0b4     ole32:ole32.dll
 0004:000000c8       __IMPORT_DESCRIPTOR_OLEPRO32 0046b0c8     olepro32:OLEPRO32.DLL
 0004:000000dc       __IMPORT_DESCRIPTOR_OLEAUT32 0046b0dc     oleaut32:OLEAUT32.dll
 0004:000000f0       __NULL_IMPORT_DESCRIPTOR   0046b0f0     kernel32:KERNEL32.dll
 0004:00000808       __imp__RegDeleteValueA@8   0046b808     advapi32:ADVAPI32.dll
 0004:0000080c       __imp__RegQueryValueA@16   0046b80c     advapi32:ADVAPI32.dll
 0004:00000810       __imp__RegCloseKey@4       0046b810     advapi32:ADVAPI32.dll
 0004:00000814       __imp__RegEnumKeyA@16      0046b814     advapi32:ADVAPI32.dll
 0004:00000818       __imp__RegOpenKeyA@12      0046b818     advapi32:ADVAPI32.dll
 0004:0000081c       __imp__RegDeleteKeyA@8     0046b81c     advapi32:ADVAPI32.dll
 0004:00000820       __imp__SetFileSecurityA@12 0046b820     advapi32:ADVAPI32.dll
 0004:00000824       __imp__GetFileSecurityA@20 0046b824     advapi32:ADVAPI32.dll
 0004:00000828       __imp__RegCreateKeyExA@36  0046b828     advapi32:ADVAPI32.dll
 0004:0000082c       __imp__RegOpenKeyExA@20    0046b82c     advapi32:ADVAPI32.dll
 0004:00000830       __imp__RegQueryValueExA@24 0046b830     advapi32:ADVAPI32.dll
 0004:00000834       __imp__RegSetValueExA@24   0046b834     advapi32:ADVAPI32.dll
 0004:00000838       __imp__RegCreateKeyA@12    0046b838     advapi32:ADVAPI32.dll
 0004:0000083c       __imp__RegSetValueA@20     0046b83c     advapi32:ADVAPI32.dll
 0004:00000840       \177ADVAPI32_NULL_THUNK_DATA 0046b840     advapi32:ADVAPI32.dll
 0004:00000844       __imp__InitCommonControls@0 0046b844     comctl32:COMCTL32.dll
 0004:00000848       \177COMCTL32_NULL_THUNK_DATA 0046b848     comctl32:COMCTL32.dll
 0004:0000084c       __imp__SetTextColor@8      0046b84c     gdi32:GDI32.dll
 0004:00000850       __imp__SetBkColor@8        0046b850     gdi32:GDI32.dll
 0004:00000854       __imp__DeleteDC@4          0046b854     gdi32:GDI32.dll
 0004:00000858       __imp__MoveToEx@16         0046b858     gdi32:GDI32.dll
 0004:0000085c       __imp__StartDocA@8         0046b85c     gdi32:GDI32.dll
 0004:00000860       __imp__SetTextAlign@8      0046b860     gdi32:GDI32.dll
 0004:00000864       __imp__LineTo@12           0046b864     gdi32:GDI32.dll
 0004:00000868       __imp__GetCurrentPositionEx@8 0046b868     gdi32:GDI32.dll
 0004:0000086c       __imp__GetStockObject@4    0046b86c     gdi32:GDI32.dll
 0004:00000870       __imp__DeleteObject@4      0046b870     gdi32:GDI32.dll
 0004:00000874       __imp__CreateRectRgn@16    0046b874     gdi32:GDI32.dll
 0004:00000878       __imp__GetViewportExtEx@8  0046b878     gdi32:GDI32.dll
 0004:0000087c       __imp__GetWindowExtEx@8    0046b87c     gdi32:GDI32.dll
 0004:00000880       __imp__CreatePen@12        0046b880     gdi32:GDI32.dll
 0004:00000884       __imp__CreateSolidBrush@4  0046b884     gdi32:GDI32.dll
 0004:00000888       __imp__CreatePatternBrush@4 0046b888     gdi32:GDI32.dll
 0004:0000088c       __imp__PtVisible@12        0046b88c     gdi32:GDI32.dll
 0004:00000890       __imp__RectVisible@8       0046b890     gdi32:GDI32.dll
 0004:00000894       __imp__TextOutA@20         0046b894     gdi32:GDI32.dll
 0004:00000898       __imp__ExtTextOutA@32      0046b898     gdi32:GDI32.dll
 0004:0000089c       __imp__Ellipse@20          0046b89c     gdi32:GDI32.dll
 0004:000008a0       __imp__Escape@20           0046b8a0     gdi32:GDI32.dll
 0004:000008a4       __imp__GetTextExtentPoint32A@16 0046b8a4     gdi32:GDI32.dll
 0004:000008a8       __imp__GetTextMetricsA@8   0046b8a8     gdi32:GDI32.dll
 0004:000008ac       __imp__StretchDIBits@52    0046b8ac     gdi32:GDI32.dll
 0004:000008b0       __imp__CreateCompatibleDC@4 0046b8b0     gdi32:GDI32.dll
 0004:000008b4       __imp__CreateCompatibleBitmap@12 0046b8b4     gdi32:GDI32.dll
 0004:000008b8       __imp__GetCharWidthA@16    0046b8b8     gdi32:GDI32.dll
 0004:000008bc       __imp__DPtoLP@12           0046b8bc     gdi32:GDI32.dll
 0004:000008c0       __imp__GetViewportOrgEx@8  0046b8c0     gdi32:GDI32.dll
 0004:000008c4       __imp__AbortDoc@4          0046b8c4     gdi32:GDI32.dll
 0004:000008c8       __imp__EndDoc@4            0046b8c8     gdi32:GDI32.dll
 0004:000008cc       __imp__EndPage@4           0046b8cc     gdi32:GDI32.dll
 0004:000008d0       __imp__StartPage@4         0046b8d0     gdi32:GDI32.dll
 0004:000008d4       __imp__SetAbortProc@8      0046b8d4     gdi32:GDI32.dll
 0004:000008d8       __imp__CreateDCA@16        0046b8d8     gdi32:GDI32.dll
 0004:000008dc       __imp__CreateFontIndirectA@4 0046b8dc     gdi32:GDI32.dll
 0004:000008e0       __imp__GetMapMode@4        0046b8e0     gdi32:GDI32.dll
 0004:000008e4       __imp__SetRectRgn@20       0046b8e4     gdi32:GDI32.dll
 0004:000008e8       __imp__CombineRgn@16       0046b8e8     gdi32:GDI32.dll
 0004:000008ec       __imp__LPtoDP@12           0046b8ec     gdi32:GDI32.dll
 0004:000008f0       __imp__BitBlt@36           0046b8f0     gdi32:GDI32.dll
 0004:000008f4       __imp__GetNearestColor@8   0046b8f4     gdi32:GDI32.dll
 0004:000008f8       __imp__GetStretchBltMode@4 0046b8f8     gdi32:GDI32.dll
 0004:000008fc       __imp__GetPolyFillMode@4   0046b8fc     gdi32:GDI32.dll
 0004:00000900       __imp__GetTextAlign@4      0046b900     gdi32:GDI32.dll
 0004:00000904       __imp__GetBkMode@4         0046b904     gdi32:GDI32.dll
 0004:00000908       __imp__GetROP2@4           0046b908     gdi32:GDI32.dll
 0004:0000090c       __imp__GetTextFaceA@12     0046b90c     gdi32:GDI32.dll
 0004:00000910       __imp__GetWindowOrgEx@8    0046b910     gdi32:GDI32.dll
 0004:00000914       __imp__CreateDIBitmap@24   0046b914     gdi32:GDI32.dll
 0004:00000918       __imp__GetTextColor@4      0046b918     gdi32:GDI32.dll
 0004:0000091c       __imp__GetBkColor@4        0046b91c     gdi32:GDI32.dll
 0004:00000920       __imp__IntersectClipRect@20 0046b920     gdi32:GDI32.dll
 0004:00000924       __imp__ExcludeClipRect@20  0046b924     gdi32:GDI32.dll
 0004:00000928       __imp__SelectClipRgn@8     0046b928     gdi32:GDI32.dll
 0004:0000092c       __imp__ScaleWindowExtEx@24 0046b92c     gdi32:GDI32.dll
 0004:00000930       __imp__SetWindowExtEx@16   0046b930     gdi32:GDI32.dll
 0004:00000934       __imp__SetWindowOrgEx@16   0046b934     gdi32:GDI32.dll
 0004:00000938       __imp__ScaleViewportExtEx@24 0046b938     gdi32:GDI32.dll
 0004:0000093c       __imp__SetViewportExtEx@16 0046b93c     gdi32:GDI32.dll
 0004:00000940       __imp__OffsetViewportOrgEx@16 0046b940     gdi32:GDI32.dll
 0004:00000944       __imp__SetViewportOrgEx@16 0046b944     gdi32:GDI32.dll
 0004:00000948       __imp__SetMapMode@8        0046b948     gdi32:GDI32.dll
 0004:0000094c       __imp__SetStretchBltMode@8 0046b94c     gdi32:GDI32.dll
 0004:00000950       __imp__SetROP2@8           0046b950     gdi32:GDI32.dll
 0004:00000954       __imp__SetPolyFillMode@8   0046b954     gdi32:GDI32.dll
 0004:00000958       __imp__SetBkMode@8         0046b958     gdi32:GDI32.dll
 0004:0000095c       __imp__SelectObject@8      0046b95c     gdi32:GDI32.dll
 0004:00000960       __imp__RestoreDC@8         0046b960     gdi32:GDI32.dll
 0004:00000964       __imp__CreateFontA@56      0046b964     gdi32:GDI32.dll
 0004:00000968       __imp__Rectangle@20        0046b968     gdi32:GDI32.dll
 0004:0000096c       __imp__GetClipBox@8        0046b96c     gdi32:GDI32.dll
 0004:00000970       __imp__SaveDC@4            0046b970     gdi32:GDI32.dll
 0004:00000974       __imp__PatBlt@24           0046b974     gdi32:GDI32.dll
 0004:00000978       __imp__CreateBitmap@20     0046b978     gdi32:GDI32.dll
 0004:0000097c       __imp__CreateRectRgnIndirect@4 0046b97c     gdi32:GDI32.dll
 0004:00000980       __imp__GetTextExtentPointA@16 0046b980     gdi32:GDI32.dll
 0004:00000984       __imp__GetDeviceCaps@8     0046b984     gdi32:GDI32.dll
 0004:00000988       __imp__GetObjectA@12       0046b988     gdi32:GDI32.dll
 0004:0000098c       \177GDI32_NULL_THUNK_DATA  0046b98c     gdi32:GDI32.dll
 0004:00000990       __imp__GetStringTypeW@16   0046b990     kernel32:KERNEL32.dll
 0004:00000994       __imp__LCMapStringA@24     0046b994     kernel32:KERNEL32.dll
 0004:00000998       __imp__GetStringTypeA@20   0046b998     kernel32:KERNEL32.dll
 0004:0000099c       __imp__VirtualAlloc@16     0046b99c     kernel32:KERNEL32.dll
 0004:000009a0       __imp__IsBadWritePtr@8     0046b9a0     kernel32:KERNEL32.dll
 0004:000009a4       __imp__SetStdHandle@8      0046b9a4     kernel32:KERNEL32.dll
 0004:000009a8       __imp__IsBadReadPtr@8      0046b9a8     kernel32:KERNEL32.dll
 0004:000009ac       __imp__HeapDestroy@4       0046b9ac     kernel32:KERNEL32.dll
 0004:000009b0       __imp__Sleep@4             0046b9b0     kernel32:KERNEL32.dll
 0004:000009b4       __imp__LCMapStringW@24     0046b9b4     kernel32:KERNEL32.dll
 0004:000009b8       __imp__VirtualFree@12      0046b9b8     kernel32:KERNEL32.dll
 0004:000009bc       __imp__GetVersionExA@4     0046b9bc     kernel32:KERNEL32.dll
 0004:000009c0       __imp__HeapReAlloc@16      0046b9c0     kernel32:KERNEL32.dll
 0004:000009c4       __imp__CompareStringA@24   0046b9c4     kernel32:KERNEL32.dll
 0004:000009c8       __imp__CompareStringW@24   0046b9c8     kernel32:KERNEL32.dll
 0004:000009cc       __imp__SetEnvironmentVariableA@8 0046b9cc     kernel32:KERNEL32.dll
 0004:000009d0       __imp__HeapCreate@12       0046b9d0     kernel32:KERNEL32.dll
 0004:000009d4       __imp__IsBadCodePtr@4      0046b9d4     kernel32:KERNEL32.dll
 0004:000009d8       __imp__RaiseException@16   0046b9d8     kernel32:KERNEL32.dll
 0004:000009dc       __imp__GetSystemTime@4     0046b9dc     kernel32:KERNEL32.dll
 0004:000009e0       __imp__GetEnvironmentVariableA@12 0046b9e0     kernel32:KERNEL32.dll
 0004:000009e4       __imp__GetEnvironmentStringsW@0 0046b9e4     kernel32:KERNEL32.dll
 0004:000009e8       __imp__RtlUnwind@16        0046b9e8     kernel32:KERNEL32.dll
 0004:000009ec       __imp__GetEnvironmentStrings@0 0046b9ec     kernel32:KERNEL32.dll
 0004:000009f0       __imp__FreeEnvironmentStringsW@4 0046b9f0     kernel32:KERNEL32.dll
 0004:000009f4       __imp__FreeEnvironmentStringsA@4 0046b9f4     kernel32:KERNEL32.dll
 0004:000009f8       __imp__UnhandledExceptionFilter@4 0046b9f8     kernel32:KERNEL32.dll
 0004:000009fc       __imp__SetUnhandledExceptionFilter@4 0046b9fc     kernel32:KERNEL32.dll
 0004:00000a00       __imp__GetFileType@4       0046ba00     kernel32:KERNEL32.dll
 0004:00000a04       __imp__GetStdHandle@4      0046ba04     kernel32:KERNEL32.dll
 0004:00000a08       __imp__SetHandleCount@4    0046ba08     kernel32:KERNEL32.dll
 0004:00000a0c       __imp__GetACP@0            0046ba0c     kernel32:KERNEL32.dll
 0004:00000a10       __imp__HeapSize@12         0046ba10     kernel32:KERNEL32.dll
 0004:00000a14       __imp__TerminateProcess@8  0046ba14     kernel32:KERNEL32.dll
 0004:00000a18       __imp__ExitThread@4        0046ba18     kernel32:KERNEL32.dll
 0004:00000a1c       __imp__WideCharToMultiByte@32 0046ba1c     kernel32:KERNEL32.dll
 0004:00000a20       __imp__CloseHandle@4       0046ba20     kernel32:KERNEL32.dll
 0004:00000a24       __imp__CreateThread@24     0046ba24     kernel32:KERNEL32.dll
 0004:00000a28       __imp__HeapFree@12         0046ba28     kernel32:KERNEL32.dll
 0004:00000a2c       __imp__HeapAlloc@12        0046ba2c     kernel32:KERNEL32.dll
 0004:00000a30       __imp__ExitProcess@4       0046ba30     kernel32:KERNEL32.dll
 0004:00000a34       __imp__GetCommandLineA@0   0046ba34     kernel32:KERNEL32.dll
 0004:00000a38       __imp__GetStartupInfoA@4   0046ba38     kernel32:KERNEL32.dll
 0004:00000a3c       __imp__GetLocalTime@4      0046ba3c     kernel32:KERNEL32.dll
 0004:00000a40       __imp__GetTimeZoneInformation@4 0046ba40     kernel32:KERNEL32.dll
 0004:00000a44       __imp__GetModuleFileNameA@12 0046ba44     kernel32:KERNEL32.dll
 0004:00000a48       __imp__MulDiv@12           0046ba48     kernel32:KERNEL32.dll
 0004:00000a4c       __imp__SetLastError@4      0046ba4c     kernel32:KERNEL32.dll
 0004:00000a50       __imp__InterlockedIncrement@4 0046ba50     kernel32:KERNEL32.dll
 0004:00000a54       __imp__MultiByteToWideChar@24 0046ba54     kernel32:KERNEL32.dll
 0004:00000a58       __imp__GetThreadLocale@0   0046ba58     kernel32:KERNEL32.dll
 0004:00000a5c       __imp__lstrlenA@4          0046ba5c     kernel32:KERNEL32.dll
 0004:00000a60       __imp__LoadLibraryA@4      0046ba60     kernel32:KERNEL32.dll
 0004:00000a64       __imp__FreeLibrary@4       0046ba64     kernel32:KERNEL32.dll
 0004:00000a68       __imp__GetVersion@0        0046ba68     kernel32:KERNEL32.dll
 0004:00000a6c       __imp__lstrcatA@8          0046ba6c     kernel32:KERNEL32.dll
 0004:00000a70       __imp__GetCurrentThreadId@0 0046ba70     kernel32:KERNEL32.dll
 0004:00000a74       __imp__GlobalGetAtomNameA@12 0046ba74     kernel32:KERNEL32.dll
 0004:00000a78       __imp__lstrcmpiA@8         0046ba78     kernel32:KERNEL32.dll
 0004:00000a7c       __imp__GlobalAddAtomA@4    0046ba7c     kernel32:KERNEL32.dll
 0004:00000a80       __imp__GlobalFindAtomA@4   0046ba80     kernel32:KERNEL32.dll
 0004:00000a84       __imp__GlobalDeleteAtom@4  0046ba84     kernel32:KERNEL32.dll
 0004:00000a88       __imp__lstrcpyA@8          0046ba88     kernel32:KERNEL32.dll
 0004:00000a8c       __imp__GetModuleHandleA@4  0046ba8c     kernel32:KERNEL32.dll
 0004:00000a90       __imp__GetProcAddress@8    0046ba90     kernel32:KERNEL32.dll
 0004:00000a94       __imp__GlobalLock@4        0046ba94     kernel32:KERNEL32.dll
 0004:00000a98       __imp__GlobalUnlock@4      0046ba98     kernel32:KERNEL32.dll
 0004:00000a9c       __imp__GlobalFree@4        0046ba9c     kernel32:KERNEL32.dll
 0004:00000aa0       __imp__LockResource@4      0046baa0     kernel32:KERNEL32.dll
 0004:00000aa4       __imp__FindResourceA@12    0046baa4     kernel32:KERNEL32.dll
 0004:00000aa8       __imp__SetErrorMode@4      0046baa8     kernel32:KERNEL32.dll
 0004:00000aac       __imp__InterlockedExchange@8 0046baac     kernel32:KERNEL32.dll
 0004:00000ab0       __imp__GetProfileStringA@20 0046bab0     kernel32:KERNEL32.dll
 0004:00000ab4       __imp__GetTickCount@0      0046bab4     kernel32:KERNEL32.dll
 0004:00000ab8       __imp__GetCurrentDirectoryA@8 0046bab8     kernel32:KERNEL32.dll
 0004:00000abc       __imp__SystemTimeToFileTime@8 0046babc     kernel32:KERNEL32.dll
 0004:00000ac0       __imp__LocalFileTimeToFileTime@8 0046bac0     kernel32:KERNEL32.dll
 0004:00000ac4       __imp__GetFileSize@8       0046bac4     kernel32:KERNEL32.dll
 0004:00000ac8       __imp__GetShortPathNameA@12 0046bac8     kernel32:KERNEL32.dll
 0004:00000acc       __imp__GetStringTypeExA@20 0046bacc     kernel32:KERNEL32.dll
 0004:00000ad0       __imp__GetVolumeInformationA@32 0046bad0     kernel32:KERNEL32.dll
 0004:00000ad4       __imp__FindFirstFileA@8    0046bad4     kernel32:KERNEL32.dll
 0004:00000ad8       __imp__FindClose@4         0046bad8     kernel32:KERNEL32.dll
 0004:00000adc       __imp__DeleteFileA@4       0046badc     kernel32:KERNEL32.dll
 0004:00000ae0       __imp__MoveFileA@8         0046bae0     kernel32:KERNEL32.dll
 0004:00000ae4       __imp__SetEndOfFile@4      0046bae4     kernel32:KERNEL32.dll
 0004:00000ae8       __imp__UnlockFile@20       0046bae8     kernel32:KERNEL32.dll
 0004:00000aec       __imp__LockFile@20         0046baec     kernel32:KERNEL32.dll
 0004:00000af0       __imp__FlushFileBuffers@4  0046baf0     kernel32:KERNEL32.dll
 0004:00000af4       __imp__SetFilePointer@16   0046baf4     kernel32:KERNEL32.dll
 0004:00000af8       __imp__WriteFile@20        0046baf8     kernel32:KERNEL32.dll
 0004:00000afc       __imp__ReadFile@20         0046bafc     kernel32:KERNEL32.dll
 0004:00000b00       __imp__CreateFileA@28      0046bb00     kernel32:KERNEL32.dll
 0004:00000b04       __imp__GetCurrentProcess@0 0046bb04     kernel32:KERNEL32.dll
 0004:00000b08       __imp__DuplicateHandle@28  0046bb08     kernel32:KERNEL32.dll
 0004:00000b0c       __imp__FormatMessageA@28   0046bb0c     kernel32:KERNEL32.dll
 0004:00000b10       __imp__FileTimeToLocalFileTime@8 0046bb10     kernel32:KERNEL32.dll
 0004:00000b14       __imp__FileTimeToSystemTime@8 0046bb14     kernel32:KERNEL32.dll
 0004:00000b18       __imp__GetOEMCP@0          0046bb18     kernel32:KERNEL32.dll
 0004:00000b1c       __imp__GetCPInfo@8         0046bb1c     kernel32:KERNEL32.dll
 0004:00000b20       __imp__GetProcessVersion@4 0046bb20     kernel32:KERNEL32.dll
 0004:00000b24       __imp__TlsGetValue@4       0046bb24     kernel32:KERNEL32.dll
 0004:00000b28       __imp__LocalReAlloc@12     0046bb28     kernel32:KERNEL32.dll
 0004:00000b2c       __imp__TlsSetValue@8       0046bb2c     kernel32:KERNEL32.dll
 0004:00000b30       __imp__EnterCriticalSection@4 0046bb30     kernel32:KERNEL32.dll
 0004:00000b34       __imp__GlobalReAlloc@12    0046bb34     kernel32:KERNEL32.dll
 0004:00000b38       __imp__LeaveCriticalSection@4 0046bb38     kernel32:KERNEL32.dll
 0004:00000b3c       __imp__TlsFree@4           0046bb3c     kernel32:KERNEL32.dll
 0004:00000b40       __imp__GlobalHandle@4      0046bb40     kernel32:KERNEL32.dll
 0004:00000b44       __imp__DeleteCriticalSection@4 0046bb44     kernel32:KERNEL32.dll
 0004:00000b48       __imp__TlsAlloc@0          0046bb48     kernel32:KERNEL32.dll
 0004:00000b4c       __imp__InitializeCriticalSection@4 0046bb4c     kernel32:KERNEL32.dll
 0004:00000b50       __imp__LocalFree@4         0046bb50     kernel32:KERNEL32.dll
 0004:00000b54       __imp__LocalAlloc@8        0046bb54     kernel32:KERNEL32.dll
 0004:00000b58       __imp__SizeofResource@8    0046bb58     kernel32:KERNEL32.dll
 0004:00000b5c       __imp__GlobalFlags@4       0046bb5c     kernel32:KERNEL32.dll
 0004:00000b60       __imp__WritePrivateProfileStringA@16 0046bb60     kernel32:KERNEL32.dll
 0004:00000b64       __imp__GetPrivateProfileStringA@24 0046bb64     kernel32:KERNEL32.dll
 0004:00000b68       __imp__GetPrivateProfileIntA@16 0046bb68     kernel32:KERNEL32.dll
 0004:00000b6c       __imp__GlobalAlloc@8       0046bb6c     kernel32:KERNEL32.dll
 0004:00000b70       __imp__GetCurrentThread@0  0046bb70     kernel32:KERNEL32.dll
 0004:00000b74       __imp__lstrcmpA@8          0046bb74     kernel32:KERNEL32.dll
 0004:00000b78       __imp__GetLastError@0      0046bb78     kernel32:KERNEL32.dll
 0004:00000b7c       __imp__GetDiskFreeSpaceA@20 0046bb7c     kernel32:KERNEL32.dll
 0004:00000b80       __imp__GetFileTime@16      0046bb80     kernel32:KERNEL32.dll
 0004:00000b84       __imp__SetFileTime@16      0046bb84     kernel32:KERNEL32.dll
 0004:00000b88       __imp__GetFullPathNameA@16 0046bb88     kernel32:KERNEL32.dll
 0004:00000b8c       __imp__lstrcpynA@12        0046bb8c     kernel32:KERNEL32.dll
 0004:00000b90       __imp__GetTempFileNameA@16 0046bb90     kernel32:KERNEL32.dll
 0004:00000b94       __imp__LoadResource@8      0046bb94     kernel32:KERNEL32.dll
 0004:00000b98       __imp__GetFileAttributesA@4 0046bb98     kernel32:KERNEL32.dll
 0004:00000b9c       __imp__SetThreadPriority@8 0046bb9c     kernel32:KERNEL32.dll
 0004:00000ba0       __imp__CreateEventA@16     0046bba0     kernel32:KERNEL32.dll
 0004:00000ba4       __imp__SuspendThread@4     0046bba4     kernel32:KERNEL32.dll
 0004:00000ba8       __imp__WaitForSingleObject@8 0046bba8     kernel32:KERNEL32.dll
 0004:00000bac       __imp__ResumeThread@4      0046bbac     kernel32:KERNEL32.dll
 0004:00000bb0       __imp__SetEvent@4          0046bbb0     kernel32:KERNEL32.dll
 0004:00000bb4       __imp__InterlockedDecrement@4 0046bbb4     kernel32:KERNEL32.dll
 0004:00000bb8       \177KERNEL32_NULL_THUNK_DATA 0046bbb8     kernel32:KERNEL32.dll
 0004:00000bbc       __imp__SysStringLen@4      0046bbbc     oleaut32:OLEAUT32.dll
 0004:00000bc0       __imp__SysAllocStringByteLen@8 0046bbc0     oleaut32:OLEAUT32.dll
 0004:00000bc4       __imp__VariantCopy@8       0046bbc4     oleaut32:OLEAUT32.dll
 0004:00000bc8       __imp__VariantTimeToSystemTime@12 0046bbc8     oleaut32:OLEAUT32.dll
 0004:00000bcc       __imp__SysAllocStringLen@8 0046bbcc     oleaut32:OLEAUT32.dll
 0004:00000bd0       __imp__SysAllocString@4    0046bbd0     oleaut32:OLEAUT32.dll
 0004:00000bd4       __imp__VariantClear@4      0046bbd4     oleaut32:OLEAUT32.dll
 0004:00000bd8       __imp__SysFreeString@4     0046bbd8     oleaut32:OLEAUT32.dll
 0004:00000bdc       __imp__VariantChangeType@16 0046bbdc     oleaut32:OLEAUT32.dll
 0004:00000be0       \177OLEAUT32_NULL_THUNK_DATA 0046bbe0     oleaut32:OLEAUT32.dll
 0004:00000be4       __imp__OleCreateFontIndirect@12 0046bbe4     olepro32:OLEPRO32.DLL
 0004:00000be8       \177OLEPRO32_NULL_THUNK_DATA 0046bbe8     olepro32:OLEPRO32.DLL
 0004:00000bec       __imp__SHGetFileInfoA@20   0046bbec     shell32:SHELL32.dll
 0004:00000bf0       __imp__ExtractIconA@12     0046bbf0     shell32:SHELL32.dll
 0004:00000bf4       __imp__DragQueryFileA@16   0046bbf4     shell32:SHELL32.dll
 0004:00000bf8       __imp__DragFinish@4        0046bbf8     shell32:SHELL32.dll
 0004:00000bfc       \177SHELL32_NULL_THUNK_DATA 0046bbfc     shell32:SHELL32.dll
 0004:00000c00       __imp__FindWindowA@8       0046bc00     user32:USER32.dll
 0004:00000c04       __imp__CharUpperA@4        0046bc04     user32:USER32.dll
 0004:00000c08       __imp__LockWindowUpdate@4  0046bc08     user32:USER32.dll
 0004:00000c0c       __imp__GetDCEx@12          0046bc0c     user32:USER32.dll
 0004:00000c10       __imp__SetCapture@4        0046bc10     user32:USER32.dll
 0004:00000c14       __imp__WindowFromPoint@8   0046bc14     user32:USER32.dll
 0004:00000c18       __imp__KillTimer@8         0046bc18     user32:USER32.dll
 0004:00000c1c       __imp__SetTimer@16         0046bc1c     user32:USER32.dll
 0004:00000c20       __imp__GetMenuStringA@20   0046bc20     user32:USER32.dll
 0004:00000c24       __imp__InsertMenuA@20      0046bc24     user32:USER32.dll
 0004:00000c28       __imp__DestroyIcon@4       0046bc28     user32:USER32.dll
 0004:00000c2c       __imp__LoadStringA@16      0046bc2c     user32:USER32.dll
 0004:00000c30       __imp__CopyAcceleratorTableA@12 0046bc30     user32:USER32.dll
 0004:00000c34       __imp__InflateRect@12      0046bc34     user32:USER32.dll
 0004:00000c38       __imp__GetSysColorBrush@4  0046bc38     user32:USER32.dll
 0004:00000c3c       __imp__GetClassNameA@12    0046bc3c     user32:USER32.dll
 0004:00000c40       __imp__SetRect@20          0046bc40     user32:USER32.dll
 0004:00000c44       __imp__LoadCursorA@8       0046bc44     user32:USER32.dll
 0004:00000c48       __imp__DestroyCursor@4     0046bc48     user32:USER32.dll
 0004:00000c4c       __imp__MapDialogRect@8     0046bc4c     user32:USER32.dll
 0004:00000c50       __imp__SetWindowContextHelpId@8 0046bc50     user32:USER32.dll
 0004:00000c54       __imp__ShowOwnedPopups@8   0046bc54     user32:USER32.dll
 0004:00000c58       __imp__PostQuitMessage@4   0046bc58     user32:USER32.dll
 0004:00000c5c       __imp__GetSystemMenu@8     0046bc5c     user32:USER32.dll
 0004:00000c60       __imp__DeleteMenu@12       0046bc60     user32:USER32.dll
 0004:00000c64       __imp__AppendMenuA@16      0046bc64     user32:USER32.dll
 0004:00000c68       __imp__IsRectEmpty@4       0046bc68     user32:USER32.dll
 0004:00000c6c       __imp__SetParent@8         0046bc6c     user32:USER32.dll
 0004:00000c70       __imp__PtInRect@12         0046bc70     user32:USER32.dll
 0004:00000c74       __imp__IsZoomed@4          0046bc74     user32:USER32.dll
 0004:00000c78       __imp__BringWindowToTop@4  0046bc78     user32:USER32.dll
 0004:00000c7c       __imp__UnpackDDElParam@16  0046bc7c     user32:USER32.dll
 0004:00000c80       __imp__ReuseDDElParam@20   0046bc80     user32:USER32.dll
 0004:00000c84       __imp__SetMenu@8           0046bc84     user32:USER32.dll
 0004:00000c88       __imp__LoadMenuA@8         0046bc88     user32:USER32.dll
 0004:00000c8c       __imp__GetDesktopWindow@0  0046bc8c     user32:USER32.dll
 0004:00000c90       __imp__SetCursor@4         0046bc90     user32:USER32.dll
 0004:00000c94       __imp__ReleaseCapture@0    0046bc94     user32:USER32.dll
 0004:00000c98       __imp__TranslateAcceleratorA@12 0046bc98     user32:USER32.dll
 0004:00000c9c       __imp__LoadAcceleratorsA@8 0046bc9c     user32:USER32.dll
 0004:00000ca0       __imp__SetRectEmpty@4      0046bca0     user32:USER32.dll
 0004:00000ca4       __imp__GetMessageA@16      0046bca4     user32:USER32.dll
 0004:00000ca8       __imp__TranslateMessage@4  0046bca8     user32:USER32.dll
 0004:00000cac       __imp__ValidateRect@8      0046bcac     user32:USER32.dll
 0004:00000cb0       __imp__GetCursorPos@4      0046bcb0     user32:USER32.dll
 0004:00000cb4       __imp__GrayStringA@36      0046bcb4     user32:USER32.dll
 0004:00000cb8       __imp__DrawTextA@20        0046bcb8     user32:USER32.dll
 0004:00000cbc       __imp__TabbedTextOutA@32   0046bcbc     user32:USER32.dll
 0004:00000cc0       __imp__EndPaint@8          0046bcc0     user32:USER32.dll
 0004:00000cc4       __imp__BeginPaint@8        0046bcc4     user32:USER32.dll
 0004:00000cc8       __imp__GetWindowDC@4       0046bcc8     user32:USER32.dll
 0004:00000ccc       __imp__ClientToScreen@8    0046bccc     user32:USER32.dll
 0004:00000cd0       __imp__CharNextA@4         0046bcd0     user32:USER32.dll
 0004:00000cd4       __imp__ReleaseDC@8         0046bcd4     user32:USER32.dll
 0004:00000cd8       __imp__wvsprintfA@12       0046bcd8     user32:USER32.dll
 0004:00000cdc       __imp__MessageBeep@4       0046bcdc     user32:USER32.dll
 0004:00000ce0       __imp__GetNextDlgGroupItem@12 0046bce0     user32:USER32.dll
 0004:00000ce4       __imp__SetWindowTextA@8    0046bce4     user32:USER32.dll
 0004:00000ce8       __imp__IsDialogMessageA@8  0046bce8     user32:USER32.dll
 0004:00000cec       __imp__SetDlgItemTextA@12  0046bcec     user32:USER32.dll
 0004:00000cf0       __imp__GetMenuCheckMarkDimensions@0 0046bcf0     user32:USER32.dll
 0004:00000cf4       __imp__LoadBitmapA@8       0046bcf4     user32:USER32.dll
 0004:00000cf8       __imp__GetMenuState@12     0046bcf8     user32:USER32.dll
 0004:00000cfc       __imp__ModifyMenuA@20      0046bcfc     user32:USER32.dll
 0004:00000d00       __imp__SetMenuItemBitmaps@20 0046bd00     user32:USER32.dll
 0004:00000d04       __imp__CheckMenuItem@12    0046bd04     user32:USER32.dll
 0004:00000d08       __imp__EnableMenuItem@12   0046bd08     user32:USER32.dll
 0004:00000d0c       __imp__LoadIconA@8         0046bd0c     user32:USER32.dll
 0004:00000d10       __imp__PostMessageA@16     0046bd10     user32:USER32.dll
 0004:00000d14       __imp__SendDlgItemMessageA@20 0046bd14     user32:USER32.dll
 0004:00000d18       __imp__MapWindowPoints@16  0046bd18     user32:USER32.dll
 0004:00000d1c       __imp__GetSysColor@4       0046bd1c     user32:USER32.dll
 0004:00000d20       __imp__DispatchMessageA@4  0046bd20     user32:USER32.dll
 0004:00000d24       __imp__GetFocus@0          0046bd24     user32:USER32.dll
 0004:00000d28       __imp__SetFocus@4          0046bd28     user32:USER32.dll
 0004:00000d2c       __imp__AdjustWindowRectEx@16 0046bd2c     user32:USER32.dll
 0004:00000d30       __imp__ScreenToClient@8    0046bd30     user32:USER32.dll
 0004:00000d34       __imp__EqualRect@8         0046bd34     user32:USER32.dll
 0004:00000d38       __imp__DeferWindowPos@32   0046bd38     user32:USER32.dll
 0004:00000d3c       __imp__GetClientRect@8     0046bd3c     user32:USER32.dll
 0004:00000d40       __imp__BeginDeferWindowPos@4 0046bd40     user32:USER32.dll
 0004:00000d44       __imp__CopyRect@8          0046bd44     user32:USER32.dll
 0004:00000d48       __imp__EndDeferWindowPos@4 0046bd48     user32:USER32.dll
 0004:00000d4c       __imp__IsWindowVisible@4   0046bd4c     user32:USER32.dll
 0004:00000d50       __imp__ScrollWindow@20     0046bd50     user32:USER32.dll
 0004:00000d54       __imp__GetScrollInfo@12    0046bd54     user32:USER32.dll
 0004:00000d58       __imp__SetScrollInfo@16    0046bd58     user32:USER32.dll
 0004:00000d5c       __imp__ShowScrollBar@12    0046bd5c     user32:USER32.dll
 0004:00000d60       __imp__GetScrollRange@16   0046bd60     user32:USER32.dll
 0004:00000d64       __imp__SetScrollRange@20   0046bd64     user32:USER32.dll
 0004:00000d68       __imp__GetScrollPos@8      0046bd68     user32:USER32.dll
 0004:00000d6c       __imp__SetScrollPos@16     0046bd6c     user32:USER32.dll
 0004:00000d70       __imp__GetTopWindow@4      0046bd70     user32:USER32.dll
 0004:00000d74       __imp__MessageBoxA@16      0046bd74     user32:USER32.dll
 0004:00000d78       __imp__IsChild@8           0046bd78     user32:USER32.dll
 0004:00000d7c       __imp__GetCapture@0        0046bd7c     user32:USER32.dll
 0004:00000d80       __imp__WinHelpA@16         0046bd80     user32:USER32.dll
 0004:00000d84       __imp__wsprintfA           0046bd84     user32:USER32.dll
 0004:00000d88       __imp__GetClassInfoA@12    0046bd88     user32:USER32.dll
 0004:00000d8c       __imp__RegisterClassA@4    0046bd8c     user32:USER32.dll
 0004:00000d90       __imp__GetMenu@4           0046bd90     user32:USER32.dll
 0004:00000d94       __imp__GetMenuItemCount@4  0046bd94     user32:USER32.dll
 0004:00000d98       __imp__GetSubMenu@8        0046bd98     user32:USER32.dll
 0004:00000d9c       __imp__GetMenuItemID@8     0046bd9c     user32:USER32.dll
 0004:00000da0       __imp__GetWindowTextLengthA@4 0046bda0     user32:USER32.dll
 0004:00000da4       __imp__GetWindowTextA@12   0046bda4     user32:USER32.dll
 0004:00000da8       __imp__GetDlgCtrlID@4      0046bda8     user32:USER32.dll
 0004:00000dac       __imp__GetTabbedTextExtentA@20 0046bdac     user32:USER32.dll
 0004:00000db0       __imp__RegisterClipboardFormatA@4 0046bdb0     user32:USER32.dll
 0004:00000db4       __imp__PostThreadMessageA@16 0046bdb4     user32:USER32.dll
 0004:00000db8       __imp__MoveWindow@24       0046bdb8     user32:USER32.dll
 0004:00000dbc       __imp__ShowWindow@8        0046bdbc     user32:USER32.dll
 0004:00000dc0       __imp__PeekMessageA@20     0046bdc0     user32:USER32.dll
 0004:00000dc4       __imp__GetKeyState@4       0046bdc4     user32:USER32.dll
 0004:00000dc8       __imp__DefWindowProcA@16   0046bdc8     user32:USER32.dll
 0004:00000dcc       __imp__CreateWindowExA@48  0046bdcc     user32:USER32.dll
 0004:00000dd0       __imp__SetWindowsHookExA@16 0046bdd0     user32:USER32.dll
 0004:00000dd4       __imp__CallNextHookEx@16   0046bdd4     user32:USER32.dll
 0004:00000dd8       __imp__GetClassLongA@8     0046bdd8     user32:USER32.dll
 0004:00000ddc       __imp__SetPropA@12         0046bddc     user32:USER32.dll
 0004:00000de0       __imp__UnhookWindowsHookEx@4 0046bde0     user32:USER32.dll
 0004:00000de4       __imp__GetPropA@8          0046bde4     user32:USER32.dll
 0004:00000de8       __imp__CallWindowProcA@20  0046bde8     user32:USER32.dll
 0004:00000dec       __imp__RemovePropA@8       0046bdec     user32:USER32.dll
 0004:00000df0       __imp__GetMessageTime@0    0046bdf0     user32:USER32.dll
 0004:00000df4       __imp__GetMessagePos@0     0046bdf4     user32:USER32.dll
 0004:00000df8       __imp__GetLastActivePopup@4 0046bdf8     user32:USER32.dll
 0004:00000dfc       __imp__GetForegroundWindow@0 0046bdfc     user32:USER32.dll
 0004:00000e00       __imp__SetForegroundWindow@4 0046be00     user32:USER32.dll
 0004:00000e04       __imp__GetWindow@8         0046be04     user32:USER32.dll
 0004:00000e08       __imp__SetWindowLongA@12   0046be08     user32:USER32.dll
 0004:00000e0c       __imp__SetWindowPos@28     0046be0c     user32:USER32.dll
 0004:00000e10       __imp__RegisterWindowMessageA@4 0046be10     user32:USER32.dll
 0004:00000e14       __imp__OffsetRect@12       0046be14     user32:USER32.dll
 0004:00000e18       __imp__IntersectRect@12    0046be18     user32:USER32.dll
 0004:00000e1c       __imp__SystemParametersInfoA@16 0046be1c     user32:USER32.dll
 0004:00000e20       __imp__IsIconic@4          0046be20     user32:USER32.dll
 0004:00000e24       __imp__GetWindowPlacement@8 0046be24     user32:USER32.dll
 0004:00000e28       __imp__GetWindowRect@8     0046be28     user32:USER32.dll
 0004:00000e2c       __imp__GetNextDlgTabItem@12 0046be2c     user32:USER32.dll
 0004:00000e30       __imp__EndDialog@8         0046be30     user32:USER32.dll
 0004:00000e34       __imp__GetActiveWindow@0   0046be34     user32:USER32.dll
 0004:00000e38       __imp__SetActiveWindow@4   0046be38     user32:USER32.dll
 0004:00000e3c       __imp__IsWindow@4          0046be3c     user32:USER32.dll
 0004:00000e40       __imp__GetSystemMetrics@4  0046be40     user32:USER32.dll
 0004:00000e44       __imp__CreateDialogIndirectParamA@20 0046be44     user32:USER32.dll
 0004:00000e48       __imp__DestroyWindow@4     0046be48     user32:USER32.dll
 0004:00000e4c       __imp__GetParent@4         0046be4c     user32:USER32.dll
 0004:00000e50       __imp__GetWindowLongA@8    0046be50     user32:USER32.dll
 0004:00000e54       __imp__GetDlgItem@8        0046be54     user32:USER32.dll
 0004:00000e58       __imp__IsWindowEnabled@4   0046be58     user32:USER32.dll
 0004:00000e5c       __imp__UpdateWindow@4      0046be5c     user32:USER32.dll
 0004:00000e60       __imp__InvalidateRect@12   0046be60     user32:USER32.dll
 0004:00000e64       __imp__SendMessageA@16     0046be64     user32:USER32.dll
 0004:00000e68       __imp__InvertRect@8        0046be68     user32:USER32.dll
 0004:00000e6c       __imp__FillRect@12         0046be6c     user32:USER32.dll
 0004:00000e70       __imp__GetDC@4             0046be70     user32:USER32.dll
 0004:00000e74       __imp__EnableWindow@8      0046be74     user32:USER32.dll
 0004:00000e78       __imp__DestroyMenu@4       0046be78     user32:USER32.dll
 0004:00000e7c       __imp__HideCaret@4         0046be7c     user32:USER32.dll
 0004:00000e80       __imp__ShowCaret@4         0046be80     user32:USER32.dll
 0004:00000e84       __imp__UnregisterClassA@8  0046be84     user32:USER32.dll
 0004:00000e88       __imp__DrawFocusRect@8     0046be88     user32:USER32.dll
 0004:00000e8c       __imp__DefDlgProcA@16      0046be8c     user32:USER32.dll
 0004:00000e90       __imp__ExcludeUpdateRgn@8  0046be90     user32:USER32.dll
 0004:00000e94       __imp__IsWindowUnicode@4   0046be94     user32:USER32.dll
 0004:00000e98       \177USER32_NULL_THUNK_DATA 0046be98     user32:USER32.dll
 0004:00000e9c       __imp__DocumentPropertiesA@24 0046be9c     winspool:WINSPOOL.DRV
 0004:00000ea0       __imp__OpenPrinterA@12     0046bea0     winspool:WINSPOOL.DRV
 0004:00000ea4       __imp__ClosePrinter@4      0046bea4     winspool:WINSPOOL.DRV
 0004:00000ea8       \177WINSPOOL_NULL_THUNK_DATA 0046bea8     winspool:WINSPOOL.DRV
 0004:00000eac       __imp__GetSaveFileNameA@4  0046beac     comdlg32:comdlg32.dll
 0004:00000eb0       __imp__GetOpenFileNameA@4  0046beb0     comdlg32:comdlg32.dll
 0004:00000eb4       __imp__PrintDlgA@4         0046beb4     comdlg32:comdlg32.dll
 0004:00000eb8       __imp__GetFileTitleA@12    0046beb8     comdlg32:comdlg32.dll
 0004:00000ebc       __imp__CommDlgExtendedError@0 0046bebc     comdlg32:comdlg32.dll
 0004:00000ec0       \177comdlg32_NULL_THUNK_DATA 0046bec0     comdlg32:comdlg32.dll
 0004:00000ec4       __imp__CoTaskMemAlloc@4    0046bec4     ole32:ole32.dll
 0004:00000ec8       __imp__CoTaskMemFree@4     0046bec8     ole32:ole32.dll
 0004:00000ecc       __imp__CLSIDFromString@8   0046becc     ole32:ole32.dll
 0004:00000ed0       __imp__CLSIDFromProgID@8   0046bed0     ole32:ole32.dll
 0004:00000ed4       __imp__OleInitialize@4     0046bed4     ole32:ole32.dll
 0004:00000ed8       __imp__OleUninitialize@0   0046bed8     ole32:ole32.dll
 0004:00000edc       __imp__CoFreeUnusedLibraries@0 0046bedc     ole32:ole32.dll
 0004:00000ee0       __imp__CoRegisterMessageFilter@8 0046bee0     ole32:ole32.dll
 0004:00000ee4       __imp__CoGetClassObject@20 0046bee4     ole32:ole32.dll
 0004:00000ee8       __imp__CoRevokeClassObject@4 0046bee8     ole32:ole32.dll
 0004:00000eec       __imp__OleFlushClipboard@0 0046beec     ole32:ole32.dll
 0004:00000ef0       __imp__OleIsCurrentClipboard@4 0046bef0     ole32:ole32.dll
 0004:00000ef4       __imp__CreateILockBytesOnHGlobal@12 0046bef4     ole32:ole32.dll
 0004:00000ef8       __imp__StgCreateDocfileOnILockBytes@16 0046bef8     ole32:ole32.dll
 0004:00000efc       __imp__StgOpenStorageOnILockBytes@24 0046befc     ole32:ole32.dll
 0004:00000f00       \177ole32_NULL_THUNK_DATA  0046bf00     ole32:ole32.dll
 0004:00000f04       __imp__OleUIBusyA@4        0046bf04     oledlg:oledlg.dll
 0004:00000f08       \177oledlg_NULL_THUNK_DATA 0046bf08     oledlg:oledlg.dll

 entry point at        0001:0001b19a

 Static symbols

 0001:00012340       _$E229                     00413340 f   StdAfx.obj
 0001:00012360       _$E228                     00413360 f   StdAfx.obj
 0001:00012370       _$E215                     00413370 f   StdAfx.obj
 0001:00012380       _$E212                     00413380 f   StdAfx.obj
 0001:00012390       _$E214                     00413390 f   StdAfx.obj
 0001:000123a0       _$E213                     004133a0 f   StdAfx.obj
 0001:000123b0       _$E221                     004133b0 f   StdAfx.obj
 0001:000123c0       _$E218                     004133c0 f   StdAfx.obj
 0001:000123d0       _$E220                     004133d0 f   StdAfx.obj
 0001:000123e0       _$E219                     004133e0 f   StdAfx.obj
 0001:00012310       _$E230                     00413310 f   scrollbar.obj
 0001:00012330       _$E229                     00413330 f   scrollbar.obj
 0001:000121e0       _$E229                     004131e0 f   rowcursor.obj
 0001:00012200       _$E228                     00413200 f   rowcursor.obj
 0001:000121b0       _$E229                     004131b0 f   picture.obj
 0001:000121d0       _$E228                     004131d0 f   picture.obj
 0001:00012180       _$E237                     00413180 f   OptRokView.obj
 0001:000121a0       _$E236                     004131a0 f   OptRokView.obj
 0001:00011e30       _$E238                     00412e30 f   OptRokova.obj
 0001:00011e40       _$E235                     00412e40 f   OptRokova.obj
 0001:00011e50       _$E237                     00412e50 f   OptRokova.obj
 0001:00011e60       _$E236                     00412e60 f   OptRokova.obj
 0001:00012040       _$E247                     00413040 f   OptRokova.obj
 0001:00012060       _$E246                     00413060 f   OptRokova.obj
 0001:00011d80       _$E256                     00412d80 f   OptRokDoc.obj
 0001:00011da0       _$E255                     00412da0 f   OptRokDoc.obj
 0001:0000ce20       _$E229                     0040de20 f   Optimization.obj
 0001:0000ce40       _$E228                     0040de40 f   Optimization.obj
 0001:00009930       _$E230                     0040a930 f   msflexgrid.obj
 0001:00009950       _$E229                     0040a950 f   msflexgrid.obj
 0001:00009780       _$E229                     0040a780 f   ModelPar.obj
 0001:000097a0       _$E228                     0040a7a0 f   ModelPar.obj
 0001:00008000       _$E234                     00409000 f   MainFrm.obj
 0001:00008020       _$E233                     00409020 f   MainFrm.obj
 0001:00007d50       _$E229                     00408d50 f   font.obj
 0001:00007d70       _$E228                     00408d70 f   font.obj
 0001:00007d20       _$E240                     00408d20 f   DlgVizualniPrikaz.obj
 0001:00007d40       _$E239                     00408d40 f   DlgVizualniPrikaz.obj
 0001:00006230       _$E234                     00407230 f   DlgPregledZelja.obj
 0001:00006250       _$E233                     00407250 f   DlgPregledZelja.obj
 0001:000060e0       _$E234                     004070e0 f   DlgPopisIspita.obj
 0001:00006100       _$E233                     00407100 f   DlgPopisIspita.obj
 0001:00005e30       _$E233                     00406e30 f   DlgParamOptimizacije.obj
 0001:00005e50       _$E232                     00406e50 f   DlgParamOptimizacije.obj
 0001:00005bc0       _$E233                     00406bc0 f   DlgParametriRoka.obj
 0001:00005be0       _$E232                     00406be0 f   DlgParametriRoka.obj
 0001:00005540       _$E242                     00406540 f   DlgOptim.obj
 0001:00005560       _$E241                     00406560 f   DlgOptim.obj
 0001:000029f0       _$E233                     004039f0 f   DlgIspitiIstiDan.obj
 0001:00002a10       _$E232                     00403a10 f   DlgIspitiIstiDan.obj
 0001:00002790       _$E239                     00403790 f   Data.obj
 0001:000027e0       _$E232                     004037e0 f   Data.obj
 0001:000027f0       _$E235                     004037f0 f   Data.obj
 0001:00002800       _$E238                     00403800 f   Data.obj
 0001:0002c4c0       _$E366                     0042d4c0 f   nafxcw:appmodul.obj
 0001:0002c4c5       _$E365                     0042d4c5 f   nafxcw:appmodul.obj
 0001:000487cd       _$E368                     004497cd f   nafxcw:oledata.obj
 0001:000487d7       _$E365                     004497d7 f   nafxcw:oledata.obj
 0001:000487d8       _$E367                     004497d8 f   nafxcw:oledata.obj
 0001:000487e4       _$E366                     004497e4 f   nafxcw:oledata.obj
 0001:00048367       _$E366                     00449367 f   nafxcw:oleinit.obj
 0001:0004836c       _$E365                     0044936c f   nafxcw:oleinit.obj
 0001:00043aa6       _$E366                     00444aa6 f   nafxcw:winmini.obj
 0001:00043aab       _$E365                     00444aab f   nafxcw:winmini.obj
 0001:00043532       _$E366                     00444532 f   nafxcw:wingdix.obj
 0001:00043537       _$E365                     00444537 f   nafxcw:wingdix.obj
 0001:00047789       _$E371                     00448789 f   nafxcw:winmenu.obj
 0001:00047793       _$E367                     00448793 f   nafxcw:winmenu.obj
 0001:000477a2       _$E370                     004487a2 f   nafxcw:winmenu.obj
 0001:000477ae       _$E368                     004487ae f   nafxcw:winmenu.obj
 0001:000476ee       _$E366                     004486ee f   nafxcw:afxdbcs.obj
 0001:000476f3       _$E365                     004486f3 f   nafxcw:afxdbcs.obj
 0001:000475b4       _$E368                     004485b4 f   nafxcw:auxdata.obj
 0001:000475be       _$E365                     004485be f   nafxcw:auxdata.obj
 0001:000475c8       _$E367                     004485c8 f   nafxcw:auxdata.obj
 0001:000475d4       _$E366                     004485d4 f   nafxcw:auxdata.obj
 0001:00047568       _$E368                     00448568 f   nafxcw:app3d.obj
 0001:00047572       _$E365                     00448572 f   nafxcw:app3d.obj
 0001:00047573       _$E367                     00448573 f   nafxcw:app3d.obj
 0001:0004757f       _$E366                     0044857f f   nafxcw:app3d.obj
 0001:0004758e       _$E373                     0044858e f   nafxcw:app3d.obj
 0001:00047598       _$E370                     00448598 f   nafxcw:app3d.obj
 0001:00047599       _$E372                     00448599 f   nafxcw:app3d.obj
 0001:000475a5       _$E371                     004485a5 f   nafxcw:app3d.obj
 0001:00046e62       _$E368                     00447e62 f   nafxcw:except.obj
 0001:00046e6c       _$E365                     00447e6c f   nafxcw:except.obj
 0001:00046e7e       _$E367                     00447e7e f   nafxcw:except.obj
 0001:00046e8a       _$E366                     00447e8a f   nafxcw:except.obj
 0001:00046e9a       _$E373                     00447e9a f   nafxcw:except.obj
 0001:00046ea4       _$E370                     00447ea4 f   nafxcw:except.obj
 0001:00046eb6       _$E372                     00447eb6 f   nafxcw:except.obj
 0001:00046ec2       _$E371                     00447ec2 f   nafxcw:except.obj
 0001:000136dd       _$E376                     004146dd f   nafxcw:occmgr.obj
 0001:000136e7       _$E373                     004146e7 f   nafxcw:occmgr.obj
 0001:000136e8       _$E375                     004146e8 f   nafxcw:occmgr.obj
 0001:000136f4       _$E374                     004146f4 f   nafxcw:occmgr.obj
 0001:00046ab7       _$E368                     00447ab7 f   nafxcw:appcore.obj
 0001:00046ac1       _$E365                     00447ac1 f   nafxcw:appcore.obj
 0001:00046ac2       _$E367                     00447ac2 f   nafxcw:appcore.obj
 0001:00046ace       _$E366                     00447ace f   nafxcw:appcore.obj
 0001:00040f22       _$E366                     00441f22 f   nafxcw:winfrm.obj
 0001:00040f27       _$E365                     00441f27 f   nafxcw:winfrm.obj
 0001:00040f45       _$E369                     00441f45 f   nafxcw:winfrm.obj
 0001:00040f4a       _$E368                     00441f4a f   nafxcw:winfrm.obj
 0001:00033624       _$E368                     00434624 f   nafxcw:strcore.obj
 0001:0003362e       _$E365                     0043462e f   nafxcw:strcore.obj
 0001:0003363d       _$E367                     0043463d f   nafxcw:strcore.obj
 0001:00033649       _$E366                     00434649 f   nafxcw:strcore.obj
 0001:00033653       _$E373                     00434653 f   nafxcw:strcore.obj
 0001:0003365d       _$E370                     0043465d f   nafxcw:strcore.obj
 0001:0003366f       _$E372                     0043466f f   nafxcw:strcore.obj
 0001:0003367b       _$E371                     0043467b f   nafxcw:strcore.obj
 0001:00033685       _$E378                     00434685 f   nafxcw:strcore.obj
 0001:0003368f       _$E375                     0043468f f   nafxcw:strcore.obj
 0001:000336a1       _$E377                     004346a1 f   nafxcw:strcore.obj
 0001:000336ad       _$E376                     004346ad f   nafxcw:strcore.obj
 0001:000336b7       _$E383                     004346b7 f   nafxcw:strcore.obj
 0001:000336c1       _$E380                     004346c1 f   nafxcw:strcore.obj
 0001:000336d3       _$E382                     004346d3 f   nafxcw:strcore.obj
 0001:000336df       _$E381                     004346df f   nafxcw:strcore.obj
 0001:000455b1       _$E368                     004465b1 f   nafxcw:afxstate.obj
 0001:000455bb       _$E365                     004465bb f   nafxcw:afxstate.obj
 0001:000455bc       _$E367                     004465bc f   nafxcw:afxstate.obj
 0001:000455c8       _$E366                     004465c8 f   nafxcw:afxstate.obj
 0001:000457ad       _$E373                     004467ad f   nafxcw:afxstate.obj
 0001:000457b7       _$E370                     004467b7 f   nafxcw:afxstate.obj
 0001:000457b8       _$E372                     004467b8 f   nafxcw:afxstate.obj
 0001:000457c4       _$E371                     004467c4 f   nafxcw:afxstate.obj
 0001:00044f91       _$E372                     00445f91 f   nafxcw:wingdi.obj
 0001:00044f9b       _$E369                     00445f9b f   nafxcw:wingdi.obj
 0001:00044fad       _$E371                     00445fad f   nafxcw:wingdi.obj
 0001:00044fb9       _$E370                     00445fb9 f   nafxcw:wingdi.obj
 0001:00044fc9       _$E377                     00445fc9 f   nafxcw:wingdi.obj
 0001:00044fd3       _$E374                     00445fd3 f   nafxcw:wingdi.obj
 0001:00044fe5       _$E376                     00445fe5 f   nafxcw:wingdi.obj
 0001:00044ff1       _$E375                     00445ff1 f   nafxcw:wingdi.obj
 0001:0004511e       _$E383                     0044611e f   nafxcw:wingdi.obj
 0001:00045128       _$E379                     00446128 f   nafxcw:wingdi.obj
 0001:00045137       _$E382                     00446137 f   nafxcw:wingdi.obj
 0001:00045143       _$E380                     00446143 f   nafxcw:wingdi.obj
 0001:0004515e       _$E388                     0044615e f   nafxcw:wingdi.obj
 0001:00045168       _$E385                     00446168 f   nafxcw:wingdi.obj
 0001:00045177       _$E387                     00446177 f   nafxcw:wingdi.obj
 0001:00045183       _$E386                     00446183 f   nafxcw:wingdi.obj
 0001:00044f4b       _$E371                     00445f4b f   nafxcw:winctrl2.obj
 0001:00044f55       _$E367                     00445f55 f   nafxcw:winctrl2.obj
 0001:00044f64       _$E370                     00445f64 f   nafxcw:winctrl2.obj
 0001:00044f70       _$E368                     00445f70 f   nafxcw:winctrl2.obj
 0001:0002fa50       _$E374                     00430a50 f   nafxcw:wincore.obj
 0001:0002fa55       _$E373                     00430a55 f   nafxcw:wincore.obj
 0001:0002fa66       _$E380                     00430a66 f   nafxcw:wincore.obj
 0001:0002fa70       _$E376                     00430a70 f   nafxcw:wincore.obj
 0001:0002fa7d       _$E379                     00430a7d f   nafxcw:wincore.obj
 0001:0002fa89       _$E377                     00430a89 f   nafxcw:wincore.obj
 0001:0002faa4       _$E385                     00430aa4 f   nafxcw:wincore.obj
 0001:0002faae       _$E382                     00430aae f   nafxcw:wincore.obj
 0001:0002fabb       _$E384                     00430abb f   nafxcw:wincore.obj
 0001:0002fac7       _$E383                     00430ac7 f   nafxcw:wincore.obj
 0001:0002fae2       _$E390                     00430ae2 f   nafxcw:wincore.obj
 0001:0002faec       _$E387                     00430aec f   nafxcw:wincore.obj
 0001:0002faf9       _$E389                     00430af9 f   nafxcw:wincore.obj
 0001:0002fb05       _$E388                     00430b05 f   nafxcw:wincore.obj
 0001:0002fb20       _$E395                     00430b20 f   nafxcw:wincore.obj
 0001:0002fb2a       _$E392                     00430b2a f   nafxcw:wincore.obj
 0001:0002fb37       _$E394                     00430b37 f   nafxcw:wincore.obj
 0001:0002fb43       _$E393                     00430b43 f   nafxcw:wincore.obj
 0001:00044d8a       _$E403                     00445d8a f   nafxcw:wincore.obj
 0001:00044d94       _$E399                     00445d94 f   nafxcw:wincore.obj
 0001:00044da3       _$E402                     00445da3 f   nafxcw:wincore.obj
 0001:00044daf       _$E400                     00445daf f   nafxcw:wincore.obj
 0001:00026368       _findenv                   00427368 f   libcmt:setenv.obj
 0001:000263c0       _copy_environ              004273c0 f   libcmt:setenv.obj
 0001:000261b6       _strncnt                   004271b6 f   libcmt:a_cmp.obj
 0001:000254f6       _siglookup                 004264f6 f   libcmt:winsig.obj
 0001:00024a25       _x_ismbbtype               00425a25 f   libcmt:ismbbyte.obj
 0001:00024241       __abstract_cw              00425241 f   libcmt:ieee87.obj
 0001:000242d3       __hw_cw                    004252d3 f   libcmt:ieee87.obj
 0001:00022c05       __tzset_lk                 00423c05 f   libcmt:tzset.obj
 0001:00022ead       __isindst_lk               00423ead f   libcmt:tzset.obj
 0001:00023059       _cvtdate                   00424059 f   libcmt:tzset.obj
 0001:000261b6       _strncnt                   004271b6 f   libcmt:a_cmp.obj
 0001:00020cae       _parse_cmdline             00421cae f   libcmt:stdargv.obj
 0001:00020aca       _xcptlookup                00421aca f   libcmt:winxfltr.obj
 0001:0002029e       __cftoe2                   0042129e f   libcmt:cvt.obj
 0001:000203b5       __cftof2                   004213b5 f   libcmt:cvt.obj
 0001:00020540       __shift                    00421540 f   libcmt:cvt.obj
 0001:0001fda6       __hextodec                 00420da6 f   libcmt:input.obj
 0001:0001fddd       __inc                      00420ddd f   libcmt:input.obj
 0001:0001fdf7       __un_inc                   00420df7 f   libcmt:input.obj
 0001:0001fe0e       __whiteout                 00420e0e f   libcmt:input.obj
 0001:0001e9a9       ?FindHandler@@YAXPAUEHExceptionRecord@@PAUEHRegistrationNode@@PAU_CONTEXT@@PAXPBU_s_FuncInfo@@EH1@Z 0041f9a9 f   libcmt:frame.obj
 0001:0001eb5c       ?FindHandlerForForeignException@@YAXPAUEHExceptionRecord@@PAUEHRegistrationNode@@PAU_CONTEXT@@PAXPBU_s_FuncInfo@@HH1@Z 0041fb5c f   libcmt:frame.obj
 0001:0001ec06       ?TypeMatch@@YAHPBU_s_HandlerType@@PBU_s_CatchableType@@PBU_s_ThrowInfo@@@Z 0041fc06 f   libcmt:frame.obj
 0001:0001b0c6       ?FrameUnwindFilter@@YAHPAU_EXCEPTION_POINTERS@@@Z 0041c0c6 f   libcmt:ehvecdtr.obj
 0001:0001ed01       ?CatchIt@@YAXPAUEHExceptionRecord@@PAUEHRegistrationNode@@PAU_CONTEXT@@PAXPBU_s_FuncInfo@@PBU_s_HandlerType@@PBU_s_CatchableType@@PBU_s_TryBlockMapEntry@@H1E@Z 0041fd01 f   libcmt:frame.obj
 0001:0001ed7c       ?CallCatchBlock@@YAPAXPAUEHExceptionRecord@@PAUEHRegistrationNode@@PAU_CONTEXT@@PBU_s_FuncInfo@@PAXHK@Z 0041fd7c f   libcmt:frame.obj
 0001:0001ee97       ?ExFilterRethrow@@YAHPAU_EXCEPTION_POINTERS@@@Z 0041fe97 f   libcmt:frame.obj
 0001:0001eec1       ?BuildCatchObject@@YAXPAUEHExceptionRecord@@PAUEHRegistrationNode@@PBU_s_HandlerType@@PBU_s_CatchableType@@@Z 0041fec1 f   libcmt:frame.obj
 0001:0001f0ec       ?AdjustPointer@@YAPAXPAXABUPMD@@@Z 004200ec f   libcmt:frame.obj
 0001:0001e60d       _write_char                0041f60d f   libcmt:output.obj
 0001:0001e642       _write_multi_char          0041f642 f   libcmt:output.obj
 0001:0001e673       _write_string              0041f673 f   libcmt:output.obj
 0001:0001e6ab       _get_int_arg               0041f6ab f   libcmt:output.obj
 0001:0001e6b8       _get_int64_arg             0041f6b8 f   libcmt:output.obj
 0001:0001e6c8       _get_short_arg             0041f6c8 f   libcmt:output.obj
 0001:0001d94e       _flsall                    0041e94e f   libcmt:fflush.obj
 0001:0001ca61       __make_time_t              0041da61 f   libcmt:mktime.obj
 0001:0001c6cb       _getSystemCP               0041d6cb f   libcmt:mbctype.obj
 0001:0001c715       _CPtoLCID                  0041d715 f   libcmt:mbctype.obj
 0001:0001c748       _setSBCS                   0041d748 f   libcmt:mbctype.obj
 0001:0001c771       _setSBUpLow                0041d771 f   libcmt:mbctype.obj
 0001:0001c1fb       _doexit                    0041d1fb f   libcmt:crt0dat.obj
 0001:0001c2b2       __initterm                 0041d2b2 f   libcmt:crt0dat.obj
 0001:0001c009       __threadstartex@4          0041d009 f   libcmt:threadex.obj
 0001:0001bb90       LeadUp1                    0041cb90 f   libcmt:memcpy.obj
 0001:0001bbbc       LeadUp2                    0041cbbc f   libcmt:memcpy.obj
 0001:0001bbe0       LeadUp3                    0041cbe0 f   libcmt:memcpy.obj
 0001:0001bc5f       UnwindUp0                  0041cc5f f   libcmt:memcpy.obj
 0001:0001bc4c       UnwindUp1                  0041cc4c f   libcmt:memcpy.obj
 0001:0001bc44       UnwindUp2                  0041cc44 f   libcmt:memcpy.obj
 0001:0001bc3c       UnwindUp3                  0041cc3c f   libcmt:memcpy.obj
 0001:0001bc34       UnwindUp4                  0041cc34 f   libcmt:memcpy.obj
 0001:0001bc2c       UnwindUp5                  0041cc2c f   libcmt:memcpy.obj
 0001:0001bc24       UnwindUp6                  0041cc24 f   libcmt:memcpy.obj
 0001:0001bc1c       UnwindUp7                  0041cc1c f   libcmt:memcpy.obj
 0001:0001bc78       TrailUp0                   0041cc78 f   libcmt:memcpy.obj
 0001:0001bc80       TrailUp1                   0041cc80 f   libcmt:memcpy.obj
 0001:0001bc8c       TrailUp2                   0041cc8c f   libcmt:memcpy.obj
 0001:0001bca0       TrailUp3                   0041cca0 f   libcmt:memcpy.obj
 0001:0001bd18       LeadDown1                  0041cd18 f   libcmt:memcpy.obj
 0001:0001bd38       LeadDown2                  0041cd38 f   libcmt:memcpy.obj
 0001:0001bd60       LeadDown3                  0041cd60 f   libcmt:memcpy.obj
 0001:0001bdb4       UnwindDown7                0041cdb4 f   libcmt:memcpy.obj
 0001:0001bdbc       UnwindDown6                0041cdbc f   libcmt:memcpy.obj
 0001:0001bdc4       UnwindDown5                0041cdc4 f   libcmt:memcpy.obj
 0001:0001bdcc       UnwindDown4                0041cdcc f   libcmt:memcpy.obj
 0001:0001bdd4       UnwindDown3                0041cdd4 f   libcmt:memcpy.obj
 0001:0001bddc       UnwindDown2                0041cddc f   libcmt:memcpy.obj
 0001:0001bde4       UnwindDown1                0041cde4 f   libcmt:memcpy.obj
 0001:0001bdf7       UnwindDown0                0041cdf7 f   libcmt:memcpy.obj
 0001:0001be10       TrailDown0                 0041ce10 f   libcmt:memcpy.obj
 0001:0001be18       TrailDown1                 0041ce18 f   libcmt:memcpy.obj
 0001:0001be28       TrailDown2                 0041ce28 f   libcmt:memcpy.obj
 0001:0001be3c       TrailDown3                 0041ce3c f   libcmt:memcpy.obj
 0001:0001ba6d       _xtoa                      0041ca6d f   libcmt:xtoa.obj
 0001:0001b703       _strtoxl                   0041c703 f   libcmt:strtol.obj
 0001:0001b2c7       _fast_error_exit           0041c2c7 f   libcmt:wincrt0.obj
 0001:0001b0c6       ?ArrayUnwindFilter@@YAHPAU_EXCEPTION_POINTERS@@@Z 0041c0c6 f   libcmt:ehvecdtr.obj
 0001:0001aa10       LeadUp1                    0041ba10 f   libcmt:memmove.obj
 0001:0001aa3c       LeadUp2                    0041ba3c f   libcmt:memmove.obj
 0001:0001aa60       LeadUp3                    0041ba60 f   libcmt:memmove.obj
 0001:0001aadf       UnwindUp0                  0041badf f   libcmt:memmove.obj
 0001:0001aacc       UnwindUp1                  0041bacc f   libcmt:memmove.obj
 0001:0001aac4       UnwindUp2                  0041bac4 f   libcmt:memmove.obj
 0001:0001aabc       UnwindUp3                  0041babc f   libcmt:memmove.obj
 0001:0001aab4       UnwindUp4                  0041bab4 f   libcmt:memmove.obj
 0001:0001aaac       UnwindUp5                  0041baac f   libcmt:memmove.obj
 0001:0001aaa4       UnwindUp6                  0041baa4 f   libcmt:memmove.obj
 0001:0001aa9c       UnwindUp7                  0041ba9c f   libcmt:memmove.obj
 0001:0001aaf8       TrailUp0                   0041baf8 f   libcmt:memmove.obj
 0001:0001ab00       TrailUp1                   0041bb00 f   libcmt:memmove.obj
 0001:0001ab0c       TrailUp2                   0041bb0c f   libcmt:memmove.obj
 0001:0001ab20       TrailUp3                   0041bb20 f   libcmt:memmove.obj
 0001:0001ab98       LeadDown1                  0041bb98 f   libcmt:memmove.obj
 0001:0001abb8       LeadDown2                  0041bbb8 f   libcmt:memmove.obj
 0001:0001abe0       LeadDown3                  0041bbe0 f   libcmt:memmove.obj
 0001:0001ac34       UnwindDown7                0041bc34 f   libcmt:memmove.obj
 0001:0001ac3c       UnwindDown6                0041bc3c f   libcmt:memmove.obj
 0001:0001ac44       UnwindDown5                0041bc44 f   libcmt:memmove.obj
 0001:0001ac4c       UnwindDown4                0041bc4c f   libcmt:memmove.obj
 0001:0001ac54       UnwindDown3                0041bc54 f   libcmt:memmove.obj
 0001:0001ac5c       UnwindDown2                0041bc5c f   libcmt:memmove.obj
 0001:0001ac64       UnwindDown1                0041bc64 f   libcmt:memmove.obj
 0001:0001ac77       UnwindDown0                0041bc77 f   libcmt:memmove.obj
 0001:0001ac90       TrailDown0                 0041bc90 f   libcmt:memmove.obj
 0001:0001ac98       TrailDown1                 0041bc98 f   libcmt:memmove.obj
 0001:0001aca8       TrailDown2                 0041bca8 f   libcmt:memmove.obj
 0001:0001acbc       TrailDown3                 0041bcbc f   libcmt:memmove.obj
 0001:0001a644       _gu_return                 0041b644 f   libcmt:exsup.obj
 0001:0001a64c       __unwind_handler           0041b64c f   libcmt:exsup.obj
 0001:0001a45e       ?CatchGuardHandler@@YA?AW4_EXCEPTION_DISPOSITION@@PAUEHExceptionRecord@@PAUCatchGuardRN@@PAX2@Z 0041b45e f   libcmt:trnsctrl.obj
 0001:0001a539       ?TranslatorGuardHandler@@YA?AW4_EXCEPTION_DISPOSITION@@PAUEHExceptionRecord@@PAUTranslatorGuardRN@@PAX2@Z 0041b539 f   libcmt:trnsctrl.obj
 0001:00028be1       __Mbrtowc_lk               00429be1 f   libcpmt:xmbtowc.obj
 0001:00028b5d       _$E37                      00429b5d f   libcpmt:xlocale.obj
 0001:00028b72       _$E36                      00429b72 f   libcpmt:xlocale.obj
 0001:00028b3c       _$E47                      00429b3c f   libcpmt:wlocale.obj
 0001:00028b51       _$E46                      00429b51 f   libcpmt:wlocale.obj
 0001:00027db6       _$E18                      00428db6 f   libcpmt:wiostrea.obj
 0001:00027dc0       _$E15                      00428dc0 f   libcpmt:wiostrea.obj
 0001:00027dca       _$E17                      00428dca f   libcpmt:wiostrea.obj
 0001:00027dd6       _$E16                      00428dd6 f   libcpmt:wiostrea.obj
 0001:00027de0       _$E24                      00428de0 f   libcpmt:wiostrea.obj
 0001:00027dea       _$E21                      00428dea f   libcpmt:wiostrea.obj
 0001:00027df4       _$E23                      00428df4 f   libcpmt:wiostrea.obj
 0001:00027e00       _$E22                      00428e00 f   libcpmt:wiostrea.obj
 0001:00027e0a       _$E29                      00428e0a f   libcpmt:wiostrea.obj
 0001:00027e14       _$E26                      00428e14 f   libcpmt:wiostrea.obj
 0001:00027e21       _$E28                      00428e21 f   libcpmt:wiostrea.obj
 0001:00027e2d       _$E27                      00428e2d f   libcpmt:wiostrea.obj
 0001:00027e37       _$E34                      00428e37 f   libcpmt:wiostrea.obj
 0001:00027e41       _$E31                      00428e41 f   libcpmt:wiostrea.obj
 0001:00027e4e       _$E33                      00428e4e f   libcpmt:wiostrea.obj
 0001:00027e5a       _$E32                      00428e5a f   libcpmt:wiostrea.obj
 0001:00027e64       _$E39                      00428e64 f   libcpmt:wiostrea.obj
 0001:00027e6e       _$E36                      00428e6e f   libcpmt:wiostrea.obj
 0001:00027e7b       _$E38                      00428e7b f   libcpmt:wiostrea.obj
 0001:00027e87       _$E37                      00428e87 f   libcpmt:wiostrea.obj
 0001:00027e91       _$E44                      00428e91 f   libcpmt:wiostrea.obj
 0001:00027e9b       _$E41                      00428e9b f   libcpmt:wiostrea.obj
 0001:00027eaa       _$E43                      00428eaa f   libcpmt:wiostrea.obj
 0001:00027eb6       _$E42                      00428eb6 f   libcpmt:wiostrea.obj
 0001:00027ed5       _$E49                      00428ed5 f   libcpmt:wiostrea.obj
 0001:00027edf       _$E46                      00428edf f   libcpmt:wiostrea.obj
 0001:00027eee       _$E48                      00428eee f   libcpmt:wiostrea.obj
 0001:00027efa       _$E47                      00428efa f   libcpmt:wiostrea.obj
 0001:00027f19       _$E54                      00428f19 f   libcpmt:wiostrea.obj
 0001:00027f23       _$E51                      00428f23 f   libcpmt:wiostrea.obj
 0001:00027f32       _$E53                      00428f32 f   libcpmt:wiostrea.obj
 0001:00027f3e       _$E52                      00428f3e f   libcpmt:wiostrea.obj
 0001:00027f48       _$E59                      00428f48 f   libcpmt:wiostrea.obj
 0001:00027f52       _$E56                      00428f52 f   libcpmt:wiostrea.obj
 0001:00027f61       _$E58                      00428f61 f   libcpmt:wiostrea.obj
 0001:00027f6d       _$E57                      00428f6d f   libcpmt:wiostrea.obj
 0001:00028afa       _$E70                      00429afa f   libcpmt:wiostrea.obj
 0001:00028b24       _$E66                      00429b24 f   libcpmt:wiostrea.obj
 0001:00028b30       _$E69                      00429b30 f   libcpmt:wiostrea.obj
 0001:00027d74       _$E32                      00428d74 f   libcpmt:locale.obj
 0001:00027d9e       _$E28                      00428d9e f   libcpmt:locale.obj
 0001:00027daa       _$E31                      00428daa f   libcpmt:locale.obj
 0001:00027d32       _$E24                      00428d32 f   libcpmt:string.obj
 0001:00027d5c       _$E20                      00428d5c f   libcpmt:string.obj
 0001:00027d68       _$E23                      00428d68 f   libcpmt:string.obj
 0001:00027791       _$E18                      00428791 f   libcpmt:locale0.obj
 0001:0002779b       _$E15                      0042879b f   libcpmt:locale0.obj
 0001:0002779c       _$E17                      0042879c f   libcpmt:locale0.obj
 0001:000277a8       _$E16                      004287a8 f   libcpmt:locale0.obj
 0001:000279dc       _$E29                      004289dc f   libcpmt:locale0.obj
 0001:00027a06       _$E25                      00428a06 f   libcpmt:locale0.obj
 0001:00027a12       _$E28                      00428a12 f   libcpmt:locale0.obj
 0001:0002775e       ?_CleanUp@std@@YAXXZ       0042875e f   libcpmt:xlock.obj
 0001:000268b0       _$E18                      004278b0 f   libcpmt:iostream.obj
 0001:000268ba       _$E15                      004278ba f   libcpmt:iostream.obj
 0001:000268c7       _$E17                      004278c7 f   libcpmt:iostream.obj
 0001:000268d3       _$E16                      004278d3 f   libcpmt:iostream.obj
 0001:000268dd       _$E23                      004278dd f   libcpmt:iostream.obj
 0001:000268e7       _$E20                      004278e7 f   libcpmt:iostream.obj
 0001:000268f4       _$E22                      004278f4 f   libcpmt:iostream.obj
 0001:00026900       _$E21                      00427900 f   libcpmt:iostream.obj
 0001:0002690a       _$E28                      0042790a f   libcpmt:iostream.obj
 0001:00026914       _$E25                      00427914 f   libcpmt:iostream.obj
 0001:00026923       _$E27                      00427923 f   libcpmt:iostream.obj
 0001:0002692f       _$E26                      0042792f f   libcpmt:iostream.obj
 0001:0002694e       _$E33                      0042794e f   libcpmt:iostream.obj
 0001:00026958       _$E30                      00427958 f   libcpmt:iostream.obj
 0001:00026967       _$E32                      00427967 f   libcpmt:iostream.obj
 0001:00026973       _$E31                      00427973 f   libcpmt:iostream.obj
 0001:00026992       _$E38                      00427992 f   libcpmt:iostream.obj
 0001:0002699c       _$E35                      0042799c f   libcpmt:iostream.obj
 0001:000269a9       _$E37                      004279a9 f   libcpmt:iostream.obj
 0001:000269b5       _$E36                      004279b5 f   libcpmt:iostream.obj
 0001:000269bf       _$E43                      004279bf f   libcpmt:iostream.obj
 0001:000269c9       _$E40                      004279c9 f   libcpmt:iostream.obj
 0001:000269d8       _$E42                      004279d8 f   libcpmt:iostream.obj
 0001:000269e4       _$E41                      004279e4 f   libcpmt:iostream.obj
 0001:000269ee       _$E48                      004279ee f   libcpmt:iostream.obj
 0001:000269f8       _$E45                      004279f8 f   libcpmt:iostream.obj
 0001:00026a07       _$E47                      00427a07 f   libcpmt:iostream.obj
 0001:00026a13       _$E46                      00427a13 f   libcpmt:iostream.obj
 0001:0002769d       _$E60                      0042869d f   libcpmt:iostream.obj
 0001:000276c7       _$E56                      004286c7 f   libcpmt:iostream.obj
 0001:000276d3       _$E59                      004286d3 f   libcpmt:iostream.obj
 0001:00028d40       _LpfnGetDefWndProcNull     00429d40 f   ctl3d32s:CTL3D.OBJ
 0001:00028d60       _LpfnGetDefWndProc         00429d60 f   ctl3d32s:CTL3D.OBJ
 0001:00028db0       _SubclassWindow            00429db0 f   ctl3d32s:CTL3D.OBJ
 0001:00028f50       _HookSubclassWindow        00429f50 f   ctl3d32s:CTL3D.OBJ
 0001:00028f90       _CleanupSubclass           00429f90 f   ctl3d32s:CTL3D.OBJ
 0001:00028ff0       _DeleteObjectNull          00429ff0 f   ctl3d32s:CTL3D.OBJ
 0001:00029010       _DeleteObjects             0042a010 f   ctl3d32s:CTL3D.OBJ
 0001:00029040       _PatFill                   0042a040 f   ctl3d32s:CTL3D.OBJ
 0001:00029070       _DrawRec3d                 0042a070 f   ctl3d32s:CTL3D.OBJ
 0001:000291b0       _DrawInsetRect3d           0042a1b0 f   ctl3d32s:CTL3D.OBJ
 0001:00029220       _ClipCtlDc                 0042a220 f   ctl3d32s:CTL3D.OBJ
 0001:00029260       _MyGetTextExtent           0042a260 f   ctl3d32s:CTL3D.OBJ
 0001:00029830       _CheckChildSubclass        0042a830 f   ctl3d32s:CTL3D.OBJ
 0001:00029a90       _Ctl3dDlgFramePaintI@20    0042aa90 f   ctl3d32s:CTL3D.OBJ
 0001:00029de0       _FInit3dDialogs            0042ade0 f   ctl3d32s:CTL3D.OBJ
 0001:00029fd0       _End3dDialogs              0042afd0 f   ctl3d32s:CTL3D.OBJ
 0001:0002a0b0       _InternalCtl3dColorChange  0042b0b0 f   ctl3d32s:CTL3D.OBJ
 0001:0002a570       _DoesChildNeedSubclass     0042b570 f   ctl3d32s:CTL3D.OBJ
 0001:0002a760       _FBtn                      0042b760 f   ctl3d32s:CTL3D.OBJ
 0001:0002a790       _FEdit                     0042b790 f   ctl3d32s:CTL3D.OBJ
 0001:0002a790       _FList                     0042b790 f   ctl3d32s:CTL3D.OBJ
 0001:0002a7e0       _FComboList                0042b7e0 f   ctl3d32s:CTL3D.OBJ
 0001:0002a820       _FCombo                    0042b820 f   ctl3d32s:CTL3D.OBJ
 0001:0002a8f0       _FStatic                   0042b8f0 f   ctl3d32s:CTL3D.OBJ
 0001:0002a940       _DoSubclassCtl             0042b940 f   ctl3d32s:CTL3D.OBJ
 0001:0002aa30       _Inval3dCtl                0042ba30 f   ctl3d32s:CTL3D.OBJ
 0001:0002aaf0       _Val3dCtl                  0042baf0 f   ctl3d32s:CTL3D.OBJ
 0001:0002ab60       _DrawPushButton            0042bb60 f   ctl3d32s:CTL3D.OBJ
 0001:0002aea0       _BtnPaint                  0042bea0 f   ctl3d32s:CTL3D.OBJ

FIXUPS: 2cb2b 17 35 41 39 38 53 15 2e 22 3a bc 40 6d 14a 3c 28 23 20 70
FIXUPS: 2d11d 49 23 a 35 a ffffe6e9 16 7c a7 23 17b 3a 1cb 2e4 bc 1f c7
FIXUPS: 2c240 d7 ff 39 66 be 74 81 239 59 37 9 24 32 27 2a 58 3a 19 80
FIXUPS: 2abe0 57 2a 34 4a 2e 219 7 ca 186 48 51 13 3d 39 3d 71 1e 1c 4f
FIXUPS: 2b433 48 67 43 1b 37 14a 14 1f 25 1c 136 ffffc01c 11 24d0 c9 fc
FIXUPS: 29f9e 7a 18 1bf 23 139 8 b a c3 1d 235 53 34 78 4b 4f 26 19 7d
FIXUPS: 2a915 16 6c 19 bf 3f 10f 261db a fffd68a7 1b b 2973d a fffd68d5
FIXUPS: 27699 8 d 13 1b 14 d 31 8 2968d a fffd697e d 38 3c 15 23 f a b
FIXUPS: 27830 10 f 1a e45 15 a c ffffed9d 22 2b 6 b f 15 29864 a fffd67ac
FIXUPS: 2752c 17 10 2981d a fffd6801 e a 1b b 297cb a fffd6840 d 11 12
FIXUPS: 27616 10 d15 13 20 28 2c 1e 17 d f d 12 d f d f d 21 13 17 2c 17
FIXUPS: 28513 27 10 47 f 28 b c 60 2d 24 fffff8c7 28fb5 b a fffd707b 1e
FIXUPS: 27fde b a 10 48 1b 10 f 43 2b 1c d 17 68 23 24 8 11 10 10 55 e
FIXUPS: 282a7 13 2d 3f 28b4a fffd6ddf 44 291f6 b fffd6e1b a 4d 291a7 b
FIXUPS: 27d21 44 2916c b fffd6ea4 f 11 f 16 29122 8 b a fffd6ee0 22 3d
FIXUPS: 27eb7 53 20 10 6 9 fffffaa1 5 5 e b c a 14 26 26 21 21 23 2f 23
FIXUPS: 27b78 29265 10 10 10 10 10 10 d fffd6d5b 11 f a a c 4f 29231 fffd78ba
FIXUPS: 278b1 5 c b c 5 5 c b c 5 5 e b c 15 5 5 e b c 15 5 5 c b c 5 5
FIXUPS: 279d3 b e8b 286c3 8 c fffd7942 9 13 18 28692 a fffd797a 3a b a
FIXUPS: 50f5c a fffd79d6 d 11 1e 1b 16 d e 285ac b 8 a fffd7a60 15 a c
FIXUPS: 28c6f b 10 15 2835d a fffd7ca4 1b b 28340 a fffd7cd2 e 8 d 13 21
FIXUPS: 28d58 a c fffffa24 5 b c a b 18 15 18 1f b 11 255 17 10 284ed a
FIXUPS: 28af4 e a 1b b 2848e a fffd7b7d d 11 12 18 10 28435 a fffd7be4
FIXUPS: 28bdd b 28400 a fffd7c12 e 8 d 13 16 14 ce4 d f d f d 1c c 17 e
FIXUPS: 29a47 f 28 b c 76 15 a c fffff24f 15 a c fffffc74 14 b b 10 15
FIXUPS: 50f98 a fffd7adc 286da b a fffd8457 27 1f b a 10 4a 23 10 f 43
FIXUPS: 2972b 22 d 17 6c 24 2b 8 11 10 10 55 e 29 1c d f d 277aa fffd8165
FIXUPS: 29255 a 4d 27e4d b fffd81c3 44 27e12 b fffd81fe f 11 f 16 27dc8
FIXUPS: 5113b b a fffd823a 2b 62 87 3d 24 2f 20 10 6 9 e fffff9ec c a 14
FIXUPS: 28fb7 26 1f 21 21 27 31 3e 27f55 10 10 10 10 10 10 d fffd806b 11
FIXUPS: 29121 a a c 4f 27f21 b fffd80ef 44 27ee6 fffd7d52 c 5 5 c b c 5
FIXUPS: 28e6a c b c 5 5 e b c 15 5 5 e b c 15 5 5 e b c 5 5 e ffff216e
FIXUPS: 1b0d5 8 ffffff30 6 8 1d 8 8 19 eb45 18 11 a8 a8 fffffe4f a ffffffd5
FIXUPS: 29b57 fffff260 5 a a c 5 5 a a c 5 5 c ffff2906 f a ffffff05 fffffd69
FIXUPS: 1b3f6 55 2f 84 81 17 3c 48 fffffce7 1b 8 17 ffffff8f 6 11 9 8 ffffff84
FIXUPS: 1b291 21 fffffe51 41 37 ffffff08 6 b f d88 1e f 3c d 13 11 fffffe3a
FIXUPS: 1bd1c fffffc0d e 8 b d ffffff04 d 1c 7 11 30 7 12 25 fffffed6 5
FIXUPS: 1b7ef ffffffd4 13 ffffff7c 6 43 6 c51 fffffe02 c 6 b b 10 a 5 5
FIXUPS: 1c252 24 9 11 e e 9 1c 9 fffffe8d 6 11 9 6 ffffffcc ffffff0a 45
FIXUPS: 1c0d8 fffffee2 d ffffffe0 fffffe79 ce2 ffffff2c 2a ffffff47 2a
FIXUPS: 1c6fb 30 bd 2b 1c 87 61 fffffc86 e 6b 14 fffffe36 b f 18 e 16 16
FIXUPS: 1c4ea fffffe0c 13 14 4b b 20 2b 13 e9a 11 c 1b 9 fffffee0 7 d ffffff54
FIXUPS: 1d118 c 3e fffffe48 e 3b b 48 24 29 e 11 d 7 fffffe57 c 65 fffffef9
FIXUPS: 1ce92 45 c d fffffbf7 ef4 fffffb4f 8 111 39 2f 5 f 14d 24 28 aa
FIXUPS: 1d460 e 2f e 18 55 fffffdf3 e 1c 2c 22 19 26 15 1f fffffdcc f 11
FIXUPS: 1d1f3 a e90 f 9d 14 fffffedf 1d fffffeec a 23 16 13 1c 2d 17 fffffd78
FIXUPS: 1dd85 16 1a 15 8 fffffe7f 1a fffffdef 18d 11 25 c fffffdde 18 20
FIXUPS: 1d989 c dd7 fffffd9d fffffd05 13 27 a 1c 12 1f 9 47 9 50 1d 35
FIXUPS: 1e3b0 2a 15 23 c 3b c 36 18 39 fffffc6f 2b d 20 d d 9 6d1 8 13
FIXUPS: 1e8da 3c 32 10 24 1f 1b 16 12 fffffe97 ffffff37 6 8 d b 14 17 9
FIXUPS: 1e812 1e 22 fffffdf2 19 12 5b e 23 1f 33 d32 12 96 16 1c 27 17
FIXUPS: 1f5b5 18 5e 32 37 fffff78f 16 ffffffa1 fffffdef 11 a 6b 1e 26 23
FIXUPS: 1eb0b b 29 3b 1b fffffe66 48 50 fffffe04 a 176e e 18 c e c 7 1f
FIXUPS: 200c4 24 fffff768 28 18 1c 57 ffffff13 fffff79c 3f 99 19 68 89
FIXUPS: 1f1a1 2e 25 d9 bf 3b 18 c 15 8 7eb 3a 78 1b e 4e 17 11 21 e 43
FIXUPS: 1fdc1 b b 21 2d 14 17 b 2e 7 93 12 1c 1e 12 16 30 12 15 9 a 1e3
FIXUPS: 20203 16 3e e e e e e 11 7 fffffe7a 22 fffff7cf 23 58 2f 2e f 8
FIXUPS: 1fa21 b 1e 32 49 42 1f 28 a c 20 1e eae 6f 33 27 c 19 2b 11 29
FIXUPS: 20bba 49 3d 1e 23 17 60 2a 46 e a 38 39 16 14 8 fffff4d2 11 21
FIXUPS: 2037d fffffde1 19 1f cea b 14 b 34 fffff4e2 25 8 b 12 53 f8 e a8
FIXUPS: 2063d 2c 23 1f 2c 37 2d 17 2f f0 1a 30 15 2a a6 1f 4f 17 73f ae
FIXUPS: 2122d 2a 28 12 35 3e 76 1f f 55 18 2e b 2a 22 32 17 2b 16 13 19
FIXUPS: 2155b fffffbe0 ffffff96 fffffe48 e 86 fffffeb0 e 8 dea f 10 17
FIXUPS: 21b6a 19 14 14 12 f e 9 17 ffffff14 22 fffffe63 d ffffff6f d 11
FIXUPS: 2195c 25 fffffea7 66 ffffff15 f fffffef3 e 8 16 8 fffffa70 1f4b
FIXUPS: 23146 51 4f b6 80 ffffee67 16 8a 15 13 1a 14 d 11 12 16 19 fffffcf2
FIXUPS: 22055 56 e 24 1b 32 14 d fffffdb4 23 44 13 fffffcaf 2152 17 6 e
FIXUPS: 23dc7 2e 2b 44 1e e 9 9 a5 4f 2f 15 fffffb73 24 fffffdeb 7c b4
FIXUPS: 2373c 10 fffffe15 d 10 55 63 fffff03a 106 f 7b8 14b8 38 1b 6c 42
FIXUPS: 244fe 72 b 74 b 39 b 39 1b fffffcdd 2a 2b 1b ffffff00 ffffff32
FIXUPS: 24235 a 23 fffff981 f d 18 20 11 110 15 6 120a fffffca3 f 10 6c
FIXUPS: 249e5 e 8 d b 9e b 13 e8 fffffdcb fffffe06 e 8 d b 55 b8 b 44 20
FIXUPS: 2493d fffffdbe 10 21 7 f a c5d 10 59 5d fffffd94 17 20 ffffff2b
FIXUPS: 25172 b 31 ffffff78 fffffef2 12 11 a5 fffffefc 7 9 fffffdd3 b 69
FIXUPS: 24e41 b 35 37 43 10 e 16 16 11 1053 76 fffff9fe fffffff1 fffffefc
FIXUPS: 25925 20 ffffff9f 9 fffffc1e 17 5c f 151 12 16 c 1d 18 a c e 17
FIXUPS: 25792 24 54 16 20 c 21 c fffffb23 1119 fffffda3 f 1c 28 d 1e 15
FIXUPS: 262f5 14 13 8 1c 13 f fffffdd0 d b 53 c 33 2c 3e fffffe88 1c f
FIXUPS: 2610e fffffc1b 71 61 ec 4a d62 ffffff98 fffffe32 47 41 10c fffffbc5
FIXUPS: 267d3 4e 19 46 1d 26 9 d 9 fffffc82 14 18 18 96 6 a 6 1b 4b fffffd19
FIXUPS: 263e0 24 19 18 8 db9 2b 1c 1b 1b 21 1c 1f 28 28 8 11 24 25 6c 10
FIXUPS: 2740f fffffba9 17 10f 6f fffffddd fffffeec b 2d 3a 23 fffffe96
FIXUPS: 26d66 a 31 fffffece 6c10 37 11 18 d 26 fffffde4 d b 35 40 c fffffeeb
FIXUPS: 2d680 6 2c 31 ffffff56 ffffff3f e a 37 d 30 15 ffffff3a ffffffd2
FIXUPS: 2d53b 9 ffffffa6 1f a 2bac ffffdd75 12 a 10 b 26 d 30 fffffe59
FIXUPS: 2dd3d fffffeff 11 a 38 f 32 13 fffffe11 63 68 32 fffffd33 6 a 31
FIXUPS: 2d9df 70 3a fffffd86 6 8 2f00 14 10 16 a 4d 1ec8c fffe13b8 10 16
FIXUPS: 30851 b 1f b 15 10 25 25 c d d 10 b f f d 9 17 77 22 fffff65e 21
FIXUPS: 30420 2d 13 13 1b f 8 f 1f 2f a 3d 1eed3 8 a fffe1186 13 26 10
FIXUPS: 30611 8 d 7 21 11 b 1c e 3c 8 31 8 117a1 fffee222 b 30 b 3e 3d
FIXUPS: 301b5 29 1c 2d 13 f d 11 1c b 1f17a a fffe0eb0 22 25 14 17 fffe30bd
FIXUPS: 30344 32 10 1a b 19 a 159bd 5 e b 1c fffcd893 8 32770 b 13 975e
FIXUPS: 4f557 ffff68ad 8 13 9741 b ffff68c7 16 d ffffbf8c 16 b d642 a ffff29db
FIXUPS: 41e47 16 b d5f0 a ffff2a20 ffff1bf7 2d 21 20 1d 19 1d 1d 1d 1d
FIXUPS: 33bae 19 19 1d 1d 5f 1c 40 12018 8 14 981b b ffff67f6 c 15 97f2
FIXUPS: 4f544 fffe47a2 1207d 12 b fffed6b7 c0 19 38 cf 13 12 8 35 16 16
FIXUPS: 336cd 25 23 1bdfb a fffe4234 29 25 2f 5d 2b 19 32 53 2a 87 28 10
FIXUPS: 33a0b 21 27 fffff5f1 e c 48 e e 7 c 15 7 19 10 17 b 47 19 10 1b
FIXUPS: 331df 1e b 3d 56 17 5 56 1c1f9 fffe3e56 8d 13 6 2f fffff936 12
FIXUPS: 32d8b 1c765 a fffe38f7 57 1b 3b 34 2a b 11 10 d 16 5 b 9 14 10
FIXUPS: 32fa1 7 b 15 7 9 20 d 17 7 c fffff5a8 e 4c d 3e 10 7 1b 39 16 34
FIXUPS: 32815 1a c4 10 69 cc 78 3c b7 14 1c 5d 4e 1c 42 25 c 12 13 14 f
FIXUPS: 32148 7 17 e 14 d 20 b b 10 20 94 1d23d 8 8 a fffe2e9a 4f 3d 14
FIXUPS: 32463 14 50 2d b fffe1153 1eef3 f 42 14 9 f fffff6ff 3d 7 1b 3b
FIXUPS: 31d64 8 1d74c a fffe294e 6a a 15 29 2b 41 17 2c 1e 1d 3d 20 e d
FIXUPS: 32036 12 16 2b 11 2b 12 22 fffff8b1 1a 10 16 b 1a 10 2d e 2b 1e
FIXUPS: 31abd 9 1c d b f 35 e 8 28 1b 9 1d90e fffe2700 a 8a 9 2d 2c a b
FIXUPS: 31489 7 75 30 31 2d 54 10 3c 29 1de3c a fffe21e3 12 12 a a a 38
FIXUPS: 3171c 40 2e 37 b 26 59 1d 66 7d 15 27 18 fffff60a 14 1b e a 1b
FIXUPS: 3101a 26 12 14 52 10 25 3e 12 11 8 a 3c 19 1e2d9 fffe1d41 4a 18
FIXUPS: 3124c 30 85 43 c 34 ba 33 fffff7ef 21 37 b 1b 17 e c 62 13 12 b
FIXUPS: 30dc4 18 5d 29 7 1c 1e5e9 fffe1a4f 37 1f 6 19 9 1c 11 1e510 c fffe1b00
FIXUPS: 30f91 a fffe25ae 58 15 1d49b 16 5 c b 1c 6 5 c b 1c 6 5 c b 1c
FIXUPS: 30b21 5 c b 1c 9 13 f d 10 13 76 1a b374 8 9 1b ffff824c 7b 74
FIXUPS: 34350 1bf 4e 29 49 fffff73c 1b869 a fffe48ca 7a 55 20 1e 15 32
FIXUPS: 33fae 7 9f 1c 7 c 9c 7b 11d28 fffcd62d 32a62 e b 1c fffcd6e2 d
FIXUPS: 13686 13 3bf17 a fffec745 20 b 42 45 13 64 24 f 7 1d 2c 2f 11 4e
FIXUPS: 3bf46 8 7 c 13627 a fffeca07 fffd813c 7 31 d 42 26 3b4d8 fffc4b46
FIXUPS: 141c0 6c 3d 3b3fb a fffc4c12 d 12 27 f 26 37 28 25 1f 3b2da b fffc4d91
FIXUPS: 2edb8 16 b 207c3 a ffff69a6 fffcdc39 2f 8 35 39 28 10 f 3b99f 8
FIXUPS: 4f622 fffc46b0 9a 5c 2b 21 16 3b802 8 8 8 a fffc481e b 36 d9 84
FIXUPS: 14023 1d 26 7 23 fffff731 3be05 fffc4245 c 14 3bda5 a fffc428e
FIXUPS: 13875 11 3b 16 38 1e 9 b b 3bc98 b a fffc43bd f 19 1a 3a 1b 3bbb9
FIXUPS: 13aa1 8 21 5b 2a 325e3 b 1c 6 5 e b 1c fffce288 26 d 1a 26 d 16
FIXUPS: 144c4 11 13 3b280 a fffc4d8a d 11 13 3b24f a fffc3f78 1a 2a 14
FIXUPS: 13773 19 250f3 16ec1 a ffff6848 5 11 b c b 5 11 b c 7 c 23 3c d
FIXUPS: 4608c 12 b 10 1a 12 10 13 964c a fffe914b 19 d85d 5 95cc a fffe8fa9
FIXUPS: 386af 26 9 17026 a fffe8fe9 d 11 25 b 16fd3 a fffe903a 6 19 9 1c
FIXUPS: 387b1 16f7b c fffe9093 b 1a c 1c f 17 12 26 fffffc15 a 19 a 3c
FIXUPS: 384fe 19 a 1a c 26 9 1713e a fffe8ed1 d 11 16 15 170f0 a fffe8f1d
FIXUPS: 385fb 26 9 170b2 a fffe8f5d d 11 16 15 3acc 18 e 13612 a fffeca0e
FIXUPS: 3c1b1 7f ffffb9f9 d 11 6 19 9 1c 11 179f0 c fffe861e b 1a c 26
FIXUPS: 37d1c 1a 19 17951 a fffe877b 46 5a2 3c defc 12 14 c 11 3b 29 c
FIXUPS: 4f7b8 8 8 a ffff6c45 d 54 f 14 9341 a ffff6d11 ffff5d4a 14 13 13588
FIXUPS: 4f7fb fffec7f4 41 a bb 11 2c e a62e 90ca a ffff6f6c 5 b c f 16
FIXUPS: 467f5 11 3d b f f 16 d b fffff90a 48 7 1d 16 12 6a 1d 94e5 b ffff6b36
FIXUPS: 462f9 12 2c fffee8df 18 30 f e 10 2e 1d 1f 20 11801 d 10 5b 9276
FIXUPS: 4f80e ffff6d9e 6 5 b c 6b d 10 5d 9165 e a ffff6eb8 d 10 63 fffee208
FIXUPS: 3497c 16 c 45 9 35 1a 10 a c 22 c f 13 2f c f 1ad51 16 b fffe52aa
FIXUPS: 34b54 c f 1ad09 16 b fffe5318 23 6 26 fffffa81 5 5 11 b c 5 5 11
FIXUPS: 346d9 c 27 3e 30 33 2a 28 17 a 12 a d 22 8 2d 2e e 31 17 9 24 15
FIXUPS: 3536c 18 43 9 10 14 7 43 1b 21 96 b d e 3f 18 41 28 49 11337 16
FIXUPS: 46999 fffedc81 b 5 e b c 5 5 11 b 1222f c 1d 8fff a ffff7010 d
FIXUPS: 46904 c 18 8fb8 a ffffeb55 24 14 147d a fffe5778 8 51 19e d 5 11
FIXUPS: 352b4 22 10 12 11 11 a 7 fffffaa5 10 8 5 23 10 1c 5c 8 c 1a9f8
FIXUPS: 4f8ae fffe5616 c e 9 1a 19 1a99e b fffe5699 2f 9 b c 2a d 15 8
FIXUPS: 35006 11 43 15650 38 43 520b b fffec9a1 51 21 11 7 33 d 21 d 33
FIXUPS: 3c41d 17 d 8 7 c 134c0 a fffecb7f fffd81a3 16 b 3b29f a fffe5489
FIXUPS: 34db5 e f168 26 1c 7f 10 2a dc d 8 3c 285c b 14 9032 b ffffa8c7
FIXUPS: 4a307 21 44 14 fd 2d 36 91 16 66 27 13 17 20 15 15 ffff9174 25
FIXUPS: 43831 2a 1e 1c c143 a ffff3f01 e 27 f 11 16 5e 18 1b 29 bfe4 a
FIXUPS: 43a84 2f 38 16 e5 b4 28 5b e0 84 5d 33 fffff304 c a7 7 8 1b 3c
FIXUPS: 43347 16 4a 50 1a 2f 8 23 3a 4e 40 56 e7 2c 11 c 14 31 73 7 1c
FIXUPS: 4f9c4 a ffff3e00 11 fffff53c 33 9 cc59 a ffff33da b 1e b 2a 30
FIXUPS: 42e2e 15 37 7 12 19 44 7 17 4e 26 87 20 19 46 2d 13 9 1e d5 3c
FIXUPS: 429bf 24 16 7 b 22 18 18 f cf30 a ffff311b 13 12 10 1b 18 98 29
FIXUPS: 42bf3 5 a 7 13 2c 33 25 22 14 c e c fffff6b9 16 35 32 11 39 2b
FIXUPS: 424b8 a4 36 18 6f 1b 7a 11 12 16 59 30 48 2d 38 33 44 15 21 16
FIXUPS: 428eb 56 22 1f 29 cfbc ffff26f4 d 11 19 5 d 17 10 c b d88e b e
FIXUPS: 4f993 ffff2764 11 9 a 11 9 a 62 8 63 33 53 22 1e 15 27 45 ffffa3dd
FIXUPS: 3c738 1a 20 7 a b 1c 12 17 26 25 20 20 23 1c 16 18 16 14 35 10
FIXUPS: 3c953 55d0 23 55 d f 8c d901 b e ffff716d 2a 32 d 13 34 44 2d 56
FIXUPS: 46c4f 8dd9 a ffff7249 18 1e 2b 7 99 57 8a ffff56bb 15 11 35 1d
FIXUPS: 3c599 134a5 fffecbc9 45 18 5b 2f ed6 7 12 13 21 10 9 50 10 9 39
FIXUPS: 3d6d8 1a 21 16 2c 1a 35 1e 15 12 18 91e7 3d d 11 19 b 8fad a ffff7069
FIXUPS: 46ab3 ffff648b 27 11 1f f 18 f 22 11 39 45 1a 68 44 f 61 54 54
FIXUPS: 3d280 52 16 12 1d 25 51 61 2d 87 39 36 59 28 124c0 ffff75fc 25
FIXUPS: 47078 5 31 23 11 cc 42 37 8 1f b 15 1f 8 b0 51 38 ffff5759 12 12
FIXUPS: 3cb84 60 18 8b 26 29 58 1db 11 72fa 1c 9 b823 b ffff4801 10 47
FIXUPS: 442ca 27 1f 1b 24 2e 1f 14 38 14 17 9 27 ffff8549 16 117 a3fe b6
FIXUPS: 46fce d 11 1d 20 8a1f fffeed86 3f 3c 51 40 26 16 111ea a fffeee3c
FIXUPS: 3e95d f 12 16 25 26 1c 23 16 26 18 8a19 b 14 866a b ffff4676 b
FIXUPS: 441b8 11 28 e ffffa265 29 f 3a 115da a fffeea6e d e 63 2c 9c d
FIXUPS: 3e699 1e 19 14 113e0 c fffeec5a d c 11 11384 a fffeec96 d 11 16
FIXUPS: 3e7b7 11335 a fffee1be 2d 3b 33 c 23 f 1f 11 a 37 13 1f 19 35 11
FIXUPS: 3deae f 1f 10 10 1d 19 31 30 75 98 ef e2 72 b0 90 fffff46d d 11
FIXUPS: 3d8d5 22 b 1218e b a fffede86 27 22 2d a1 f 25 26 28 36 26 15 c
FIXUPS: 3db62 f 1f 2b 16 8 7 89 f 26 ffffbbc6 e 12 18 1641c 8 8 8 8 8 8
FIXUPS: 4fcf0 a fffe9bd2 4c 25 8 40 fffdad05 d 11 16 3b646 a fffc49c8 29141
FIXUPS: 3d825 f 22 1221a b a fffe9adf 29 68 f 8 23 17 8 1b 55 e 12 18 16576
FIXUPS: 4fc74 8 8 8 8 8 8 a fffe9a65 16 29 5c f 8 17 17 8 1b fffffa5b c
FIXUPS: 392d3 10 c 28 42 41 45 10 c a b c 16804 8 8 a fffe97fe 9 15 167ee
FIXUPS: 4fc4f fffe9859 d 11 13 b 16774 a fffe98cf 18 1667b a fffe9426 46
FIXUPS: 39058 d c e 16b59 16 b fffe94a1 15 19 21 42 f c c 1b 13 29 39 27
FIXUPS: 39216 10 169de 8 a fffe9629 10 b fffffaf8 8 f 16e1b 8 8 a fffe91e8
FIXUPS: 38dc2 15 b 19 7 a 1e b 29 c 16d3e 8 a fffe92ce 33 14 34 17 d 52
FIXUPS: 38f9d 23 d c fffff99c 171db b b b a fffe8e20 1c 60 3f 4a 50 43
FIXUPS: 38b44 1c 1f 86 16 20 19 d e 31 b 5 26 d 8 23 a 17 8 17046 fffe9c3e
FIXUPS: 39a58 162c3 a fffe9d72 1c 7 c 1626d a fffe9dac 34 36 cb 3b 14 48
FIXUPS: 39d74 88 ffffead0 c 22 1722e b b a fffe8dde 13 19 c c 12882 1e
FIXUPS: 4b215 1c 27 19 15 18 12 1a b 23 10 1f 12 10 16 23 49c9 8 b a ffffb630
FIXUPS: 4b3a6 37 25 1c 39 1d 12 f 48de ffff7c9f b b 11 83bf a ffff7c73
FIXUPS: 47a8f d fffedbf8 b 7 18e10 fffe71fb 69 1a 1e 18 48 51 14 f 22 10
FIXUPS: 35866 12252 5 b c 367b 45 4a ffffc456 11 24 28 871f c ffff7984
FIXUPS: 4774d 11 1c c c c 8626 b b b a ffff79cf 7 b 71 1b 1b 67 3d 3a 43
FIXUPS: 479a8 3c 1b 8 ffff258b 62 8 19 8 7 15de8 a fffea249 32 17 15d78
FIXUPS: 4fe2a fffeec97 20 e 4f 898f d 6fb4 17 18e3 a ffff7758 e 18 e 12
FIXUPS: 4fd9c a ffff782c d 507 9 14 8 af 49 62 a 17 48 1a 1b d c 3e 80da
FIXUPS: 4fe3e fffeeddc 74 24 17 ffffb162 18 d 12 2a 14 12 2d 26 32 53 fffdaabe
FIXUPS: 14b8c 4d 9 48 17 14 a e 1e 5f 27 127 1e 1a 4f 2e 38 e 33 4e c 3aeb0
FIXUPS: 4fe78 d a fffc514a 16 d 32d93 4b 3a 4c12 14 ffffb3ed b 14 8136
FIXUPS: 4ff87 fffc4757 5 b c 5 18 7 f7 d 8 17 3b607 b fffc4a06 b 17 3b5e1
FIXUPS: 4fe67 fffc4a49 42 17 42 53 32 2a 37a09 1f 22 12 10 6 5 38 bf 25
FIXUPS: 4c5b3 1d 1b ac 13 f 51 8 43 60 43 1a 32 52 36be a ffffc953 3b 4f
FIXUPS: 4ff68 a ffffca83 fffff501 15 4001 8 a ffffc009 63 28 10c 38 14
FIXUPS: 4c129 17 11 16 11 82 1e 2b 8 6e 8 8 14 12 3c39 8 8 8 a ffffc3d0
FIXUPS: 4c338 3b94 b a ffffb97b 20 14 13 48 12 3d e1 56 13 1e 444a a b
FIXUPS: 4bae7 2e 1c 2e 7 8b 9b 1d 94 115 1d 1b d 16 12 fffff65a d 10 17
FIXUPS: 4b577 12 25 8c 17 1b b c 4815 b ffffb82e 7 15 10 d 1c 4786 b a
FIXUPS: 4b78e d 14 1d 11 6 c 46 b 47dc a ffffd241 c 19 f 2d95 a ffffd281
FIXUPS: 4d2c3 d 11 16 b 2d42 a ffffd2cb 21 1c 2d05 8 b ffffd333 44 2c96
FIXUPS: 50085 fffc4f82 364c8 c 19 11 6 1af3 d 63 8b 7f 4a 7 1d 8 c 19 c
FIXUPS: 4d22b c b c 2d42 8 8 8 8 8 b b 8 b 8 8 8 8 b 8 ffffcd8e f f c c
FIXUPS: 4cde4 c 1f d 7 15 11 38 d c 1e 7 d 1a 32 7 c 1f c 16 c d 13 d 2d
FIXUPS: 4cfd9 1d fffffa88 21 25 a 9 7 14 e 21 3d 19 18 14 42 13 16 a d
FIXUPS: 4cc6c 54 11 11 11 1c 18 14 f c c c 1b d fffed43e 15 3d f 16 16
FIXUPS: 500a4 a fffea204 f 2e 15dc9 a fffea27b b d 14 e 3a 40 e 15 29 1d
FIXUPS: 3a4a0 11 28 1d 3d 77 28 a d8a8 c b 5 11 b c fffe6050 26 41 19 fffe708f
FIXUPS: 1504d d 1a 26 d 25017 12 10 d 14 b 15f84 a fffea091 35 22 f d f
FIXUPS: 3a1b4 ffffb7f5 3a b0 29 98 2f 19 86 16 42 1f ac 48fe 14 14 1ad
FIXUPS: 3a833 79 13 14 15 c ffffb00b 17 16 36 1a76c fffe57fb 1d 1257d 5
FIXUPS: 47e79 fffcd287 c 3b007 b a ffff7e11 4e 34 e8 24 cc 31 3e 1f 2c
FIXUPS: 4825a 73 5a 19 36 11 3c 4d f 17 17 1a 9 7c6a ffff83d2 23 fffed4d0
FIXUPS: 35dc2 5 12 13 23 b d 15 1d 12 10 15 1a257 b a fffe5dc2 2d d 21
FIXUPS: 35f28 b 9 e 20 9 1a193 fffe5e9f 30 fffdf0e8 d 11 19 33485 c 5 5
FIXUPS: 48594 b c 5 fffe762b d 18 1c c 1c 15 10 13 204b4 a fffdfb65 4c
FIXUPS: 2fd67 15 7 56 5f78 f 2b 17 8 8 8 129ee 1c fffcc95d d 11 13 3b042
FIXUPS: 5019e ffff4362 10 f 41d0 5 fffffec1 5 a a c ac a 5e4d fffe7b63
FIXUPS: 36047 124a0 7c5d a ffff83da 7c30 a ffff8401 6 5 fffccc42 1c 30
FIXUPS: 15251 3af59 ffff86be fffed816 6 19 9 1c 11 1a099 c fffe5f75 b a
FIXUPS: 36116 15 f 17 125b0 23 1a 12 10 13 7a0d a ffff8600 5 e ffffc176
FIXUPS: 44926 15 30 8 14 f f f 12 b7ee 8 8 8 8 8 8 8 8 8 a ffff483f 18
FIXUPS: 44a72 14 ffffa2af 19 7d 7f 1b 25 fffd6304 19cf5 2138f fffdec97
FIXUPS: 2eec7 15 21342 fffdece4 32 28 212ce ffff4303 6 a 3c 8e 67 57 b
FIXUPS: 446dd 10 15 f 19 47 13 2b 16 f 25 9b 3e 15 fffd520a 24 46 20 24
FIXUPS: 19bda 2c 23 76 14 5c 17 80 15 15 de 1c 15 30 8 d 3c 44 2f8b8 11b
FIXUPS: 49988 f 38 fffe5444 17 27 1d fffea5da 21 f4 4a 36f45 b 8 a fffc91e2
FIXUPS: 19732 8 e 2c f 36d93 fffc92e8 15 32 34 36ca7 a fffc93b7 5d 86 9
FIXUPS: 199e7 12 1a 1e 13 17 3e fffff4f9 12 33 12 39 12 24 12 24 12 24
FIXUPS: 190d6 4f 12 33 12 35 12 2e 18 33 12 41 12 24 12 5f c 66 43 12 34
FIXUPS: 50436 b b b b b 8 b b b 8 b 8 b a fffc86e4 58 65 c 1a d 37836 8
FIXUPS: 504e2 fffc88b5 95 43 39 12 42 10 12 fffff8c3 d 20 2c d 20 24 14
FIXUPS: 188ac 4e 4d 28 23 4c 25 20 12 2c 1c 1d 12 51 20 24 14 d 15 c 3788d
FIXUPS: 5041b 8 b fffc7de8 1a 3c 8 38 4d 8a 1a 1b 2a 49 18 14 1b 82 25
FIXUPS: 1854e 20 3c 1d 3f 20 36 4f 2a d 20 2c d 20 3f 20 fffff393 33 d
FIXUPS: 17bbc 4f d0 66 9c 30 e 19 21 2c a 3855d 8 a fffc7ac2 23 38527 fffc7b44
FIXUPS: 18018 20 4c 20 12 12 3d 23 50 7b 17 fffff40c 9 63 9 80 24 9 7a
FIXUPS: 1784f 15 1c 7 29 33 b 8 41 34 b5 18 5c 38914 a b fffc7715 21 14
FIXUPS: 503c8 b a fffc7744 19 fffff62c 19 18 67 39 35 9b 30 8 54 48 8 e
FIXUPS: 173f7 f 6 28 38f2b a fffc70e3 55 38ed3 a fffc7155 13 38ea2 b a
FIXUPS: 17521 70 22 27 38d5a c fffc6735 38 1c 1c 5a 53 d 397a9 c fffc6887
FIXUPS: 16bf5 2b 12 27 1a 78 79 91 1a 12 9e b 80 1a 44 17 7b 48 c b7 fffff36d
FIXUPS: 502d2 fffc61f0 58 39dc4 fffc62cc 50 43 3b 24 39c4e fffc63c2 40
FIXUPS: 502f4 a fffc6409 2c 39bd5 a fffc647a 13b 3e 39a19 fffc65f7 52 399c3
FIXUPS: 1698c f 1c 14 14 15 ffffedd1 24 3aa9f a fffc55a3 b5 60 3a952 a
FIXUPS: 15a8b 24 1f e5 f 1c 3a6d2 a fffc5c9a 110 25 65 68 c1 45 8 7a 1e
FIXUPS: 163b9 3f 39ece fffc6146 5d ffffef99 f 12 65 32 b b 3ad78 b e a
FIXUPS: 154e9 23 10 34 27 3acfd a fffc5313 1e d 22 21 1e 34 69 16 16 d
FIXUPS: 15784 20 f 35897 3a d 51 5486 b b b a fffe5be9 1a 1b 9 15 14 43
FIXUPS: 36241 17 11 6 fffdf02b e 23 b3 3aeb6 a fffc5161 d 11 29 6 8 357df
FIXUPS: 4abe5 e f 2a 26 9 12 f 90 582a ffffa8ab 1c c c 572b b b a ffffa8ca
FIXUPS: 4ae37 20 19 59 52 34 1a 14 26 2f 21 34 ffffec26 d 11 1d e c 68fa
FIXUPS: 505a6 ffff972c 34 b 1e 6881 b ffff9793 f 17 d 4d 67f8 ffff9843
FIXUPS: 49e3e 6794 ffff98a7 68 66fd ffffa278 14e 14 181 4f c 5be0 a fffef1cb
FIXUPS: 3f965 1c 1e 17 2c 10da6 a fffef25d 8 d 11 2d 19 10d41 a fffea194
FIXUPS: 3a956 14 6 69 17 2d 13acb 35 1e 2275 b a ffff9449 ffff5c19 d c
FIXUPS: 3f855 d c 8 7 14 11 21 11 10 9 18 1b c 10dd0 8 8 8 8 8 8 8 8 8
FIXUPS: 5074c 8 8 8 8 fffeeec6 f 1e d c a 18 d c 15 d c e 9 f 1e d c a
FIXUPS: 3f760 d c 15 d c e 9 f 1a d c a fffffbe1 1a d 12 21 d 17 d 12 25
FIXUPS: 3f4ba c a 1b d c 15 d c f 11 8 11 13 16 b 2c 13 12 b 5 24 fffffb7d
FIXUPS: 3f1bb 38 19 c 9 d 9 25 11 c 16 c c b 12 f 42 113aa 8 8 8 8 b a
FIXUPS: 3f365 14 d 18 d 12 21 11272 8 8 8 8 8 a fffee816 64 1a 8 9 b 8
FIXUPS: 3ef49 c 11737 8 a fffee8d7 12 7a c c 22 2f 1163e a fffee9d3 38
FIXUPS: 3f121 60 9d5f 11 1a 11 16 9 13 17 f 1f f 1a f 38 19 15 12 1a 15
FIXUPS: 4907e c c c c c c 18 c 7546 8 8 8 ffff8622 c c c 15 c 794d 8 8
FIXUPS: 50614 8 a ffff86a1 20 d 2c 10 10 10 16 27 1b f c 50 c 1e f 2d 16
FIXUPS: 48eb0 11 fffffa5f 4e c 96 15 7bc3 a ffff8450 d 11 1f d 69 11 b
FIXUPS: 48b41 b 16 b 16 b 12 b 12 b 12 b 2d 19 15 17 b 7b8d fffc9ada d
FIXUPS: 49137 fffd0eac 8 c 11 4c 29 ac 17 13 161 13d26 4a 4c 1b 1b 16f2
FIXUPS: 2f7a5 21 10 13 20fe7 a fffdf032 57 10 3c 37 1901d ffff7b63 e 44
FIXUPS: 404bf 10 b 1b 26 b 194 1a 12 1f 32 e a5 18 25 1a 29 19 1c 1a b3
FIXUPS: 1a300 5 8 2f6cf 9 15 29 6dc1 fffef9ca 18 10 1c f 21 b 10 b 10 a
FIXUPS: 4026d 7 11 f 2c 1054c a fffefac1 10 29 24 21 c 1f c 10494 a fffefb85
FIXUPS: 403da b 4e fffff63e 10 d 13 6 f 6 23 10d19 a fffef3bb 39 9 b 25
FIXUPS: 3fc49 cc 7 7f 1b 13 4b 2c 2c 66 7e 30 11 5b 59 16 1c fffee24c 38
FIXUPS: 2e3b3 ad b 18 f c 1b 19cd d 2d 13 13 10 13 2092b a fffdf6ef 3e
FIXUPS: 2ffb8 24 22 27 17 7 13 19150 71 78 37 10 ffffc9c9 3657 b 14 7657
FIXUPS: 50977 fffdd73e 1e 27 c f 22741 9 a fffdd8c8 1e 23 c f 226f5 9 a
FIXUPS: 2e1d5 48 15 14 b 12 14 15 1a 12 17720 af1c 8 8 8 8 8 8 8 8 8 8
FIXUPS: 5094c a ffff509e 43 11 1e 8 a8 1b 3b 18 19 15 17 ad99 ffff52b1
FIXUPS: 45c50 15 c e fffff843 a 51 2a 2a 44 33 53 18 1c 1c 19 16 19 19
FIXUPS: 4573f 42 32 40 6d a 3e 12 1e 10 14 f 70 1f 14 f f af20 ffff4404
FIXUPS: 44d0f 37 f b f e 1b 6b 19 42 16 42 8 62 3a 11a 1c9 7 9 16 1c 34
FIXUPS: 452d3 1d 28 c 62 2a e7 1d fffea64b 18 54 14f2c a 6 a 17 c 25 bda7
FIXUPS: 508ae a ffff4258 d 11 1c d 49 4a 26 60 c 7 bc3d a ffff43d0 19 f
FIXUPS: 44ccd bc07 e ffff0df1 36 20 4f 3a 8 6a 7 15 16 e 10 f 11 7 fffee091
FIXUPS: 2f939 11 16 21020 a fffdf007 21 c 35 47 12 1c 8 2e 33 c 113f7 12
FIXUPS: 40ef7 4e 12 89 1b 11 c ac 5e 7 169 10 35 15 35 d 10 4f 24 8e 28
FIXUPS: 41480 12 4e a c2 6a c 5f 32 ffff5421 19efc a fffe611e c 34 21 d
FIXUPS: 36b89 1e b4 41 11 42 22 a 9db9 1b 11 d 28d c 40 b b b 7 c 7 70
FIXUPS: 40e9d 21 ffff55cc e 46 3b 11 2f 2b 24 2d 14 1f 28 29 2c 54 1e 1c
FIXUPS: 36746 14 1c 46 c 1a1ec 8 a fffe5e7b 6b 27 7b 43 8f 4c 2de 30 1a
